
hello.mips:     file format elf32-bigmips


Disassembly of section .text:

00000100 <_start>:
     100:	3c1d0050 	lui	sp,0x50
     104:	23bdfc00 	addi	sp,sp,-1024
     108:	3c1c0002 	lui	gp,0x2
     10c:	279ce990 	addiu	gp,gp,-5744
     110:	0c00004a 	jal	128 <main>
     114:	00000000 	nop
     118:	00000000 	nop
     11c:	0c004898 	jal	12260 <_exit>
     120:	00000000 	nop
     124:	00000000 	nop

00000128 <main>:
     128:	27bdffd8 	addiu	sp,sp,-40
     12c:	afbf0024 	sw	ra,36(sp)
     130:	afbe0020 	sw	s8,32(sp)
     134:	03a0f021 	move	s8,sp
     138:	24020003 	li	v0,3
     13c:	afc20010 	sw	v0,16(s8)
     140:	24020002 	li	v0,2
     144:	afc20014 	sw	v0,20(s8)
     148:	8fc30010 	lw	v1,16(s8)
     14c:	8fc20014 	lw	v0,20(s8)
     150:	00000000 	nop
     154:	00621021 	addu	v0,v1,v0
     158:	afc20018 	sw	v0,24(s8)
     15c:	3c020001 	lui	v0,0x1
     160:	24444a50 	addiu	a0,v0,19024
     164:	0c00007e 	jal	1f8 <printf>
     168:	00000000 	nop
     16c:	00001021 	move	v0,zero
     170:	03c0e821 	move	sp,s8
     174:	8fbf0024 	lw	ra,36(sp)
     178:	8fbe0020 	lw	s8,32(sp)
     17c:	27bd0028 	addiu	sp,sp,40
     180:	03e00008 	jr	ra
     184:	00000000 	nop

00000188 <_printf_r>:
     188:	27bdffe0 	addiu	sp,sp,-32
     18c:	afbf001c 	sw	ra,28(sp)
     190:	afbe0018 	sw	s8,24(sp)
     194:	03a0f021 	move	s8,sp
     198:	afc40020 	sw	a0,32(s8)
     19c:	afc60028 	sw	a2,40(s8)
     1a0:	afc7002c 	sw	a3,44(s8)
     1a4:	afc50024 	sw	a1,36(s8)
     1a8:	27c20028 	addiu	v0,s8,40
     1ac:	afc20014 	sw	v0,20(s8)
     1b0:	8fc20020 	lw	v0,32(s8)
     1b4:	00000000 	nop
     1b8:	8c430008 	lw	v1,8(v0)
     1bc:	8fc20014 	lw	v0,20(s8)
     1c0:	8fc40020 	lw	a0,32(s8)
     1c4:	00602821 	move	a1,v1
     1c8:	8fc60024 	lw	a2,36(s8)
     1cc:	00403821 	move	a3,v0
     1d0:	0c000103 	jal	40c <_vfprintf_r>
     1d4:	00000000 	nop
     1d8:	afc20010 	sw	v0,16(s8)
     1dc:	8fc20010 	lw	v0,16(s8)
     1e0:	03c0e821 	move	sp,s8
     1e4:	8fbf001c 	lw	ra,28(sp)
     1e8:	8fbe0018 	lw	s8,24(sp)
     1ec:	27bd0020 	addiu	sp,sp,32
     1f0:	03e00008 	jr	ra
     1f4:	00000000 	nop

000001f8 <printf>:
     1f8:	27bdffd8 	addiu	sp,sp,-40
     1fc:	afbf0024 	sw	ra,36(sp)
     200:	afbe0020 	sw	s8,32(sp)
     204:	03a0f021 	move	s8,sp
     208:	afc5002c 	sw	a1,44(s8)
     20c:	afc60030 	sw	a2,48(s8)
     210:	afc70034 	sw	a3,52(s8)
     214:	afc40028 	sw	a0,40(s8)
     218:	8f828068 	lw	v0,-32664(gp)
     21c:	00000000 	nop
     220:	afc20010 	sw	v0,16(s8)
     224:	27c2002c 	addiu	v0,s8,44
     228:	afc20018 	sw	v0,24(s8)
     22c:	8fc20010 	lw	v0,16(s8)
     230:	00000000 	nop
     234:	8c430008 	lw	v1,8(v0)
     238:	8fc20018 	lw	v0,24(s8)
     23c:	8fc40010 	lw	a0,16(s8)
     240:	00602821 	move	a1,v1
     244:	8fc60028 	lw	a2,40(s8)
     248:	00403821 	move	a3,v0
     24c:	0c000103 	jal	40c <_vfprintf_r>
     250:	00000000 	nop
     254:	afc20014 	sw	v0,20(s8)
     258:	8fc20014 	lw	v0,20(s8)
     25c:	03c0e821 	move	sp,s8
     260:	8fbf0024 	lw	ra,36(sp)
     264:	8fbe0020 	lw	s8,32(sp)
     268:	27bd0028 	addiu	sp,sp,40
     26c:	03e00008 	jr	ra
     270:	00000000 	nop

00000274 <__sbprintf>:
     274:	27bdfb70 	addiu	sp,sp,-1168
     278:	afbf048c 	sw	ra,1164(sp)
     27c:	afbe0488 	sw	s8,1160(sp)
     280:	afb00484 	sw	s0,1156(sp)
     284:	03a0f021 	move	s8,sp
     288:	afc40490 	sw	a0,1168(s8)
     28c:	00a08021 	move	s0,a1
     290:	afc60498 	sw	a2,1176(s8)
     294:	afc7049c 	sw	a3,1180(s8)
     298:	8603000c 	lh	v1,12(s0)
     29c:	2402fffd 	li	v0,-3
     2a0:	00621024 	and	v0,v1,v0
     2a4:	00021400 	sll	v0,v0,0x10
     2a8:	00021403 	sra	v0,v0,0x10
     2ac:	a7c20020 	sh	v0,32(s8)
     2b0:	8e020064 	lw	v0,100(s0)
     2b4:	00000000 	nop
     2b8:	afc20078 	sw	v0,120(s8)
     2bc:	8602000e 	lh	v0,14(s0)
     2c0:	00000000 	nop
     2c4:	a7c20022 	sh	v0,34(s8)
     2c8:	8e02001c 	lw	v0,28(s0)
     2cc:	00000000 	nop
     2d0:	afc20030 	sw	v0,48(s8)
     2d4:	8e020024 	lw	v0,36(s0)
     2d8:	00000000 	nop
     2dc:	afc20038 	sw	v0,56(s8)
     2e0:	27c2007c 	addiu	v0,s8,124
     2e4:	afc20014 	sw	v0,20(s8)
     2e8:	8fc20014 	lw	v0,20(s8)
     2ec:	00000000 	nop
     2f0:	afc20024 	sw	v0,36(s8)
     2f4:	24020400 	li	v0,1024
     2f8:	afc2001c 	sw	v0,28(s8)
     2fc:	8fc2001c 	lw	v0,28(s8)
     300:	00000000 	nop
     304:	afc20028 	sw	v0,40(s8)
     308:	afc0002c 	sw	zero,44(s8)
     30c:	27c20014 	addiu	v0,s8,20
     310:	8fc40490 	lw	a0,1168(s8)
     314:	00402821 	move	a1,v0
     318:	8fc60498 	lw	a2,1176(s8)
     31c:	8fc7049c 	lw	a3,1180(s8)
     320:	0c000103 	jal	40c <_vfprintf_r>
     324:	00000000 	nop
     328:	afc20010 	sw	v0,16(s8)
     32c:	8fc20010 	lw	v0,16(s8)
     330:	00000000 	nop
     334:	0440000a 	bltz	v0,360 <__sbprintf+0xec>
     338:	00000000 	nop
     33c:	27c20014 	addiu	v0,s8,20
     340:	8fc40490 	lw	a0,1168(s8)
     344:	00402821 	move	a1,v0
     348:	0c001b34 	jal	6cd0 <_fflush_r>
     34c:	00000000 	nop
     350:	10400003 	beqz	v0,360 <__sbprintf+0xec>
     354:	00000000 	nop
     358:	2402ffff 	li	v0,-1
     35c:	afc20010 	sw	v0,16(s8)
     360:	87c20020 	lh	v0,32(s8)
     364:	00000000 	nop
     368:	3042ffff 	andi	v0,v0,0xffff
     36c:	30420040 	andi	v0,v0,0x40
     370:	10400007 	beqz	v0,390 <__sbprintf+0x11c>
     374:	00000000 	nop
     378:	8602000c 	lh	v0,12(s0)
     37c:	00000000 	nop
     380:	34420040 	ori	v0,v0,0x40
     384:	00021400 	sll	v0,v0,0x10
     388:	00021403 	sra	v0,v0,0x10
     38c:	a602000c 	sh	v0,12(s0)
     390:	8fc20010 	lw	v0,16(s8)
     394:	03c0e821 	move	sp,s8
     398:	8fbf048c 	lw	ra,1164(sp)
     39c:	8fbe0488 	lw	s8,1160(sp)
     3a0:	8fb00484 	lw	s0,1156(sp)
     3a4:	27bd0490 	addiu	sp,sp,1168
     3a8:	03e00008 	jr	ra
     3ac:	00000000 	nop

000003b0 <vfprintf>:
     3b0:	27bdffe0 	addiu	sp,sp,-32
     3b4:	afbf001c 	sw	ra,28(sp)
     3b8:	afbe0018 	sw	s8,24(sp)
     3bc:	03a0f021 	move	s8,sp
     3c0:	afc40020 	sw	a0,32(s8)
     3c4:	afc50024 	sw	a1,36(s8)
     3c8:	afc60028 	sw	a2,40(s8)
     3cc:	8f828068 	lw	v0,-32664(gp)
     3d0:	00000000 	nop
     3d4:	00402021 	move	a0,v0
     3d8:	8fc50020 	lw	a1,32(s8)
     3dc:	8fc60024 	lw	a2,36(s8)
     3e0:	8fc70028 	lw	a3,40(s8)
     3e4:	0c000103 	jal	40c <_vfprintf_r>
     3e8:	00000000 	nop
     3ec:	afc20010 	sw	v0,16(s8)
     3f0:	8fc20010 	lw	v0,16(s8)
     3f4:	03c0e821 	move	sp,s8
     3f8:	8fbf001c 	lw	ra,28(sp)
     3fc:	8fbe0018 	lw	s8,24(sp)
     400:	27bd0020 	addiu	sp,sp,32
     404:	03e00008 	jr	ra
     408:	00000000 	nop

0000040c <_vfprintf_r>:
     40c:	27bdfe08 	addiu	sp,sp,-504
     410:	afbf01f4 	sw	ra,500(sp)
     414:	afbe01f0 	sw	s8,496(sp)
     418:	afb701ec 	sw	s7,492(sp)
     41c:	afb601e8 	sw	s6,488(sp)
     420:	afb501e4 	sw	s5,484(sp)
     424:	afb401e0 	sw	s4,480(sp)
     428:	afb301dc 	sw	s3,476(sp)
     42c:	afb201d8 	sw	s2,472(sp)
     430:	afb101d4 	sw	s1,468(sp)
     434:	afb001d0 	sw	s0,464(sp)
     438:	03a0f021 	move	s8,sp
     43c:	afc401f8 	sw	a0,504(s8)
     440:	afc501fc 	sw	a1,508(s8)
     444:	afc60200 	sw	a2,512(s8)
     448:	afc70204 	sw	a3,516(s8)
     44c:	8fc401f8 	lw	a0,504(s8)
     450:	0c002097 	jal	825c <_localeconv_r>
     454:	00000000 	nop
     458:	8c420000 	lw	v0,0(v0)
     45c:	00000000 	nop
     460:	afc20084 	sw	v0,132(s8)
     464:	8fc40084 	lw	a0,132(s8)
     468:	0c0033b0 	jal	cec0 <strlen>
     46c:	00000000 	nop
     470:	afc20088 	sw	v0,136(s8)
     474:	00001821 	move	v1,zero
     478:	00001021 	move	v0,zero
     47c:	afc300a4 	sw	v1,164(s8)
     480:	afc200a0 	sw	v0,160(s8)
     484:	afc00048 	sw	zero,72(s8)
     488:	afc000b4 	sw	zero,180(s8)
     48c:	afc00070 	sw	zero,112(s8)
     490:	afc00074 	sw	zero,116(s8)
     494:	8fc201f8 	lw	v0,504(s8)
     498:	00000000 	nop
     49c:	1040000a 	beqz	v0,4c8 <_vfprintf_r+0xbc>
     4a0:	00000000 	nop
     4a4:	8fc201f8 	lw	v0,504(s8)
     4a8:	00000000 	nop
     4ac:	8c420038 	lw	v0,56(v0)
     4b0:	00000000 	nop
     4b4:	14400004 	bnez	v0,4c8 <_vfprintf_r+0xbc>
     4b8:	00000000 	nop
     4bc:	8fc401f8 	lw	a0,504(s8)
     4c0:	0c001cb6 	jal	72d8 <__sinit>
     4c4:	00000000 	nop
     4c8:	8fc201fc 	lw	v0,508(s8)
     4cc:	00000000 	nop
     4d0:	8442000c 	lh	v0,12(v0)
     4d4:	00000000 	nop
     4d8:	3042ffff 	andi	v0,v0,0xffff
     4dc:	30422000 	andi	v0,v0,0x2000
     4e0:	14400013 	bnez	v0,530 <_vfprintf_r+0x124>
     4e4:	00000000 	nop
     4e8:	8fc201fc 	lw	v0,508(s8)
     4ec:	00000000 	nop
     4f0:	8442000c 	lh	v0,12(v0)
     4f4:	00000000 	nop
     4f8:	34422000 	ori	v0,v0,0x2000
     4fc:	00021c00 	sll	v1,v0,0x10
     500:	00031c03 	sra	v1,v1,0x10
     504:	8fc201fc 	lw	v0,508(s8)
     508:	00000000 	nop
     50c:	a443000c 	sh	v1,12(v0)
     510:	8fc201fc 	lw	v0,508(s8)
     514:	00000000 	nop
     518:	8c430064 	lw	v1,100(v0)
     51c:	2402dfff 	li	v0,-8193
     520:	00621824 	and	v1,v1,v0
     524:	8fc201fc 	lw	v0,508(s8)
     528:	00000000 	nop
     52c:	ac430064 	sw	v1,100(v0)
     530:	8fc201fc 	lw	v0,508(s8)
     534:	00000000 	nop
     538:	8442000c 	lh	v0,12(v0)
     53c:	00000000 	nop
     540:	3042ffff 	andi	v0,v0,0xffff
     544:	30420008 	andi	v0,v0,0x8
     548:	10400007 	beqz	v0,568 <_vfprintf_r+0x15c>
     54c:	00000000 	nop
     550:	8fc201fc 	lw	v0,508(s8)
     554:	00000000 	nop
     558:	8c420010 	lw	v0,16(v0)
     55c:	00000000 	nop
     560:	1440000a 	bnez	v0,58c <_vfprintf_r+0x180>
     564:	00000000 	nop
     568:	8fc401f8 	lw	a0,504(s8)
     56c:	8fc501fc 	lw	a1,508(s8)
     570:	0c000fbf 	jal	3efc <__swsetup_r>
     574:	00000000 	nop
     578:	10400004 	beqz	v0,58c <_vfprintf_r+0x180>
     57c:	00000000 	nop
     580:	2402ffff 	li	v0,-1
     584:	08000db5 	j	36d4 <_vfprintf_r+0x32c8>
     588:	00000000 	nop
     58c:	8fc201fc 	lw	v0,508(s8)
     590:	00000000 	nop
     594:	8442000c 	lh	v0,12(v0)
     598:	00000000 	nop
     59c:	3042ffff 	andi	v0,v0,0xffff
     5a0:	3043001a 	andi	v1,v0,0x1a
     5a4:	2402000a 	li	v0,10
     5a8:	1462000f 	bne	v1,v0,5e8 <_vfprintf_r+0x1dc>
     5ac:	00000000 	nop
     5b0:	8fc201fc 	lw	v0,508(s8)
     5b4:	00000000 	nop
     5b8:	8442000e 	lh	v0,14(v0)
     5bc:	00000000 	nop
     5c0:	04400009 	bltz	v0,5e8 <_vfprintf_r+0x1dc>
     5c4:	00000000 	nop
     5c8:	8fc401f8 	lw	a0,504(s8)
     5cc:	8fc501fc 	lw	a1,508(s8)
     5d0:	8fc60200 	lw	a2,512(s8)
     5d4:	8fc70204 	lw	a3,516(s8)
     5d8:	0c00009d 	jal	274 <__sbprintf>
     5dc:	00000000 	nop
     5e0:	08000db5 	j	36d4 <_vfprintf_r+0x32c8>
     5e4:	00000000 	nop
     5e8:	8fd50200 	lw	s5,512(s8)
     5ec:	27d100c4 	addiu	s1,s8,196
     5f0:	afd100b8 	sw	s1,184(s8)
     5f4:	afc000c0 	sw	zero,192(s8)
     5f8:	afc000bc 	sw	zero,188(s8)
     5fc:	afc00030 	sw	zero,48(s8)
     600:	02a09021 	move	s2,s5
     604:	08000184 	j	610 <_vfprintf_r+0x204>
     608:	00000000 	nop
     60c:	26b50001 	addiu	s5,s5,1
     610:	82a20000 	lb	v0,0(s5)
     614:	00000000 	nop
     618:	10400005 	beqz	v0,630 <_vfprintf_r+0x224>
     61c:	00000000 	nop
     620:	82a30000 	lb	v1,0(s5)
     624:	24020025 	li	v0,37
     628:	1462fff8 	bne	v1,v0,60c <_vfprintf_r+0x200>
     62c:	00000000 	nop
     630:	02a01821 	move	v1,s5
     634:	02401021 	move	v0,s2
     638:	00628023 	subu	s0,v1,v0
     63c:	12000021 	beqz	s0,6c4 <_vfprintf_r+0x2b8>
     640:	00000000 	nop
     644:	ae320000 	sw	s2,0(s1)
     648:	02001021 	move	v0,s0
     64c:	ae220004 	sw	v0,4(s1)
     650:	8fc200c0 	lw	v0,192(s8)
     654:	00000000 	nop
     658:	00501021 	addu	v0,v0,s0
     65c:	afc200c0 	sw	v0,192(s8)
     660:	26310008 	addiu	s1,s1,8
     664:	8fc200bc 	lw	v0,188(s8)
     668:	00000000 	nop
     66c:	24420001 	addiu	v0,v0,1
     670:	afc200bc 	sw	v0,188(s8)
     674:	8fc200bc 	lw	v0,188(s8)
     678:	00000000 	nop
     67c:	28420008 	slti	v0,v0,8
     680:	1440000c 	bnez	v0,6b4 <_vfprintf_r+0x2a8>
     684:	00000000 	nop
     688:	27c200b8 	addiu	v0,s8,184
     68c:	8fc401f8 	lw	a0,504(s8)
     690:	8fc501fc 	lw	a1,508(s8)
     694:	00403021 	move	a2,v0
     698:	0c00352c 	jal	d4b0 <__sprint_r>
     69c:	00000000 	nop
     6a0:	10400003 	beqz	v0,6b0 <_vfprintf_r+0x2a4>
     6a4:	00000000 	nop
     6a8:	08000da1 	j	3684 <_vfprintf_r+0x3278>
     6ac:	00000000 	nop
     6b0:	27d100c4 	addiu	s1,s8,196
     6b4:	8fc20030 	lw	v0,48(s8)
     6b8:	00000000 	nop
     6bc:	00501021 	addu	v0,v0,s0
     6c0:	afc20030 	sw	v0,48(s8)
     6c4:	82a20000 	lb	v0,0(s5)
     6c8:	00000000 	nop
     6cc:	14400003 	bnez	v0,6dc <_vfprintf_r+0x2d0>
     6d0:	00000000 	nop
     6d4:	08000d91 	j	3644 <_vfprintf_r+0x3238>
     6d8:	00000000 	nop
     6dc:	afd5008c 	sw	s5,140(s8)
     6e0:	26b50001 	addiu	s5,s5,1
     6e4:	00009821 	move	s3,zero
     6e8:	afc00064 	sw	zero,100(s8)
     6ec:	afc00034 	sw	zero,52(s8)
     6f0:	2402ffff 	li	v0,-1
     6f4:	afc20038 	sw	v0,56(s8)
     6f8:	a3c00098 	sb	zero,152(s8)
     6fc:	afc0004c 	sw	zero,76(s8)
     700:	afc00054 	sw	zero,84(s8)
     704:	8fc20054 	lw	v0,84(s8)
     708:	00000000 	nop
     70c:	afc20050 	sw	v0,80(s8)
     710:	080001c7 	j	71c <_vfprintf_r+0x310>
     714:	00000000 	nop
     718:	00000000 	nop
     71c:	02a01021 	move	v0,s5
     720:	24550001 	addiu	s5,v0,1
     724:	80420000 	lb	v0,0(v0)
     728:	00000000 	nop
     72c:	0040a021 	move	s4,v0
     730:	2683ffe0 	addiu	v1,s4,-32
     734:	2c62005b 	sltiu	v0,v1,91
     738:	10400562 	beqz	v0,1cc4 <_vfprintf_r+0x18b8>
     73c:	00000000 	nop
     740:	00031880 	sll	v1,v1,0x2
     744:	3c020001 	lui	v0,0x1
     748:	24424abc 	addiu	v0,v0,19132
     74c:	00621021 	addu	v0,v1,v0
     750:	8c420000 	lw	v0,0(v0)
     754:	00000000 	nop
     758:	00400008 	jr	v0
     75c:	00000000 	nop
     760:	8fc401f8 	lw	a0,504(s8)
     764:	0c002097 	jal	825c <_localeconv_r>
     768:	00000000 	nop
     76c:	8c420004 	lw	v0,4(v0)
     770:	00000000 	nop
     774:	afc2003c 	sw	v0,60(s8)
     778:	8fc4003c 	lw	a0,60(s8)
     77c:	0c0033b0 	jal	cec0 <strlen>
     780:	00000000 	nop
     784:	afc20040 	sw	v0,64(s8)
     788:	8fc401f8 	lw	a0,504(s8)
     78c:	0c002097 	jal	825c <_localeconv_r>
     790:	00000000 	nop
     794:	8c420008 	lw	v0,8(v0)
     798:	00000000 	nop
     79c:	afc20044 	sw	v0,68(s8)
     7a0:	8fc20040 	lw	v0,64(s8)
     7a4:	00000000 	nop
     7a8:	1040000e 	beqz	v0,7e4 <_vfprintf_r+0x3d8>
     7ac:	00000000 	nop
     7b0:	8fc20044 	lw	v0,68(s8)
     7b4:	00000000 	nop
     7b8:	1040000a 	beqz	v0,7e4 <_vfprintf_r+0x3d8>
     7bc:	00000000 	nop
     7c0:	8fc20044 	lw	v0,68(s8)
     7c4:	00000000 	nop
     7c8:	80420000 	lb	v0,0(v0)
     7cc:	00000000 	nop
     7d0:	10400004 	beqz	v0,7e4 <_vfprintf_r+0x3d8>
     7d4:	00000000 	nop
     7d8:	36730400 	ori	s3,s3,0x400
     7dc:	080001c7 	j	71c <_vfprintf_r+0x310>
     7e0:	00000000 	nop
     7e4:	080001c7 	j	71c <_vfprintf_r+0x310>
     7e8:	00000000 	nop
     7ec:	83c20098 	lb	v0,152(s8)
     7f0:	00000000 	nop
     7f4:	14400005 	bnez	v0,80c <_vfprintf_r+0x400>
     7f8:	00000000 	nop
     7fc:	24020020 	li	v0,32
     800:	a3c20098 	sb	v0,152(s8)
     804:	080001c7 	j	71c <_vfprintf_r+0x310>
     808:	00000000 	nop
     80c:	080001c7 	j	71c <_vfprintf_r+0x310>
     810:	00000000 	nop
     814:	36730001 	ori	s3,s3,0x1
     818:	080001c7 	j	71c <_vfprintf_r+0x310>
     81c:	00000000 	nop
     820:	8fc30204 	lw	v1,516(s8)
     824:	00000000 	nop
     828:	24620004 	addiu	v0,v1,4
     82c:	afc20204 	sw	v0,516(s8)
     830:	8c620000 	lw	v0,0(v1)
     834:	00000000 	nop
     838:	afc20034 	sw	v0,52(s8)
     83c:	8fc20034 	lw	v0,52(s8)
     840:	00000000 	nop
     844:	04400003 	bltz	v0,854 <_vfprintf_r+0x448>
     848:	00000000 	nop
     84c:	080001c7 	j	71c <_vfprintf_r+0x310>
     850:	00000000 	nop
     854:	8fc20034 	lw	v0,52(s8)
     858:	00000000 	nop
     85c:	00021023 	negu	v0,v0
     860:	afc20034 	sw	v0,52(s8)
     864:	36730004 	ori	s3,s3,0x4
     868:	080001c7 	j	71c <_vfprintf_r+0x310>
     86c:	00000000 	nop
     870:	2402002b 	li	v0,43
     874:	a3c20098 	sb	v0,152(s8)
     878:	080001c7 	j	71c <_vfprintf_r+0x310>
     87c:	00000000 	nop
     880:	02a01021 	move	v0,s5
     884:	24550001 	addiu	s5,v0,1
     888:	80420000 	lb	v0,0(v0)
     88c:	00000000 	nop
     890:	0040a021 	move	s4,v0
     894:	2402002a 	li	v0,42
     898:	16820012 	bne	s4,v0,8e4 <_vfprintf_r+0x4d8>
     89c:	00000000 	nop
     8a0:	8fc30204 	lw	v1,516(s8)
     8a4:	00000000 	nop
     8a8:	24620004 	addiu	v0,v1,4
     8ac:	afc20204 	sw	v0,516(s8)
     8b0:	8c620000 	lw	v0,0(v1)
     8b4:	00000000 	nop
     8b8:	afc20038 	sw	v0,56(s8)
     8bc:	8fc20038 	lw	v0,56(s8)
     8c0:	00000000 	nop
     8c4:	04410005 	bgez	v0,8dc <_vfprintf_r+0x4d0>
     8c8:	00000000 	nop
     8cc:	2402ffff 	li	v0,-1
     8d0:	afc20038 	sw	v0,56(s8)
     8d4:	080001c7 	j	71c <_vfprintf_r+0x310>
     8d8:	00000000 	nop
     8dc:	080001c7 	j	71c <_vfprintf_r+0x310>
     8e0:	00000000 	nop
     8e4:	00008021 	move	s0,zero
     8e8:	08000247 	j	91c <_vfprintf_r+0x510>
     8ec:	00000000 	nop
     8f0:	02001021 	move	v0,s0
     8f4:	00021040 	sll	v0,v0,0x1
     8f8:	00021880 	sll	v1,v0,0x2
     8fc:	00431821 	addu	v1,v0,v1
     900:	2682ffd0 	addiu	v0,s4,-48
     904:	00628021 	addu	s0,v1,v0
     908:	02a01021 	move	v0,s5
     90c:	24550001 	addiu	s5,v0,1
     910:	80420000 	lb	v0,0(v0)
     914:	00000000 	nop
     918:	0040a021 	move	s4,v0
     91c:	2682ffd0 	addiu	v0,s4,-48
     920:	2c42000a 	sltiu	v0,v0,10
     924:	1440fff2 	bnez	v0,8f0 <_vfprintf_r+0x4e4>
     928:	00000000 	nop
     92c:	02001021 	move	v0,s0
     930:	04410002 	bgez	v0,93c <_vfprintf_r+0x530>
     934:	00000000 	nop
     938:	2402ffff 	li	v0,-1
     93c:	afc20038 	sw	v0,56(s8)
     940:	080001cc 	j	730 <_vfprintf_r+0x324>
     944:	00000000 	nop
     948:	36730080 	ori	s3,s3,0x80
     94c:	080001c7 	j	71c <_vfprintf_r+0x310>
     950:	00000000 	nop
     954:	00008021 	move	s0,zero
     958:	02001021 	move	v0,s0
     95c:	00021040 	sll	v0,v0,0x1
     960:	00021880 	sll	v1,v0,0x2
     964:	00431821 	addu	v1,v0,v1
     968:	2682ffd0 	addiu	v0,s4,-48
     96c:	00628021 	addu	s0,v1,v0
     970:	02a01021 	move	v0,s5
     974:	24550001 	addiu	s5,v0,1
     978:	80420000 	lb	v0,0(v0)
     97c:	00000000 	nop
     980:	0040a021 	move	s4,v0
     984:	2682ffd0 	addiu	v0,s4,-48
     988:	2c42000a 	sltiu	v0,v0,10
     98c:	1440fff2 	bnez	v0,958 <_vfprintf_r+0x54c>
     990:	00000000 	nop
     994:	afd00034 	sw	s0,52(s8)
     998:	080001cc 	j	730 <_vfprintf_r+0x324>
     99c:	00000000 	nop
     9a0:	36730008 	ori	s3,s3,0x8
     9a4:	080001c7 	j	71c <_vfprintf_r+0x310>
     9a8:	00000000 	nop
     9ac:	82a30000 	lb	v1,0(s5)
     9b0:	24020068 	li	v0,104
     9b4:	14620005 	bne	v1,v0,9cc <_vfprintf_r+0x5c0>
     9b8:	00000000 	nop
     9bc:	26b50001 	addiu	s5,s5,1
     9c0:	36730200 	ori	s3,s3,0x200
     9c4:	080001c7 	j	71c <_vfprintf_r+0x310>
     9c8:	00000000 	nop
     9cc:	36730040 	ori	s3,s3,0x40
     9d0:	080001c7 	j	71c <_vfprintf_r+0x310>
     9d4:	00000000 	nop
     9d8:	82a30000 	lb	v1,0(s5)
     9dc:	2402006c 	li	v0,108
     9e0:	14620005 	bne	v1,v0,9f8 <_vfprintf_r+0x5ec>
     9e4:	00000000 	nop
     9e8:	26b50001 	addiu	s5,s5,1
     9ec:	36730020 	ori	s3,s3,0x20
     9f0:	080001c7 	j	71c <_vfprintf_r+0x310>
     9f4:	00000000 	nop
     9f8:	36730010 	ori	s3,s3,0x10
     9fc:	080001c7 	j	71c <_vfprintf_r+0x310>
     a00:	00000000 	nop
     a04:	36730020 	ori	s3,s3,0x20
     a08:	080001c7 	j	71c <_vfprintf_r+0x310>
     a0c:	00000000 	nop
     a10:	36730020 	ori	s3,s3,0x20
     a14:	080001c7 	j	71c <_vfprintf_r+0x310>
     a18:	00000000 	nop
     a1c:	27d20104 	addiu	s2,s8,260
     a20:	8fc30204 	lw	v1,516(s8)
     a24:	00000000 	nop
     a28:	24620004 	addiu	v0,v1,4
     a2c:	afc20204 	sw	v0,516(s8)
     a30:	8c620000 	lw	v0,0(v1)
     a34:	00000000 	nop
     a38:	00021600 	sll	v0,v0,0x18
     a3c:	00021603 	sra	v0,v0,0x18
     a40:	a2420000 	sb	v0,0(s2)
     a44:	24020001 	li	v0,1
     a48:	afc2006c 	sw	v0,108(s8)
     a4c:	a3c00098 	sb	zero,152(s8)
     a50:	0800073d 	j	1cf4 <_vfprintf_r+0x18e8>
     a54:	00000000 	nop
     a58:	36730010 	ori	s3,s3,0x10
     a5c:	32620020 	andi	v0,s3,0x20
     a60:	1040000c 	beqz	v0,a94 <_vfprintf_r+0x688>
     a64:	00000000 	nop
     a68:	8fc20204 	lw	v0,516(s8)
     a6c:	00000000 	nop
     a70:	24430007 	addiu	v1,v0,7
     a74:	2402fff8 	li	v0,-8
     a78:	00621824 	and	v1,v1,v0
     a7c:	24620008 	addiu	v0,v1,8
     a80:	afc20204 	sw	v0,516(s8)
     a84:	8c620000 	lw	v0,0(v1)
     a88:	8c630004 	lw	v1,4(v1)
     a8c:	080002e4 	j	b90 <_vfprintf_r+0x784>
     a90:	00000000 	nop
     a94:	32620010 	andi	v0,s3,0x10
     a98:	1040000c 	beqz	v0,acc <_vfprintf_r+0x6c0>
     a9c:	00000000 	nop
     aa0:	8fc30204 	lw	v1,516(s8)
     aa4:	00000000 	nop
     aa8:	24620004 	addiu	v0,v1,4
     aac:	afc20204 	sw	v0,516(s8)
     ab0:	8c620000 	lw	v0,0(v1)
     ab4:	00000000 	nop
     ab8:	afc20174 	sw	v0,372(s8)
     abc:	000217c3 	sra	v0,v0,0x1f
     ac0:	afc20170 	sw	v0,368(s8)
     ac4:	080002e2 	j	b88 <_vfprintf_r+0x77c>
     ac8:	00000000 	nop
     acc:	32620040 	andi	v0,s3,0x40
     ad0:	1040000e 	beqz	v0,b0c <_vfprintf_r+0x700>
     ad4:	00000000 	nop
     ad8:	8fc30204 	lw	v1,516(s8)
     adc:	00000000 	nop
     ae0:	24620004 	addiu	v0,v1,4
     ae4:	afc20204 	sw	v0,516(s8)
     ae8:	8c620000 	lw	v0,0(v1)
     aec:	00000000 	nop
     af0:	00021400 	sll	v0,v0,0x10
     af4:	00021403 	sra	v0,v0,0x10
     af8:	afc2017c 	sw	v0,380(s8)
     afc:	000217c3 	sra	v0,v0,0x1f
     b00:	afc20178 	sw	v0,376(s8)
     b04:	080002de 	j	b78 <_vfprintf_r+0x76c>
     b08:	00000000 	nop
     b0c:	32620200 	andi	v0,s3,0x200
     b10:	1040000e 	beqz	v0,b4c <_vfprintf_r+0x740>
     b14:	00000000 	nop
     b18:	8fc30204 	lw	v1,516(s8)
     b1c:	00000000 	nop
     b20:	24620004 	addiu	v0,v1,4
     b24:	afc20204 	sw	v0,516(s8)
     b28:	8c620000 	lw	v0,0(v1)
     b2c:	00000000 	nop
     b30:	00021600 	sll	v0,v0,0x18
     b34:	00021603 	sra	v0,v0,0x18
     b38:	0040b821 	move	s7,v0
     b3c:	000217c3 	sra	v0,v0,0x1f
     b40:	0040b021 	move	s6,v0
     b44:	080002dc 	j	b70 <_vfprintf_r+0x764>
     b48:	00000000 	nop
     b4c:	8fc30204 	lw	v1,516(s8)
     b50:	00000000 	nop
     b54:	24620004 	addiu	v0,v1,4
     b58:	afc20204 	sw	v0,516(s8)
     b5c:	8c620000 	lw	v0,0(v1)
     b60:	00000000 	nop
     b64:	0040b821 	move	s7,v0
     b68:	000217c3 	sra	v0,v0,0x1f
     b6c:	0040b021 	move	s6,v0
     b70:	afd7017c 	sw	s7,380(s8)
     b74:	afd60178 	sw	s6,376(s8)
     b78:	8fc5017c 	lw	a1,380(s8)
     b7c:	8fc40178 	lw	a0,376(s8)
     b80:	afc50174 	sw	a1,372(s8)
     b84:	afc40170 	sw	a0,368(s8)
     b88:	8fc30174 	lw	v1,372(s8)
     b8c:	8fc20170 	lw	v0,368(s8)
     b90:	afc3005c 	sw	v1,92(s8)
     b94:	afc20058 	sw	v0,88(s8)
     b98:	8fc3005c 	lw	v1,92(s8)
     b9c:	8fc20058 	lw	v0,88(s8)
     ba0:	00000000 	nop
     ba4:	0441000e 	bgez	v0,be0 <_vfprintf_r+0x7d4>
     ba8:	00000000 	nop
     bac:	00001821 	move	v1,zero
     bb0:	00001021 	move	v0,zero
     bb4:	8fc5005c 	lw	a1,92(s8)
     bb8:	8fc40058 	lw	a0,88(s8)
     bbc:	00653823 	subu	a3,v1,a1
     bc0:	0067402b 	sltu	t0,v1,a3
     bc4:	00443023 	subu	a2,v0,a0
     bc8:	00c81023 	subu	v0,a2,t0
     bcc:	00403021 	move	a2,v0
     bd0:	afc7005c 	sw	a3,92(s8)
     bd4:	afc60058 	sw	a2,88(s8)
     bd8:	2402002d 	li	v0,45
     bdc:	a3c20098 	sb	v0,152(s8)
     be0:	24020001 	li	v0,1
     be4:	a3c20060 	sb	v0,96(s8)
     be8:	0800063e 	j	18f8 <_vfprintf_r+0x14ec>
     bec:	00000000 	nop
     bf0:	32620008 	andi	v0,s3,0x8
     bf4:	1040000f 	beqz	v0,c34 <_vfprintf_r+0x828>
     bf8:	00000000 	nop
     bfc:	8fc20204 	lw	v0,516(s8)
     c00:	00000000 	nop
     c04:	24430007 	addiu	v1,v0,7
     c08:	2402fff8 	li	v0,-8
     c0c:	00621824 	and	v1,v1,v0
     c10:	24620008 	addiu	v0,v1,8
     c14:	afc20204 	sw	v0,516(s8)
     c18:	8c620000 	lw	v0,0(v1)
     c1c:	8c630004 	lw	v1,4(v1)
     c20:	00000000 	nop
     c24:	afc300a4 	sw	v1,164(s8)
     c28:	afc200a0 	sw	v0,160(s8)
     c2c:	08000319 	j	c64 <_vfprintf_r+0x858>
     c30:	00000000 	nop
     c34:	8fc20204 	lw	v0,516(s8)
     c38:	00000000 	nop
     c3c:	24430007 	addiu	v1,v0,7
     c40:	2402fff8 	li	v0,-8
     c44:	00621824 	and	v1,v1,v0
     c48:	24620008 	addiu	v0,v1,8
     c4c:	afc20204 	sw	v0,516(s8)
     c50:	8c620000 	lw	v0,0(v1)
     c54:	8c630004 	lw	v1,4(v1)
     c58:	00000000 	nop
     c5c:	afc300a4 	sw	v1,164(s8)
     c60:	afc200a0 	sw	v0,160(s8)
     c64:	8fc300a4 	lw	v1,164(s8)
     c68:	8fc200a0 	lw	v0,160(s8)
     c6c:	00602821 	move	a1,v1
     c70:	00402021 	move	a0,v0
     c74:	0c00319c 	jal	c670 <__fpclassifyd>
     c78:	00000000 	nop
     c7c:	00401821 	move	v1,v0
     c80:	24020001 	li	v0,1
     c84:	1462001c 	bne	v1,v0,cf8 <_vfprintf_r+0x8ec>
     c88:	00000000 	nop
     c8c:	8fc300a4 	lw	v1,164(s8)
     c90:	8fc200a0 	lw	v0,160(s8)
     c94:	00602821 	move	a1,v1
     c98:	00402021 	move	a0,v0
     c9c:	00003821 	move	a3,zero
     ca0:	00003021 	move	a2,zero
     ca4:	0c005030 	jal	140c0 <__ltdf2>
     ca8:	00000000 	nop
     cac:	04410003 	bgez	v0,cbc <_vfprintf_r+0x8b0>
     cb0:	00000000 	nop
     cb4:	2402002d 	li	v0,45
     cb8:	a3c20098 	sb	v0,152(s8)
     cbc:	2a820048 	slti	v0,s4,72
     cc0:	10400005 	beqz	v0,cd8 <_vfprintf_r+0x8cc>
     cc4:	00000000 	nop
     cc8:	3c020001 	lui	v0,0x1
     ccc:	24524a5c 	addiu	s2,v0,19036
     cd0:	08000338 	j	ce0 <_vfprintf_r+0x8d4>
     cd4:	00000000 	nop
     cd8:	3c020001 	lui	v0,0x1
     cdc:	24524a60 	addiu	s2,v0,19040
     ce0:	24020003 	li	v0,3
     ce4:	afc2006c 	sw	v0,108(s8)
     ce8:	2402ff7f 	li	v0,-129
     cec:	02629824 	and	s3,s3,v0
     cf0:	0800073d 	j	1cf4 <_vfprintf_r+0x18e8>
     cf4:	00000000 	nop
     cf8:	8fc300a4 	lw	v1,164(s8)
     cfc:	8fc200a0 	lw	v0,160(s8)
     d00:	00602821 	move	a1,v1
     d04:	00402021 	move	a0,v0
     d08:	0c00319c 	jal	c670 <__fpclassifyd>
     d0c:	00000000 	nop
     d10:	14400010 	bnez	v0,d54 <_vfprintf_r+0x948>
     d14:	00000000 	nop
     d18:	2a820048 	slti	v0,s4,72
     d1c:	10400005 	beqz	v0,d34 <_vfprintf_r+0x928>
     d20:	00000000 	nop
     d24:	3c020001 	lui	v0,0x1
     d28:	24524a64 	addiu	s2,v0,19044
     d2c:	0800034f 	j	d3c <_vfprintf_r+0x930>
     d30:	00000000 	nop
     d34:	3c020001 	lui	v0,0x1
     d38:	24524a68 	addiu	s2,v0,19048
     d3c:	24020003 	li	v0,3
     d40:	afc2006c 	sw	v0,108(s8)
     d44:	2402ff7f 	li	v0,-129
     d48:	02629824 	and	s3,s3,v0
     d4c:	0800073d 	j	1cf4 <_vfprintf_r+0x18e8>
     d50:	00000000 	nop
     d54:	24020061 	li	v0,97
     d58:	12820004 	beq	s4,v0,d6c <_vfprintf_r+0x960>
     d5c:	00000000 	nop
     d60:	24020041 	li	v0,65
     d64:	1682002f 	bne	s4,v0,e24 <_vfprintf_r+0xa18>
     d68:	00000000 	nop
     d6c:	24020030 	li	v0,48
     d70:	a3c20168 	sb	v0,360(s8)
     d74:	24020061 	li	v0,97
     d78:	16820004 	bne	s4,v0,d8c <_vfprintf_r+0x980>
     d7c:	00000000 	nop
     d80:	24020078 	li	v0,120
     d84:	08000364 	j	d90 <_vfprintf_r+0x984>
     d88:	00000000 	nop
     d8c:	24020058 	li	v0,88
     d90:	a3c20169 	sb	v0,361(s8)
     d94:	36730002 	ori	s3,s3,0x2
     d98:	8fc20038 	lw	v0,56(s8)
     d9c:	00000000 	nop
     da0:	28420064 	slti	v0,v0,100
     da4:	1440001c 	bnez	v0,e18 <_vfprintf_r+0xa0c>
     da8:	00000000 	nop
     dac:	8fc20038 	lw	v0,56(s8)
     db0:	00000000 	nop
     db4:	24420001 	addiu	v0,v0,1
     db8:	8fc401f8 	lw	a0,504(s8)
     dbc:	00402821 	move	a1,v0
     dc0:	0c002291 	jal	8a44 <_malloc_r>
     dc4:	00000000 	nop
     dc8:	afc20074 	sw	v0,116(s8)
     dcc:	8fc20074 	lw	v0,116(s8)
     dd0:	00000000 	nop
     dd4:	1440000d 	bnez	v0,e0c <_vfprintf_r+0xa00>
     dd8:	00000000 	nop
     ddc:	8fc201fc 	lw	v0,508(s8)
     de0:	00000000 	nop
     de4:	8442000c 	lh	v0,12(v0)
     de8:	00000000 	nop
     dec:	34420040 	ori	v0,v0,0x40
     df0:	00021c00 	sll	v1,v0,0x10
     df4:	00031c03 	sra	v1,v1,0x10
     df8:	8fc201fc 	lw	v0,508(s8)
     dfc:	00000000 	nop
     e00:	a443000c 	sh	v1,12(v0)
     e04:	08000da1 	j	3684 <_vfprintf_r+0x3278>
     e08:	00000000 	nop
     e0c:	8fd20074 	lw	s2,116(s8)
     e10:	0800039d 	j	e74 <_vfprintf_r+0xa68>
     e14:	00000000 	nop
     e18:	27d20104 	addiu	s2,s8,260
     e1c:	0800039d 	j	e74 <_vfprintf_r+0xa68>
     e20:	00000000 	nop
     e24:	8fc30038 	lw	v1,56(s8)
     e28:	2402ffff 	li	v0,-1
     e2c:	14620005 	bne	v1,v0,e44 <_vfprintf_r+0xa38>
     e30:	00000000 	nop
     e34:	24020006 	li	v0,6
     e38:	afc20038 	sw	v0,56(s8)
     e3c:	0800039d 	j	e74 <_vfprintf_r+0xa68>
     e40:	00000000 	nop
     e44:	24020067 	li	v0,103
     e48:	12820004 	beq	s4,v0,e5c <_vfprintf_r+0xa50>
     e4c:	00000000 	nop
     e50:	24020047 	li	v0,71
     e54:	16820007 	bne	s4,v0,e74 <_vfprintf_r+0xa68>
     e58:	00000000 	nop
     e5c:	8fc20038 	lw	v0,56(s8)
     e60:	00000000 	nop
     e64:	14400003 	bnez	v0,e74 <_vfprintf_r+0xa68>
     e68:	00000000 	nop
     e6c:	24020001 	li	v0,1
     e70:	afc20038 	sw	v0,56(s8)
     e74:	36730100 	ori	s3,s3,0x100
     e78:	8fc700a4 	lw	a3,164(s8)
     e7c:	8fc600a0 	lw	a2,160(s8)
     e80:	8fc20038 	lw	v0,56(s8)
     e84:	00000000 	nop
     e88:	afa20010 	sw	v0,16(sp)
     e8c:	afb30014 	sw	s3,20(sp)
     e90:	27c20099 	addiu	v0,s8,153
     e94:	afa20018 	sw	v0,24(sp)
     e98:	27c200a8 	addiu	v0,s8,168
     e9c:	afa2001c 	sw	v0,28(sp)
     ea0:	afb40020 	sw	s4,32(sp)
     ea4:	27c200b4 	addiu	v0,s8,180
     ea8:	afa20024 	sw	v0,36(sp)
     eac:	afb20028 	sw	s2,40(sp)
     eb0:	8fc401f8 	lw	a0,504(s8)
     eb4:	0c000dc3 	jal	370c <cvt>
     eb8:	00000000 	nop
     ebc:	00409021 	move	s2,v0
     ec0:	24020067 	li	v0,103
     ec4:	12820004 	beq	s4,v0,ed8 <_vfprintf_r+0xacc>
     ec8:	00000000 	nop
     ecc:	24020047 	li	v0,71
     ed0:	16820012 	bne	s4,v0,f1c <_vfprintf_r+0xb10>
     ed4:	00000000 	nop
     ed8:	8fc200a8 	lw	v0,168(s8)
     edc:	00000000 	nop
     ee0:	2842fffd 	slti	v0,v0,-3
     ee4:	14400007 	bnez	v0,f04 <_vfprintf_r+0xaf8>
     ee8:	00000000 	nop
     eec:	8fc300a8 	lw	v1,168(s8)
     ef0:	8fc20038 	lw	v0,56(s8)
     ef4:	00000000 	nop
     ef8:	0043102a 	slt	v0,v0,v1
     efc:	10400004 	beqz	v0,f10 <_vfprintf_r+0xb04>
     f00:	00000000 	nop
     f04:	2694fffe 	addiu	s4,s4,-2
     f08:	080003cb 	j	f2c <_vfprintf_r+0xb20>
     f0c:	00000000 	nop
     f10:	24140067 	li	s4,103
     f14:	080003cb 	j	f2c <_vfprintf_r+0xb20>
     f18:	00000000 	nop
     f1c:	24020046 	li	v0,70
     f20:	16820002 	bne	s4,v0,f2c <_vfprintf_r+0xb20>
     f24:	00000000 	nop
     f28:	24140066 	li	s4,102
     f2c:	2a820066 	slti	v0,s4,102
     f30:	10400022 	beqz	v0,fbc <_vfprintf_r+0xbb0>
     f34:	00000000 	nop
     f38:	8fc200a8 	lw	v0,168(s8)
     f3c:	00000000 	nop
     f40:	2442ffff 	addiu	v0,v0,-1
     f44:	afc200a8 	sw	v0,168(s8)
     f48:	8fc300a8 	lw	v1,168(s8)
     f4c:	27c200ac 	addiu	v0,s8,172
     f50:	00402021 	move	a0,v0
     f54:	00602821 	move	a1,v1
     f58:	02803021 	move	a2,s4
     f5c:	0c000f2b 	jal	3cac <exponent>
     f60:	00000000 	nop
     f64:	afc20048 	sw	v0,72(s8)
     f68:	8fc300b4 	lw	v1,180(s8)
     f6c:	8fc20048 	lw	v0,72(s8)
     f70:	00000000 	nop
     f74:	00431021 	addu	v0,v0,v1
     f78:	afc2006c 	sw	v0,108(s8)
     f7c:	8fc200b4 	lw	v0,180(s8)
     f80:	00000000 	nop
     f84:	28420002 	slti	v0,v0,2
     f88:	10400004 	beqz	v0,f9c <_vfprintf_r+0xb90>
     f8c:	00000000 	nop
     f90:	32620001 	andi	v0,s3,0x1
     f94:	10400005 	beqz	v0,fac <_vfprintf_r+0xba0>
     f98:	00000000 	nop
     f9c:	8fc2006c 	lw	v0,108(s8)
     fa0:	00000000 	nop
     fa4:	24420001 	addiu	v0,v0,1
     fa8:	afc2006c 	sw	v0,108(s8)
     fac:	2402fbff 	li	v0,-1025
     fb0:	02629824 	and	s3,s3,v0
     fb4:	0800048b 	j	122c <_vfprintf_r+0xe20>
     fb8:	00000000 	nop
     fbc:	24020066 	li	v0,102
     fc0:	16820028 	bne	s4,v0,1064 <_vfprintf_r+0xc58>
     fc4:	00000000 	nop
     fc8:	8fc200a8 	lw	v0,168(s8)
     fcc:	00000000 	nop
     fd0:	18400014 	blez	v0,1024 <_vfprintf_r+0xc18>
     fd4:	00000000 	nop
     fd8:	8fc200a8 	lw	v0,168(s8)
     fdc:	00000000 	nop
     fe0:	afc2006c 	sw	v0,108(s8)
     fe4:	8fc20038 	lw	v0,56(s8)
     fe8:	00000000 	nop
     fec:	14400004 	bnez	v0,1000 <_vfprintf_r+0xbf4>
     ff0:	00000000 	nop
     ff4:	32620001 	andi	v0,s3,0x1
     ff8:	1040003a 	beqz	v0,10e4 <_vfprintf_r+0xcd8>
     ffc:	00000000 	nop
    1000:	8fc20038 	lw	v0,56(s8)
    1004:	00000000 	nop
    1008:	24430001 	addiu	v1,v0,1
    100c:	8fc2006c 	lw	v0,108(s8)
    1010:	00000000 	nop
    1014:	00431021 	addu	v0,v0,v1
    1018:	afc2006c 	sw	v0,108(s8)
    101c:	08000439 	j	10e4 <_vfprintf_r+0xcd8>
    1020:	00000000 	nop
    1024:	8fc20038 	lw	v0,56(s8)
    1028:	00000000 	nop
    102c:	14400004 	bnez	v0,1040 <_vfprintf_r+0xc34>
    1030:	00000000 	nop
    1034:	32620001 	andi	v0,s3,0x1
    1038:	10400006 	beqz	v0,1054 <_vfprintf_r+0xc48>
    103c:	00000000 	nop
    1040:	8fc20038 	lw	v0,56(s8)
    1044:	00000000 	nop
    1048:	24420002 	addiu	v0,v0,2
    104c:	08000416 	j	1058 <_vfprintf_r+0xc4c>
    1050:	00000000 	nop
    1054:	24020001 	li	v0,1
    1058:	afc2006c 	sw	v0,108(s8)
    105c:	08000439 	j	10e4 <_vfprintf_r+0xcd8>
    1060:	00000000 	nop
    1064:	8fc300a8 	lw	v1,168(s8)
    1068:	8fc200b4 	lw	v0,180(s8)
    106c:	00000000 	nop
    1070:	0062102a 	slt	v0,v1,v0
    1074:	1440000d 	bnez	v0,10ac <_vfprintf_r+0xca0>
    1078:	00000000 	nop
    107c:	8fc200a8 	lw	v0,168(s8)
    1080:	00000000 	nop
    1084:	afc2006c 	sw	v0,108(s8)
    1088:	32620001 	andi	v0,s3,0x1
    108c:	10400015 	beqz	v0,10e4 <_vfprintf_r+0xcd8>
    1090:	00000000 	nop
    1094:	8fc2006c 	lw	v0,108(s8)
    1098:	00000000 	nop
    109c:	24420001 	addiu	v0,v0,1
    10a0:	afc2006c 	sw	v0,108(s8)
    10a4:	08000439 	j	10e4 <_vfprintf_r+0xcd8>
    10a8:	00000000 	nop
    10ac:	8fc200a8 	lw	v0,168(s8)
    10b0:	00000000 	nop
    10b4:	1c400006 	bgtz	v0,10d0 <_vfprintf_r+0xcc4>
    10b8:	00000000 	nop
    10bc:	8fc300a8 	lw	v1,168(s8)
    10c0:	24020002 	li	v0,2
    10c4:	00431823 	subu	v1,v0,v1
    10c8:	08000435 	j	10d4 <_vfprintf_r+0xcc8>
    10cc:	00000000 	nop
    10d0:	24030001 	li	v1,1
    10d4:	8fc200b4 	lw	v0,180(s8)
    10d8:	00000000 	nop
    10dc:	00621021 	addu	v0,v1,v0
    10e0:	afc2006c 	sw	v0,108(s8)
    10e4:	32620400 	andi	v0,s3,0x400
    10e8:	1040004d 	beqz	v0,1220 <_vfprintf_r+0xe14>
    10ec:	00000000 	nop
    10f0:	8fc200a8 	lw	v0,168(s8)
    10f4:	00000000 	nop
    10f8:	18400049 	blez	v0,1220 <_vfprintf_r+0xe14>
    10fc:	00000000 	nop
    1100:	afc00054 	sw	zero,84(s8)
    1104:	8fc20054 	lw	v0,84(s8)
    1108:	00000000 	nop
    110c:	afc20050 	sw	v0,80(s8)
    1110:	8fc200a8 	lw	v0,168(s8)
    1114:	00000000 	nop
    1118:	afc2004c 	sw	v0,76(s8)
    111c:	08000473 	j	11cc <_vfprintf_r+0xdc0>
    1120:	00000000 	nop
    1124:	8fc20044 	lw	v0,68(s8)
    1128:	00000000 	nop
    112c:	80420000 	lb	v0,0(v0)
    1130:	00000000 	nop
    1134:	00401821 	move	v1,v0
    1138:	8fc2004c 	lw	v0,76(s8)
    113c:	00000000 	nop
    1140:	0062102a 	slt	v0,v1,v0
    1144:	14400003 	bnez	v0,1154 <_vfprintf_r+0xd48>
    1148:	00000000 	nop
    114c:	08000479 	j	11e4 <_vfprintf_r+0xdd8>
    1150:	00000000 	nop
    1154:	8fc20044 	lw	v0,68(s8)
    1158:	00000000 	nop
    115c:	80420000 	lb	v0,0(v0)
    1160:	00000000 	nop
    1164:	00401821 	move	v1,v0
    1168:	8fc2004c 	lw	v0,76(s8)
    116c:	00000000 	nop
    1170:	00431023 	subu	v0,v0,v1
    1174:	afc2004c 	sw	v0,76(s8)
    1178:	8fc20044 	lw	v0,68(s8)
    117c:	00000000 	nop
    1180:	24420001 	addiu	v0,v0,1
    1184:	80420000 	lb	v0,0(v0)
    1188:	00000000 	nop
    118c:	1040000b 	beqz	v0,11bc <_vfprintf_r+0xdb0>
    1190:	00000000 	nop
    1194:	8fc20050 	lw	v0,80(s8)
    1198:	00000000 	nop
    119c:	24420001 	addiu	v0,v0,1
    11a0:	afc20050 	sw	v0,80(s8)
    11a4:	8fc20044 	lw	v0,68(s8)
    11a8:	00000000 	nop
    11ac:	24420001 	addiu	v0,v0,1
    11b0:	afc20044 	sw	v0,68(s8)
    11b4:	08000473 	j	11cc <_vfprintf_r+0xdc0>
    11b8:	00000000 	nop
    11bc:	8fc20054 	lw	v0,84(s8)
    11c0:	00000000 	nop
    11c4:	24420001 	addiu	v0,v0,1
    11c8:	afc20054 	sw	v0,84(s8)
    11cc:	8fc20044 	lw	v0,68(s8)
    11d0:	00000000 	nop
    11d4:	80430000 	lb	v1,0(v0)
    11d8:	2402007f 	li	v0,127
    11dc:	1462ffd1 	bne	v1,v0,1124 <_vfprintf_r+0xd18>
    11e0:	00000000 	nop
    11e4:	8fc30050 	lw	v1,80(s8)
    11e8:	8fc20054 	lw	v0,84(s8)
    11ec:	00000000 	nop
    11f0:	00621021 	addu	v0,v1,v0
    11f4:	00401821 	move	v1,v0
    11f8:	8fc20040 	lw	v0,64(s8)
    11fc:	00000000 	nop
    1200:	00620018 	mult	v1,v0
    1204:	00001812 	mflo	v1
    1208:	8fc2006c 	lw	v0,108(s8)
    120c:	00000000 	nop
    1210:	00621021 	addu	v0,v1,v0
    1214:	afc2006c 	sw	v0,108(s8)
    1218:	0800048b 	j	122c <_vfprintf_r+0xe20>
    121c:	00000000 	nop
    1220:	8fc200a8 	lw	v0,168(s8)
    1224:	00000000 	nop
    1228:	afc2004c 	sw	v0,76(s8)
    122c:	83c20099 	lb	v0,153(s8)
    1230:	00000000 	nop
    1234:	10400005 	beqz	v0,124c <_vfprintf_r+0xe40>
    1238:	00000000 	nop
    123c:	2402002d 	li	v0,45
    1240:	a3c20098 	sb	v0,152(s8)
    1244:	0800073d 	j	1cf4 <_vfprintf_r+0x18e8>
    1248:	00000000 	nop
    124c:	0800073d 	j	1cf4 <_vfprintf_r+0x18e8>
    1250:	00000000 	nop
    1254:	32620020 	andi	v0,s3,0x20
    1258:	10400011 	beqz	v0,12a0 <_vfprintf_r+0xe94>
    125c:	00000000 	nop
    1260:	8fc30204 	lw	v1,516(s8)
    1264:	00000000 	nop
    1268:	24620004 	addiu	v0,v1,4
    126c:	afc20204 	sw	v0,516(s8)
    1270:	8c630000 	lw	v1,0(v1)
    1274:	8fc20030 	lw	v0,48(s8)
    1278:	00000000 	nop
    127c:	afc201cc 	sw	v0,460(s8)
    1280:	000217c3 	sra	v0,v0,0x1f
    1284:	afc201c8 	sw	v0,456(s8)
    1288:	8fc501cc 	lw	a1,460(s8)
    128c:	8fc401c8 	lw	a0,456(s8)
    1290:	ac650004 	sw	a1,4(v1)
    1294:	ac640000 	sw	a0,0(v1)
    1298:	080004dd 	j	1374 <_vfprintf_r+0xf68>
    129c:	00000000 	nop
    12a0:	32620010 	andi	v0,s3,0x10
    12a4:	1040000b 	beqz	v0,12d4 <_vfprintf_r+0xec8>
    12a8:	00000000 	nop
    12ac:	8fc30204 	lw	v1,516(s8)
    12b0:	00000000 	nop
    12b4:	24620004 	addiu	v0,v1,4
    12b8:	afc20204 	sw	v0,516(s8)
    12bc:	8c630000 	lw	v1,0(v1)
    12c0:	8fc20030 	lw	v0,48(s8)
    12c4:	00000000 	nop
    12c8:	ac620000 	sw	v0,0(v1)
    12cc:	080004dd 	j	1374 <_vfprintf_r+0xf68>
    12d0:	00000000 	nop
    12d4:	32620040 	andi	v0,s3,0x40
    12d8:	1040000d 	beqz	v0,1310 <_vfprintf_r+0xf04>
    12dc:	00000000 	nop
    12e0:	8fc30204 	lw	v1,516(s8)
    12e4:	00000000 	nop
    12e8:	24620004 	addiu	v0,v1,4
    12ec:	afc20204 	sw	v0,516(s8)
    12f0:	8c630000 	lw	v1,0(v1)
    12f4:	8fc20030 	lw	v0,48(s8)
    12f8:	00000000 	nop
    12fc:	00021400 	sll	v0,v0,0x10
    1300:	00021403 	sra	v0,v0,0x10
    1304:	a4620000 	sh	v0,0(v1)
    1308:	080004dd 	j	1374 <_vfprintf_r+0xf68>
    130c:	00000000 	nop
    1310:	32620200 	andi	v0,s3,0x200
    1314:	1040000d 	beqz	v0,134c <_vfprintf_r+0xf40>
    1318:	00000000 	nop
    131c:	8fc30204 	lw	v1,516(s8)
    1320:	00000000 	nop
    1324:	24620004 	addiu	v0,v1,4
    1328:	afc20204 	sw	v0,516(s8)
    132c:	8c630000 	lw	v1,0(v1)
    1330:	8fc20030 	lw	v0,48(s8)
    1334:	00000000 	nop
    1338:	00021600 	sll	v0,v0,0x18
    133c:	00021603 	sra	v0,v0,0x18
    1340:	a0620000 	sb	v0,0(v1)
    1344:	080004dd 	j	1374 <_vfprintf_r+0xf68>
    1348:	00000000 	nop
    134c:	8fc30204 	lw	v1,516(s8)
    1350:	00000000 	nop
    1354:	24620004 	addiu	v0,v1,4
    1358:	afc20204 	sw	v0,516(s8)
    135c:	8c630000 	lw	v1,0(v1)
    1360:	8fc20030 	lw	v0,48(s8)
    1364:	00000000 	nop
    1368:	ac620000 	sw	v0,0(v1)
    136c:	08000d8f 	j	363c <_vfprintf_r+0x3230>
    1370:	00000000 	nop
    1374:	08000d8f 	j	363c <_vfprintf_r+0x3230>
    1378:	00000000 	nop
    137c:	36730010 	ori	s3,s3,0x10
    1380:	32620020 	andi	v0,s3,0x20
    1384:	1040000c 	beqz	v0,13b8 <_vfprintf_r+0xfac>
    1388:	00000000 	nop
    138c:	8fc20204 	lw	v0,516(s8)
    1390:	00000000 	nop
    1394:	24430007 	addiu	v1,v0,7
    1398:	2402fff8 	li	v0,-8
    139c:	00621824 	and	v1,v1,v0
    13a0:	24620008 	addiu	v0,v1,8
    13a4:	afc20204 	sw	v0,516(s8)
    13a8:	8c620000 	lw	v0,0(v1)
    13ac:	8c630004 	lw	v1,4(v1)
    13b0:	08000529 	j	14a4 <_vfprintf_r+0x1098>
    13b4:	00000000 	nop
    13b8:	32620010 	andi	v0,s3,0x10
    13bc:	1040000b 	beqz	v0,13ec <_vfprintf_r+0xfe0>
    13c0:	00000000 	nop
    13c4:	8fc30204 	lw	v1,516(s8)
    13c8:	00000000 	nop
    13cc:	24620004 	addiu	v0,v1,4
    13d0:	afc20204 	sw	v0,516(s8)
    13d4:	8c620000 	lw	v0,0(v1)
    13d8:	00000000 	nop
    13dc:	afc20184 	sw	v0,388(s8)
    13e0:	afc00180 	sw	zero,384(s8)
    13e4:	08000527 	j	149c <_vfprintf_r+0x1090>
    13e8:	00000000 	nop
    13ec:	32620040 	andi	v0,s3,0x40
    13f0:	1040000c 	beqz	v0,1424 <_vfprintf_r+0x1018>
    13f4:	00000000 	nop
    13f8:	8fc30204 	lw	v1,516(s8)
    13fc:	00000000 	nop
    1400:	24620004 	addiu	v0,v1,4
    1404:	afc20204 	sw	v0,516(s8)
    1408:	8c620000 	lw	v0,0(v1)
    140c:	00000000 	nop
    1410:	3042ffff 	andi	v0,v0,0xffff
    1414:	afc2018c 	sw	v0,396(s8)
    1418:	afc00188 	sw	zero,392(s8)
    141c:	08000523 	j	148c <_vfprintf_r+0x1080>
    1420:	00000000 	nop
    1424:	32620200 	andi	v0,s3,0x200
    1428:	1040000c 	beqz	v0,145c <_vfprintf_r+0x1050>
    142c:	00000000 	nop
    1430:	8fc30204 	lw	v1,516(s8)
    1434:	00000000 	nop
    1438:	24620004 	addiu	v0,v1,4
    143c:	afc20204 	sw	v0,516(s8)
    1440:	8c620000 	lw	v0,0(v1)
    1444:	00000000 	nop
    1448:	304200ff 	andi	v0,v0,0xff
    144c:	afc20194 	sw	v0,404(s8)
    1450:	afc00190 	sw	zero,400(s8)
    1454:	0800051f 	j	147c <_vfprintf_r+0x1070>
    1458:	00000000 	nop
    145c:	8fc30204 	lw	v1,516(s8)
    1460:	00000000 	nop
    1464:	24620004 	addiu	v0,v1,4
    1468:	afc20204 	sw	v0,516(s8)
    146c:	8c620000 	lw	v0,0(v1)
    1470:	00000000 	nop
    1474:	afc20194 	sw	v0,404(s8)
    1478:	afc00190 	sw	zero,400(s8)
    147c:	8fc30194 	lw	v1,404(s8)
    1480:	8fc20190 	lw	v0,400(s8)
    1484:	afc3018c 	sw	v1,396(s8)
    1488:	afc20188 	sw	v0,392(s8)
    148c:	8fc5018c 	lw	a1,396(s8)
    1490:	8fc40188 	lw	a0,392(s8)
    1494:	afc50184 	sw	a1,388(s8)
    1498:	afc40180 	sw	a0,384(s8)
    149c:	8fc30184 	lw	v1,388(s8)
    14a0:	8fc20180 	lw	v0,384(s8)
    14a4:	afc3005c 	sw	v1,92(s8)
    14a8:	afc20058 	sw	v0,88(s8)
    14ac:	a3c00060 	sb	zero,96(s8)
    14b0:	2402fbff 	li	v0,-1025
    14b4:	02629824 	and	s3,s3,v0
    14b8:	0800063d 	j	18f4 <_vfprintf_r+0x14e8>
    14bc:	00000000 	nop
    14c0:	8fc30204 	lw	v1,516(s8)
    14c4:	00000000 	nop
    14c8:	24620004 	addiu	v0,v1,4
    14cc:	afc20204 	sw	v0,516(s8)
    14d0:	8c620000 	lw	v0,0(v1)
    14d4:	00000000 	nop
    14d8:	afc2005c 	sw	v0,92(s8)
    14dc:	afc00058 	sw	zero,88(s8)
    14e0:	24020002 	li	v0,2
    14e4:	a3c20060 	sb	v0,96(s8)
    14e8:	3c020001 	lui	v0,0x1
    14ec:	24424a6c 	addiu	v0,v0,19052
    14f0:	afc20070 	sw	v0,112(s8)
    14f4:	36730002 	ori	s3,s3,0x2
    14f8:	24020030 	li	v0,48
    14fc:	a3c20168 	sb	v0,360(s8)
    1500:	24140078 	li	s4,120
    1504:	24020078 	li	v0,120
    1508:	a3c20169 	sb	v0,361(s8)
    150c:	0800063d 	j	18f4 <_vfprintf_r+0x14e8>
    1510:	00000000 	nop
    1514:	a3c00098 	sb	zero,152(s8)
    1518:	8fc30204 	lw	v1,516(s8)
    151c:	00000000 	nop
    1520:	24620004 	addiu	v0,v1,4
    1524:	afc20204 	sw	v0,516(s8)
    1528:	8c720000 	lw	s2,0(v1)
    152c:	00000000 	nop
    1530:	1640000d 	bnez	s2,1568 <_vfprintf_r+0x115c>
    1534:	00000000 	nop
    1538:	3c020001 	lui	v0,0x1
    153c:	24524a80 	addiu	s2,v0,19072
    1540:	8fc20038 	lw	v0,56(s8)
    1544:	00000000 	nop
    1548:	00401821 	move	v1,v0
    154c:	2c620007 	sltiu	v0,v1,7
    1550:	14400002 	bnez	v0,155c <_vfprintf_r+0x1150>
    1554:	00000000 	nop
    1558:	24030006 	li	v1,6
    155c:	afc3006c 	sw	v1,108(s8)
    1560:	08000585 	j	1614 <_vfprintf_r+0x1208>
    1564:	00000000 	nop
    1568:	8fc20038 	lw	v0,56(s8)
    156c:	00000000 	nop
    1570:	04400022 	bltz	v0,15fc <_vfprintf_r+0x11f0>
    1574:	00000000 	nop
    1578:	8fc20038 	lw	v0,56(s8)
    157c:	02402021 	move	a0,s2
    1580:	00002821 	move	a1,zero
    1584:	00403021 	move	a2,v0
    1588:	0c002687 	jal	9a1c <memchr>
    158c:	00000000 	nop
    1590:	afc20090 	sw	v0,144(s8)
    1594:	8fc20090 	lw	v0,144(s8)
    1598:	00000000 	nop
    159c:	10400010 	beqz	v0,15e0 <_vfprintf_r+0x11d4>
    15a0:	00000000 	nop
    15a4:	8fc30090 	lw	v1,144(s8)
    15a8:	02401021 	move	v0,s2
    15ac:	00621023 	subu	v0,v1,v0
    15b0:	afc2006c 	sw	v0,108(s8)
    15b4:	8fc3006c 	lw	v1,108(s8)
    15b8:	8fc20038 	lw	v0,56(s8)
    15bc:	00000000 	nop
    15c0:	0043102a 	slt	v0,v0,v1
    15c4:	1040000b 	beqz	v0,15f4 <_vfprintf_r+0x11e8>
    15c8:	00000000 	nop
    15cc:	8fc20038 	lw	v0,56(s8)
    15d0:	00000000 	nop
    15d4:	afc2006c 	sw	v0,108(s8)
    15d8:	08000585 	j	1614 <_vfprintf_r+0x1208>
    15dc:	00000000 	nop
    15e0:	8fc20038 	lw	v0,56(s8)
    15e4:	00000000 	nop
    15e8:	afc2006c 	sw	v0,108(s8)
    15ec:	08000585 	j	1614 <_vfprintf_r+0x1208>
    15f0:	00000000 	nop
    15f4:	08000585 	j	1614 <_vfprintf_r+0x1208>
    15f8:	00000000 	nop
    15fc:	02402021 	move	a0,s2
    1600:	0c0033b0 	jal	cec0 <strlen>
    1604:	00000000 	nop
    1608:	afc2006c 	sw	v0,108(s8)
    160c:	0800073d 	j	1cf4 <_vfprintf_r+0x18e8>
    1610:	00000000 	nop
    1614:	0800073d 	j	1cf4 <_vfprintf_r+0x18e8>
    1618:	00000000 	nop
    161c:	36730010 	ori	s3,s3,0x10
    1620:	32620020 	andi	v0,s3,0x20
    1624:	1040000c 	beqz	v0,1658 <_vfprintf_r+0x124c>
    1628:	00000000 	nop
    162c:	8fc20204 	lw	v0,516(s8)
    1630:	00000000 	nop
    1634:	24430007 	addiu	v1,v0,7
    1638:	2402fff8 	li	v0,-8
    163c:	00621824 	and	v1,v1,v0
    1640:	24620008 	addiu	v0,v1,8
    1644:	afc20204 	sw	v0,516(s8)
    1648:	8c620000 	lw	v0,0(v1)
    164c:	8c630004 	lw	v1,4(v1)
    1650:	080005d1 	j	1744 <_vfprintf_r+0x1338>
    1654:	00000000 	nop
    1658:	32620010 	andi	v0,s3,0x10
    165c:	1040000b 	beqz	v0,168c <_vfprintf_r+0x1280>
    1660:	00000000 	nop
    1664:	8fc30204 	lw	v1,516(s8)
    1668:	00000000 	nop
    166c:	24620004 	addiu	v0,v1,4
    1670:	afc20204 	sw	v0,516(s8)
    1674:	8c620000 	lw	v0,0(v1)
    1678:	00000000 	nop
    167c:	afc2019c 	sw	v0,412(s8)
    1680:	afc00198 	sw	zero,408(s8)
    1684:	080005cf 	j	173c <_vfprintf_r+0x1330>
    1688:	00000000 	nop
    168c:	32620040 	andi	v0,s3,0x40
    1690:	1040000c 	beqz	v0,16c4 <_vfprintf_r+0x12b8>
    1694:	00000000 	nop
    1698:	8fc30204 	lw	v1,516(s8)
    169c:	00000000 	nop
    16a0:	24620004 	addiu	v0,v1,4
    16a4:	afc20204 	sw	v0,516(s8)
    16a8:	8c620000 	lw	v0,0(v1)
    16ac:	00000000 	nop
    16b0:	3042ffff 	andi	v0,v0,0xffff
    16b4:	afc201a4 	sw	v0,420(s8)
    16b8:	afc001a0 	sw	zero,416(s8)
    16bc:	080005cb 	j	172c <_vfprintf_r+0x1320>
    16c0:	00000000 	nop
    16c4:	32620200 	andi	v0,s3,0x200
    16c8:	1040000c 	beqz	v0,16fc <_vfprintf_r+0x12f0>
    16cc:	00000000 	nop
    16d0:	8fc30204 	lw	v1,516(s8)
    16d4:	00000000 	nop
    16d8:	24620004 	addiu	v0,v1,4
    16dc:	afc20204 	sw	v0,516(s8)
    16e0:	8c620000 	lw	v0,0(v1)
    16e4:	00000000 	nop
    16e8:	304200ff 	andi	v0,v0,0xff
    16ec:	afc201ac 	sw	v0,428(s8)
    16f0:	afc001a8 	sw	zero,424(s8)
    16f4:	080005c7 	j	171c <_vfprintf_r+0x1310>
    16f8:	00000000 	nop
    16fc:	8fc30204 	lw	v1,516(s8)
    1700:	00000000 	nop
    1704:	24620004 	addiu	v0,v1,4
    1708:	afc20204 	sw	v0,516(s8)
    170c:	8c620000 	lw	v0,0(v1)
    1710:	00000000 	nop
    1714:	afc201ac 	sw	v0,428(s8)
    1718:	afc001a8 	sw	zero,424(s8)
    171c:	8fc301ac 	lw	v1,428(s8)
    1720:	8fc201a8 	lw	v0,424(s8)
    1724:	afc301a4 	sw	v1,420(s8)
    1728:	afc201a0 	sw	v0,416(s8)
    172c:	8fc501a4 	lw	a1,420(s8)
    1730:	8fc401a0 	lw	a0,416(s8)
    1734:	afc5019c 	sw	a1,412(s8)
    1738:	afc40198 	sw	a0,408(s8)
    173c:	8fc3019c 	lw	v1,412(s8)
    1740:	8fc20198 	lw	v0,408(s8)
    1744:	afc3005c 	sw	v1,92(s8)
    1748:	afc20058 	sw	v0,88(s8)
    174c:	24020001 	li	v0,1
    1750:	a3c20060 	sb	v0,96(s8)
    1754:	0800063d 	j	18f4 <_vfprintf_r+0x14e8>
    1758:	00000000 	nop
    175c:	3c020001 	lui	v0,0x1
    1760:	24424a88 	addiu	v0,v0,19080
    1764:	afc20070 	sw	v0,112(s8)
    1768:	080005df 	j	177c <_vfprintf_r+0x1370>
    176c:	00000000 	nop
    1770:	3c020001 	lui	v0,0x1
    1774:	24424a6c 	addiu	v0,v0,19052
    1778:	afc20070 	sw	v0,112(s8)
    177c:	32620020 	andi	v0,s3,0x20
    1780:	1040000c 	beqz	v0,17b4 <_vfprintf_r+0x13a8>
    1784:	00000000 	nop
    1788:	8fc20204 	lw	v0,516(s8)
    178c:	00000000 	nop
    1790:	24430007 	addiu	v1,v0,7
    1794:	2402fff8 	li	v0,-8
    1798:	00621824 	and	v1,v1,v0
    179c:	24620008 	addiu	v0,v1,8
    17a0:	afc20204 	sw	v0,516(s8)
    17a4:	8c620000 	lw	v0,0(v1)
    17a8:	8c630004 	lw	v1,4(v1)
    17ac:	08000628 	j	18a0 <_vfprintf_r+0x1494>
    17b0:	00000000 	nop
    17b4:	32620010 	andi	v0,s3,0x10
    17b8:	1040000b 	beqz	v0,17e8 <_vfprintf_r+0x13dc>
    17bc:	00000000 	nop
    17c0:	8fc30204 	lw	v1,516(s8)
    17c4:	00000000 	nop
    17c8:	24620004 	addiu	v0,v1,4
    17cc:	afc20204 	sw	v0,516(s8)
    17d0:	8c620000 	lw	v0,0(v1)
    17d4:	00000000 	nop
    17d8:	afc201b4 	sw	v0,436(s8)
    17dc:	afc001b0 	sw	zero,432(s8)
    17e0:	08000626 	j	1898 <_vfprintf_r+0x148c>
    17e4:	00000000 	nop
    17e8:	32620040 	andi	v0,s3,0x40
    17ec:	1040000c 	beqz	v0,1820 <_vfprintf_r+0x1414>
    17f0:	00000000 	nop
    17f4:	8fc30204 	lw	v1,516(s8)
    17f8:	00000000 	nop
    17fc:	24620004 	addiu	v0,v1,4
    1800:	afc20204 	sw	v0,516(s8)
    1804:	8c620000 	lw	v0,0(v1)
    1808:	00000000 	nop
    180c:	3042ffff 	andi	v0,v0,0xffff
    1810:	afc201bc 	sw	v0,444(s8)
    1814:	afc001b8 	sw	zero,440(s8)
    1818:	08000622 	j	1888 <_vfprintf_r+0x147c>
    181c:	00000000 	nop
    1820:	32620200 	andi	v0,s3,0x200
    1824:	1040000c 	beqz	v0,1858 <_vfprintf_r+0x144c>
    1828:	00000000 	nop
    182c:	8fc30204 	lw	v1,516(s8)
    1830:	00000000 	nop
    1834:	24620004 	addiu	v0,v1,4
    1838:	afc20204 	sw	v0,516(s8)
    183c:	8c620000 	lw	v0,0(v1)
    1840:	00000000 	nop
    1844:	304200ff 	andi	v0,v0,0xff
    1848:	afc201c4 	sw	v0,452(s8)
    184c:	afc001c0 	sw	zero,448(s8)
    1850:	0800061e 	j	1878 <_vfprintf_r+0x146c>
    1854:	00000000 	nop
    1858:	8fc30204 	lw	v1,516(s8)
    185c:	00000000 	nop
    1860:	24620004 	addiu	v0,v1,4
    1864:	afc20204 	sw	v0,516(s8)
    1868:	8c620000 	lw	v0,0(v1)
    186c:	00000000 	nop
    1870:	afc201c4 	sw	v0,452(s8)
    1874:	afc001c0 	sw	zero,448(s8)
    1878:	8fc301c4 	lw	v1,452(s8)
    187c:	8fc201c0 	lw	v0,448(s8)
    1880:	afc301bc 	sw	v1,444(s8)
    1884:	afc201b8 	sw	v0,440(s8)
    1888:	8fc501bc 	lw	a1,444(s8)
    188c:	8fc401b8 	lw	a0,440(s8)
    1890:	afc501b4 	sw	a1,436(s8)
    1894:	afc401b0 	sw	a0,432(s8)
    1898:	8fc301b4 	lw	v1,436(s8)
    189c:	8fc201b0 	lw	v0,432(s8)
    18a0:	afc3005c 	sw	v1,92(s8)
    18a4:	afc20058 	sw	v0,88(s8)
    18a8:	24020002 	li	v0,2
    18ac:	a3c20060 	sb	v0,96(s8)
    18b0:	32620001 	andi	v0,s3,0x1
    18b4:	1040000d 	beqz	v0,18ec <_vfprintf_r+0x14e0>
    18b8:	00000000 	nop
    18bc:	8fc30058 	lw	v1,88(s8)
    18c0:	8fc2005c 	lw	v0,92(s8)
    18c4:	00000000 	nop
    18c8:	00621825 	or	v1,v1,v0
    18cc:	10600007 	beqz	v1,18ec <_vfprintf_r+0x14e0>
    18d0:	00000000 	nop
    18d4:	24020030 	li	v0,48
    18d8:	a3c20168 	sb	v0,360(s8)
    18dc:	00141600 	sll	v0,s4,0x18
    18e0:	00021603 	sra	v0,v0,0x18
    18e4:	a3c20169 	sb	v0,361(s8)
    18e8:	36730002 	ori	s3,s3,0x2
    18ec:	2402fbff 	li	v0,-1025
    18f0:	02629824 	and	s3,s3,v0
    18f4:	a3c00098 	sb	zero,152(s8)
    18f8:	8fc20038 	lw	v0,56(s8)
    18fc:	00000000 	nop
    1900:	afc20064 	sw	v0,100(s8)
    1904:	8fc20064 	lw	v0,100(s8)
    1908:	00000000 	nop
    190c:	04400003 	bltz	v0,191c <_vfprintf_r+0x1510>
    1910:	00000000 	nop
    1914:	2402ff7f 	li	v0,-129
    1918:	02629824 	and	s3,s3,v0
    191c:	27d20104 	addiu	s2,s8,260
    1920:	26520064 	addiu	s2,s2,100
    1924:	8fc30058 	lw	v1,88(s8)
    1928:	8fc2005c 	lw	v0,92(s8)
    192c:	00000000 	nop
    1930:	00621825 	or	v1,v1,v0
    1934:	14600005 	bnez	v1,194c <_vfprintf_r+0x1540>
    1938:	00000000 	nop
    193c:	8fc20038 	lw	v0,56(s8)
    1940:	00000000 	nop
    1944:	104000ce 	beqz	v0,1c80 <_vfprintf_r+0x1874>
    1948:	00000000 	nop
    194c:	93c30060 	lbu	v1,96(s8)
    1950:	24020001 	li	v0,1
    1954:	10620030 	beq	v1,v0,1a18 <_vfprintf_r+0x160c>
    1958:	00000000 	nop
    195c:	24020002 	li	v0,2
    1960:	1062009e 	beq	v1,v0,1bdc <_vfprintf_r+0x17d0>
    1964:	00000000 	nop
    1968:	146000ba 	bnez	v1,1c54 <_vfprintf_r+0x1848>
    196c:	00000000 	nop
    1970:	2652ffff 	addiu	s2,s2,-1
    1974:	93c2005f 	lbu	v0,95(s8)
    1978:	00000000 	nop
    197c:	30420007 	andi	v0,v0,0x7
    1980:	304200ff 	andi	v0,v0,0xff
    1984:	24420030 	addiu	v0,v0,48
    1988:	304200ff 	andi	v0,v0,0xff
    198c:	00021600 	sll	v0,v0,0x18
    1990:	00021603 	sra	v0,v0,0x18
    1994:	a2420000 	sb	v0,0(s2)
    1998:	8fc20058 	lw	v0,88(s8)
    199c:	00000000 	nop
    19a0:	00021f40 	sll	v1,v0,0x1d
    19a4:	8fc2005c 	lw	v0,92(s8)
    19a8:	00000000 	nop
    19ac:	000210c2 	srl	v0,v0,0x3
    19b0:	00431025 	or	v0,v0,v1
    19b4:	afc2005c 	sw	v0,92(s8)
    19b8:	8fc20058 	lw	v0,88(s8)
    19bc:	00000000 	nop
    19c0:	000210c2 	srl	v0,v0,0x3
    19c4:	afc20058 	sw	v0,88(s8)
    19c8:	8fc30058 	lw	v1,88(s8)
    19cc:	8fc2005c 	lw	v0,92(s8)
    19d0:	00000000 	nop
    19d4:	00621825 	or	v1,v1,v0
    19d8:	1460ffe5 	bnez	v1,1970 <_vfprintf_r+0x1564>
    19dc:	00000000 	nop
    19e0:	32620001 	andi	v0,s3,0x1
    19e4:	1040000a 	beqz	v0,1a10 <_vfprintf_r+0x1604>
    19e8:	00000000 	nop
    19ec:	82430000 	lb	v1,0(s2)
    19f0:	24020030 	li	v0,48
    19f4:	10620006 	beq	v1,v0,1a10 <_vfprintf_r+0x1604>
    19f8:	00000000 	nop
    19fc:	2652ffff 	addiu	s2,s2,-1
    1a00:	24020030 	li	v0,48
    1a04:	a2420000 	sb	v0,0(s2)
    1a08:	0800071e 	j	1c78 <_vfprintf_r+0x186c>
    1a0c:	00000000 	nop
    1a10:	0800071e 	j	1c78 <_vfprintf_r+0x186c>
    1a14:	00000000 	nop
    1a18:	8fc20058 	lw	v0,88(s8)
    1a1c:	00000000 	nop
    1a20:	14400014 	bnez	v0,1a74 <_vfprintf_r+0x1668>
    1a24:	00000000 	nop
    1a28:	8fc20058 	lw	v0,88(s8)
    1a2c:	00000000 	nop
    1a30:	14400006 	bnez	v0,1a4c <_vfprintf_r+0x1640>
    1a34:	00000000 	nop
    1a38:	8fc2005c 	lw	v0,92(s8)
    1a3c:	00000000 	nop
    1a40:	2c42000a 	sltiu	v0,v0,10
    1a44:	1040000b 	beqz	v0,1a74 <_vfprintf_r+0x1668>
    1a48:	00000000 	nop
    1a4c:	2652ffff 	addiu	s2,s2,-1
    1a50:	93c2005f 	lbu	v0,95(s8)
    1a54:	00000000 	nop
    1a58:	24420030 	addiu	v0,v0,48
    1a5c:	304200ff 	andi	v0,v0,0xff
    1a60:	00021600 	sll	v0,v0,0x18
    1a64:	00021603 	sra	v0,v0,0x18
    1a68:	a2420000 	sb	v0,0(s2)
    1a6c:	0800071e 	j	1c78 <_vfprintf_r+0x186c>
    1a70:	00000000 	nop
    1a74:	afc000b4 	sw	zero,180(s8)
    1a78:	2652ffff 	addiu	s2,s2,-1
    1a7c:	8fc3005c 	lw	v1,92(s8)
    1a80:	8fc20058 	lw	v0,88(s8)
    1a84:	00602821 	move	a1,v1
    1a88:	00402021 	move	a0,v0
    1a8c:	2407000a 	li	a3,10
    1a90:	00003021 	move	a2,zero
    1a94:	0c004bdd 	jal	12f74 <__umoddi3>
    1a98:	00000000 	nop
    1a9c:	306200ff 	andi	v0,v1,0xff
    1aa0:	24420030 	addiu	v0,v0,48
    1aa4:	304200ff 	andi	v0,v0,0xff
    1aa8:	00021600 	sll	v0,v0,0x18
    1aac:	00021603 	sra	v0,v0,0x18
    1ab0:	a2420000 	sb	v0,0(s2)
    1ab4:	8fc200b4 	lw	v0,180(s8)
    1ab8:	00000000 	nop
    1abc:	24420001 	addiu	v0,v0,1
    1ac0:	afc200b4 	sw	v0,180(s8)
    1ac4:	32620400 	andi	v0,s3,0x400
    1ac8:	10400032 	beqz	v0,1b94 <_vfprintf_r+0x1788>
    1acc:	00000000 	nop
    1ad0:	8fc20044 	lw	v0,68(s8)
    1ad4:	00000000 	nop
    1ad8:	80420000 	lb	v0,0(v0)
    1adc:	00000000 	nop
    1ae0:	00401821 	move	v1,v0
    1ae4:	8fc200b4 	lw	v0,180(s8)
    1ae8:	00000000 	nop
    1aec:	14620029 	bne	v1,v0,1b94 <_vfprintf_r+0x1788>
    1af0:	00000000 	nop
    1af4:	8fc20044 	lw	v0,68(s8)
    1af8:	00000000 	nop
    1afc:	80430000 	lb	v1,0(v0)
    1b00:	2402007f 	li	v0,127
    1b04:	10620023 	beq	v1,v0,1b94 <_vfprintf_r+0x1788>
    1b08:	00000000 	nop
    1b0c:	8fc20058 	lw	v0,88(s8)
    1b10:	00000000 	nop
    1b14:	1440000a 	bnez	v0,1b40 <_vfprintf_r+0x1734>
    1b18:	00000000 	nop
    1b1c:	8fc20058 	lw	v0,88(s8)
    1b20:	00000000 	nop
    1b24:	1440001b 	bnez	v0,1b94 <_vfprintf_r+0x1788>
    1b28:	00000000 	nop
    1b2c:	8fc2005c 	lw	v0,92(s8)
    1b30:	00000000 	nop
    1b34:	2c42000a 	sltiu	v0,v0,10
    1b38:	14400016 	bnez	v0,1b94 <_vfprintf_r+0x1788>
    1b3c:	00000000 	nop
    1b40:	8fc20040 	lw	v0,64(s8)
    1b44:	00000000 	nop
    1b48:	00021023 	negu	v0,v0
    1b4c:	02429021 	addu	s2,s2,v0
    1b50:	02402021 	move	a0,s2
    1b54:	8fc5003c 	lw	a1,60(s8)
    1b58:	8fc60040 	lw	a2,64(s8)
    1b5c:	0c0033b7 	jal	cedc <strncpy>
    1b60:	00000000 	nop
    1b64:	afc000b4 	sw	zero,180(s8)
    1b68:	8fc20044 	lw	v0,68(s8)
    1b6c:	00000000 	nop
    1b70:	24420001 	addiu	v0,v0,1
    1b74:	80420000 	lb	v0,0(v0)
    1b78:	00000000 	nop
    1b7c:	10400005 	beqz	v0,1b94 <_vfprintf_r+0x1788>
    1b80:	00000000 	nop
    1b84:	8fc20044 	lw	v0,68(s8)
    1b88:	00000000 	nop
    1b8c:	24420001 	addiu	v0,v0,1
    1b90:	afc20044 	sw	v0,68(s8)
    1b94:	8fc3005c 	lw	v1,92(s8)
    1b98:	8fc20058 	lw	v0,88(s8)
    1b9c:	00602821 	move	a1,v1
    1ba0:	00402021 	move	a0,v0
    1ba4:	2407000a 	li	a3,10
    1ba8:	00003021 	move	a2,zero
    1bac:	0c004a49 	jal	12924 <__udivdi3>
    1bb0:	00000000 	nop
    1bb4:	afc3005c 	sw	v1,92(s8)
    1bb8:	afc20058 	sw	v0,88(s8)
    1bbc:	8fc30058 	lw	v1,88(s8)
    1bc0:	8fc2005c 	lw	v0,92(s8)
    1bc4:	00000000 	nop
    1bc8:	00621825 	or	v1,v1,v0
    1bcc:	1460ffaa 	bnez	v1,1a78 <_vfprintf_r+0x166c>
    1bd0:	00000000 	nop
    1bd4:	0800071e 	j	1c78 <_vfprintf_r+0x186c>
    1bd8:	00000000 	nop
    1bdc:	2652ffff 	addiu	s2,s2,-1
    1be0:	8fc2005c 	lw	v0,92(s8)
    1be4:	00000000 	nop
    1be8:	3043000f 	andi	v1,v0,0xf
    1bec:	8fc20070 	lw	v0,112(s8)
    1bf0:	00000000 	nop
    1bf4:	00431021 	addu	v0,v0,v1
    1bf8:	80420000 	lb	v0,0(v0)
    1bfc:	00000000 	nop
    1c00:	a2420000 	sb	v0,0(s2)
    1c04:	8fc20058 	lw	v0,88(s8)
    1c08:	00000000 	nop
    1c0c:	00021f00 	sll	v1,v0,0x1c
    1c10:	8fc2005c 	lw	v0,92(s8)
    1c14:	00000000 	nop
    1c18:	00021102 	srl	v0,v0,0x4
    1c1c:	00431025 	or	v0,v0,v1
    1c20:	afc2005c 	sw	v0,92(s8)
    1c24:	8fc20058 	lw	v0,88(s8)
    1c28:	00000000 	nop
    1c2c:	00021102 	srl	v0,v0,0x4
    1c30:	afc20058 	sw	v0,88(s8)
    1c34:	8fc30058 	lw	v1,88(s8)
    1c38:	8fc2005c 	lw	v0,92(s8)
    1c3c:	00000000 	nop
    1c40:	00621825 	or	v1,v1,v0
    1c44:	1460ffe5 	bnez	v1,1bdc <_vfprintf_r+0x17d0>
    1c48:	00000000 	nop
    1c4c:	0800071e 	j	1c78 <_vfprintf_r+0x186c>
    1c50:	00000000 	nop
    1c54:	3c020001 	lui	v0,0x1
    1c58:	24524a9c 	addiu	s2,v0,19100
    1c5c:	02402021 	move	a0,s2
    1c60:	0c0033b0 	jal	cec0 <strlen>
    1c64:	00000000 	nop
    1c68:	afc2006c 	sw	v0,108(s8)
    1c6c:	00000000 	nop
    1c70:	0800073d 	j	1cf4 <_vfprintf_r+0x18e8>
    1c74:	00000000 	nop
    1c78:	0800072a 	j	1ca8 <_vfprintf_r+0x189c>
    1c7c:	00000000 	nop
    1c80:	93c20060 	lbu	v0,96(s8)
    1c84:	00000000 	nop
    1c88:	14400007 	bnez	v0,1ca8 <_vfprintf_r+0x189c>
    1c8c:	00000000 	nop
    1c90:	32620001 	andi	v0,s3,0x1
    1c94:	10400004 	beqz	v0,1ca8 <_vfprintf_r+0x189c>
    1c98:	00000000 	nop
    1c9c:	2652ffff 	addiu	s2,s2,-1
    1ca0:	24020030 	li	v0,48
    1ca4:	a2420000 	sb	v0,0(s2)
    1ca8:	27c30104 	addiu	v1,s8,260
    1cac:	24630064 	addiu	v1,v1,100
    1cb0:	02401021 	move	v0,s2
    1cb4:	00621023 	subu	v0,v1,v0
    1cb8:	afc2006c 	sw	v0,108(s8)
    1cbc:	0800073d 	j	1cf4 <_vfprintf_r+0x18e8>
    1cc0:	00000000 	nop
    1cc4:	16800003 	bnez	s4,1cd4 <_vfprintf_r+0x18c8>
    1cc8:	00000000 	nop
    1ccc:	08000d91 	j	3644 <_vfprintf_r+0x3238>
    1cd0:	00000000 	nop
    1cd4:	27d20104 	addiu	s2,s8,260
    1cd8:	00141600 	sll	v0,s4,0x18
    1cdc:	00021603 	sra	v0,v0,0x18
    1ce0:	a2420000 	sb	v0,0(s2)
    1ce4:	24020001 	li	v0,1
    1ce8:	afc2006c 	sw	v0,108(s8)
    1cec:	a3c00098 	sb	zero,152(s8)
    1cf0:	00000000 	nop
    1cf4:	8fc40064 	lw	a0,100(s8)
    1cf8:	8fc3006c 	lw	v1,108(s8)
    1cfc:	00000000 	nop
    1d00:	0064102a 	slt	v0,v1,a0
    1d04:	10400002 	beqz	v0,1d10 <_vfprintf_r+0x1904>
    1d08:	00000000 	nop
    1d0c:	00801821 	move	v1,a0
    1d10:	afc30068 	sw	v1,104(s8)
    1d14:	83c20098 	lb	v0,152(s8)
    1d18:	00000000 	nop
    1d1c:	10400005 	beqz	v0,1d34 <_vfprintf_r+0x1928>
    1d20:	00000000 	nop
    1d24:	8fc20068 	lw	v0,104(s8)
    1d28:	00000000 	nop
    1d2c:	24420001 	addiu	v0,v0,1
    1d30:	afc20068 	sw	v0,104(s8)
    1d34:	32620002 	andi	v0,s3,0x2
    1d38:	10400005 	beqz	v0,1d50 <_vfprintf_r+0x1944>
    1d3c:	00000000 	nop
    1d40:	8fc20068 	lw	v0,104(s8)
    1d44:	00000000 	nop
    1d48:	24420002 	addiu	v0,v0,2
    1d4c:	afc20068 	sw	v0,104(s8)
    1d50:	32620084 	andi	v0,s3,0x84
    1d54:	14400049 	bnez	v0,1e7c <_vfprintf_r+0x1a70>
    1d58:	00000000 	nop
    1d5c:	8fc30034 	lw	v1,52(s8)
    1d60:	8fc20068 	lw	v0,104(s8)
    1d64:	00000000 	nop
    1d68:	00628023 	subu	s0,v1,v0
    1d6c:	1a000043 	blez	s0,1e7c <_vfprintf_r+0x1a70>
    1d70:	00000000 	nop
    1d74:	0800077e 	j	1df8 <_vfprintf_r+0x19ec>
    1d78:	00000000 	nop
    1d7c:	3c020001 	lui	v0,0x1
    1d80:	24424c28 	addiu	v0,v0,19496
    1d84:	ae220000 	sw	v0,0(s1)
    1d88:	24020010 	li	v0,16
    1d8c:	ae220004 	sw	v0,4(s1)
    1d90:	8fc200c0 	lw	v0,192(s8)
    1d94:	00000000 	nop
    1d98:	24420010 	addiu	v0,v0,16
    1d9c:	afc200c0 	sw	v0,192(s8)
    1da0:	26310008 	addiu	s1,s1,8
    1da4:	8fc200bc 	lw	v0,188(s8)
    1da8:	00000000 	nop
    1dac:	24420001 	addiu	v0,v0,1
    1db0:	afc200bc 	sw	v0,188(s8)
    1db4:	8fc200bc 	lw	v0,188(s8)
    1db8:	00000000 	nop
    1dbc:	28420008 	slti	v0,v0,8
    1dc0:	1440000c 	bnez	v0,1df4 <_vfprintf_r+0x19e8>
    1dc4:	00000000 	nop
    1dc8:	27c200b8 	addiu	v0,s8,184
    1dcc:	8fc401f8 	lw	a0,504(s8)
    1dd0:	8fc501fc 	lw	a1,508(s8)
    1dd4:	00403021 	move	a2,v0
    1dd8:	0c00352c 	jal	d4b0 <__sprint_r>
    1ddc:	00000000 	nop
    1de0:	10400003 	beqz	v0,1df0 <_vfprintf_r+0x19e4>
    1de4:	00000000 	nop
    1de8:	08000da1 	j	3684 <_vfprintf_r+0x3278>
    1dec:	00000000 	nop
    1df0:	27d100c4 	addiu	s1,s8,196
    1df4:	2610fff0 	addiu	s0,s0,-16
    1df8:	2a020011 	slti	v0,s0,17
    1dfc:	1040ffdf 	beqz	v0,1d7c <_vfprintf_r+0x1970>
    1e00:	00000000 	nop
    1e04:	3c020001 	lui	v0,0x1
    1e08:	24424c28 	addiu	v0,v0,19496
    1e0c:	ae220000 	sw	v0,0(s1)
    1e10:	02001021 	move	v0,s0
    1e14:	ae220004 	sw	v0,4(s1)
    1e18:	8fc200c0 	lw	v0,192(s8)
    1e1c:	00000000 	nop
    1e20:	00501021 	addu	v0,v0,s0
    1e24:	afc200c0 	sw	v0,192(s8)
    1e28:	26310008 	addiu	s1,s1,8
    1e2c:	8fc200bc 	lw	v0,188(s8)
    1e30:	00000000 	nop
    1e34:	24420001 	addiu	v0,v0,1
    1e38:	afc200bc 	sw	v0,188(s8)
    1e3c:	8fc200bc 	lw	v0,188(s8)
    1e40:	00000000 	nop
    1e44:	28420008 	slti	v0,v0,8
    1e48:	1440000c 	bnez	v0,1e7c <_vfprintf_r+0x1a70>
    1e4c:	00000000 	nop
    1e50:	27c200b8 	addiu	v0,s8,184
    1e54:	8fc401f8 	lw	a0,504(s8)
    1e58:	8fc501fc 	lw	a1,508(s8)
    1e5c:	00403021 	move	a2,v0
    1e60:	0c00352c 	jal	d4b0 <__sprint_r>
    1e64:	00000000 	nop
    1e68:	10400003 	beqz	v0,1e78 <_vfprintf_r+0x1a6c>
    1e6c:	00000000 	nop
    1e70:	08000da1 	j	3684 <_vfprintf_r+0x3278>
    1e74:	00000000 	nop
    1e78:	27d100c4 	addiu	s1,s8,196
    1e7c:	83c20098 	lb	v0,152(s8)
    1e80:	00000000 	nop
    1e84:	1040001e 	beqz	v0,1f00 <_vfprintf_r+0x1af4>
    1e88:	00000000 	nop
    1e8c:	27c20098 	addiu	v0,s8,152
    1e90:	ae220000 	sw	v0,0(s1)
    1e94:	24020001 	li	v0,1
    1e98:	ae220004 	sw	v0,4(s1)
    1e9c:	8fc200c0 	lw	v0,192(s8)
    1ea0:	00000000 	nop
    1ea4:	24420001 	addiu	v0,v0,1
    1ea8:	afc200c0 	sw	v0,192(s8)
    1eac:	26310008 	addiu	s1,s1,8
    1eb0:	8fc200bc 	lw	v0,188(s8)
    1eb4:	00000000 	nop
    1eb8:	24420001 	addiu	v0,v0,1
    1ebc:	afc200bc 	sw	v0,188(s8)
    1ec0:	8fc200bc 	lw	v0,188(s8)
    1ec4:	00000000 	nop
    1ec8:	28420008 	slti	v0,v0,8
    1ecc:	1440000c 	bnez	v0,1f00 <_vfprintf_r+0x1af4>
    1ed0:	00000000 	nop
    1ed4:	27c200b8 	addiu	v0,s8,184
    1ed8:	8fc401f8 	lw	a0,504(s8)
    1edc:	8fc501fc 	lw	a1,508(s8)
    1ee0:	00403021 	move	a2,v0
    1ee4:	0c00352c 	jal	d4b0 <__sprint_r>
    1ee8:	00000000 	nop
    1eec:	10400003 	beqz	v0,1efc <_vfprintf_r+0x1af0>
    1ef0:	00000000 	nop
    1ef4:	08000da1 	j	3684 <_vfprintf_r+0x3278>
    1ef8:	00000000 	nop
    1efc:	27d100c4 	addiu	s1,s8,196
    1f00:	32620002 	andi	v0,s3,0x2
    1f04:	1040001e 	beqz	v0,1f80 <_vfprintf_r+0x1b74>
    1f08:	00000000 	nop
    1f0c:	27c20168 	addiu	v0,s8,360
    1f10:	ae220000 	sw	v0,0(s1)
    1f14:	24020002 	li	v0,2
    1f18:	ae220004 	sw	v0,4(s1)
    1f1c:	8fc200c0 	lw	v0,192(s8)
    1f20:	00000000 	nop
    1f24:	24420002 	addiu	v0,v0,2
    1f28:	afc200c0 	sw	v0,192(s8)
    1f2c:	26310008 	addiu	s1,s1,8
    1f30:	8fc200bc 	lw	v0,188(s8)
    1f34:	00000000 	nop
    1f38:	24420001 	addiu	v0,v0,1
    1f3c:	afc200bc 	sw	v0,188(s8)
    1f40:	8fc200bc 	lw	v0,188(s8)
    1f44:	00000000 	nop
    1f48:	28420008 	slti	v0,v0,8
    1f4c:	1440000c 	bnez	v0,1f80 <_vfprintf_r+0x1b74>
    1f50:	00000000 	nop
    1f54:	27c200b8 	addiu	v0,s8,184
    1f58:	8fc401f8 	lw	a0,504(s8)
    1f5c:	8fc501fc 	lw	a1,508(s8)
    1f60:	00403021 	move	a2,v0
    1f64:	0c00352c 	jal	d4b0 <__sprint_r>
    1f68:	00000000 	nop
    1f6c:	10400003 	beqz	v0,1f7c <_vfprintf_r+0x1b70>
    1f70:	00000000 	nop
    1f74:	08000da1 	j	3684 <_vfprintf_r+0x3278>
    1f78:	00000000 	nop
    1f7c:	27d100c4 	addiu	s1,s8,196
    1f80:	32630084 	andi	v1,s3,0x84
    1f84:	24020080 	li	v0,128
    1f88:	14620049 	bne	v1,v0,20b0 <_vfprintf_r+0x1ca4>
    1f8c:	00000000 	nop
    1f90:	8fc30034 	lw	v1,52(s8)
    1f94:	8fc20068 	lw	v0,104(s8)
    1f98:	00000000 	nop
    1f9c:	00628023 	subu	s0,v1,v0
    1fa0:	1a000043 	blez	s0,20b0 <_vfprintf_r+0x1ca4>
    1fa4:	00000000 	nop
    1fa8:	0800080b 	j	202c <_vfprintf_r+0x1c20>
    1fac:	00000000 	nop
    1fb0:	3c020001 	lui	v0,0x1
    1fb4:	24424c38 	addiu	v0,v0,19512
    1fb8:	ae220000 	sw	v0,0(s1)
    1fbc:	24020010 	li	v0,16
    1fc0:	ae220004 	sw	v0,4(s1)
    1fc4:	8fc200c0 	lw	v0,192(s8)
    1fc8:	00000000 	nop
    1fcc:	24420010 	addiu	v0,v0,16
    1fd0:	afc200c0 	sw	v0,192(s8)
    1fd4:	26310008 	addiu	s1,s1,8
    1fd8:	8fc200bc 	lw	v0,188(s8)
    1fdc:	00000000 	nop
    1fe0:	24420001 	addiu	v0,v0,1
    1fe4:	afc200bc 	sw	v0,188(s8)
    1fe8:	8fc200bc 	lw	v0,188(s8)
    1fec:	00000000 	nop
    1ff0:	28420008 	slti	v0,v0,8
    1ff4:	1440000c 	bnez	v0,2028 <_vfprintf_r+0x1c1c>
    1ff8:	00000000 	nop
    1ffc:	27c200b8 	addiu	v0,s8,184
    2000:	8fc401f8 	lw	a0,504(s8)
    2004:	8fc501fc 	lw	a1,508(s8)
    2008:	00403021 	move	a2,v0
    200c:	0c00352c 	jal	d4b0 <__sprint_r>
    2010:	00000000 	nop
    2014:	10400003 	beqz	v0,2024 <_vfprintf_r+0x1c18>
    2018:	00000000 	nop
    201c:	08000da1 	j	3684 <_vfprintf_r+0x3278>
    2020:	00000000 	nop
    2024:	27d100c4 	addiu	s1,s8,196
    2028:	2610fff0 	addiu	s0,s0,-16
    202c:	2a020011 	slti	v0,s0,17
    2030:	1040ffdf 	beqz	v0,1fb0 <_vfprintf_r+0x1ba4>
    2034:	00000000 	nop
    2038:	3c020001 	lui	v0,0x1
    203c:	24424c38 	addiu	v0,v0,19512
    2040:	ae220000 	sw	v0,0(s1)
    2044:	02001021 	move	v0,s0
    2048:	ae220004 	sw	v0,4(s1)
    204c:	8fc200c0 	lw	v0,192(s8)
    2050:	00000000 	nop
    2054:	00501021 	addu	v0,v0,s0
    2058:	afc200c0 	sw	v0,192(s8)
    205c:	26310008 	addiu	s1,s1,8
    2060:	8fc200bc 	lw	v0,188(s8)
    2064:	00000000 	nop
    2068:	24420001 	addiu	v0,v0,1
    206c:	afc200bc 	sw	v0,188(s8)
    2070:	8fc200bc 	lw	v0,188(s8)
    2074:	00000000 	nop
    2078:	28420008 	slti	v0,v0,8
    207c:	1440000c 	bnez	v0,20b0 <_vfprintf_r+0x1ca4>
    2080:	00000000 	nop
    2084:	27c200b8 	addiu	v0,s8,184
    2088:	8fc401f8 	lw	a0,504(s8)
    208c:	8fc501fc 	lw	a1,508(s8)
    2090:	00403021 	move	a2,v0
    2094:	0c00352c 	jal	d4b0 <__sprint_r>
    2098:	00000000 	nop
    209c:	10400003 	beqz	v0,20ac <_vfprintf_r+0x1ca0>
    20a0:	00000000 	nop
    20a4:	08000da1 	j	3684 <_vfprintf_r+0x3278>
    20a8:	00000000 	nop
    20ac:	27d100c4 	addiu	s1,s8,196
    20b0:	8fc30064 	lw	v1,100(s8)
    20b4:	8fc2006c 	lw	v0,108(s8)
    20b8:	00000000 	nop
    20bc:	00628023 	subu	s0,v1,v0
    20c0:	1a000043 	blez	s0,21d0 <_vfprintf_r+0x1dc4>
    20c4:	00000000 	nop
    20c8:	08000853 	j	214c <_vfprintf_r+0x1d40>
    20cc:	00000000 	nop
    20d0:	3c020001 	lui	v0,0x1
    20d4:	24424c38 	addiu	v0,v0,19512
    20d8:	ae220000 	sw	v0,0(s1)
    20dc:	24020010 	li	v0,16
    20e0:	ae220004 	sw	v0,4(s1)
    20e4:	8fc200c0 	lw	v0,192(s8)
    20e8:	00000000 	nop
    20ec:	24420010 	addiu	v0,v0,16
    20f0:	afc200c0 	sw	v0,192(s8)
    20f4:	26310008 	addiu	s1,s1,8
    20f8:	8fc200bc 	lw	v0,188(s8)
    20fc:	00000000 	nop
    2100:	24420001 	addiu	v0,v0,1
    2104:	afc200bc 	sw	v0,188(s8)
    2108:	8fc200bc 	lw	v0,188(s8)
    210c:	00000000 	nop
    2110:	28420008 	slti	v0,v0,8
    2114:	1440000c 	bnez	v0,2148 <_vfprintf_r+0x1d3c>
    2118:	00000000 	nop
    211c:	27c200b8 	addiu	v0,s8,184
    2120:	8fc401f8 	lw	a0,504(s8)
    2124:	8fc501fc 	lw	a1,508(s8)
    2128:	00403021 	move	a2,v0
    212c:	0c00352c 	jal	d4b0 <__sprint_r>
    2130:	00000000 	nop
    2134:	10400003 	beqz	v0,2144 <_vfprintf_r+0x1d38>
    2138:	00000000 	nop
    213c:	08000da1 	j	3684 <_vfprintf_r+0x3278>
    2140:	00000000 	nop
    2144:	27d100c4 	addiu	s1,s8,196
    2148:	2610fff0 	addiu	s0,s0,-16
    214c:	2a020011 	slti	v0,s0,17
    2150:	1040ffdf 	beqz	v0,20d0 <_vfprintf_r+0x1cc4>
    2154:	00000000 	nop
    2158:	3c020001 	lui	v0,0x1
    215c:	24424c38 	addiu	v0,v0,19512
    2160:	ae220000 	sw	v0,0(s1)
    2164:	02001021 	move	v0,s0
    2168:	ae220004 	sw	v0,4(s1)
    216c:	8fc200c0 	lw	v0,192(s8)
    2170:	00000000 	nop
    2174:	00501021 	addu	v0,v0,s0
    2178:	afc200c0 	sw	v0,192(s8)
    217c:	26310008 	addiu	s1,s1,8
    2180:	8fc200bc 	lw	v0,188(s8)
    2184:	00000000 	nop
    2188:	24420001 	addiu	v0,v0,1
    218c:	afc200bc 	sw	v0,188(s8)
    2190:	8fc200bc 	lw	v0,188(s8)
    2194:	00000000 	nop
    2198:	28420008 	slti	v0,v0,8
    219c:	1440000c 	bnez	v0,21d0 <_vfprintf_r+0x1dc4>
    21a0:	00000000 	nop
    21a4:	27c200b8 	addiu	v0,s8,184
    21a8:	8fc401f8 	lw	a0,504(s8)
    21ac:	8fc501fc 	lw	a1,508(s8)
    21b0:	00403021 	move	a2,v0
    21b4:	0c00352c 	jal	d4b0 <__sprint_r>
    21b8:	00000000 	nop
    21bc:	10400003 	beqz	v0,21cc <_vfprintf_r+0x1dc0>
    21c0:	00000000 	nop
    21c4:	08000da1 	j	3684 <_vfprintf_r+0x3278>
    21c8:	00000000 	nop
    21cc:	27d100c4 	addiu	s1,s8,196
    21d0:	32620100 	andi	v0,s3,0x100
    21d4:	14400021 	bnez	v0,225c <_vfprintf_r+0x1e50>
    21d8:	00000000 	nop
    21dc:	ae320000 	sw	s2,0(s1)
    21e0:	8fc2006c 	lw	v0,108(s8)
    21e4:	00000000 	nop
    21e8:	ae220004 	sw	v0,4(s1)
    21ec:	8fc300c0 	lw	v1,192(s8)
    21f0:	8fc2006c 	lw	v0,108(s8)
    21f4:	00000000 	nop
    21f8:	00621021 	addu	v0,v1,v0
    21fc:	afc200c0 	sw	v0,192(s8)
    2200:	26310008 	addiu	s1,s1,8
    2204:	8fc200bc 	lw	v0,188(s8)
    2208:	00000000 	nop
    220c:	24420001 	addiu	v0,v0,1
    2210:	afc200bc 	sw	v0,188(s8)
    2214:	8fc200bc 	lw	v0,188(s8)
    2218:	00000000 	nop
    221c:	28420008 	slti	v0,v0,8
    2220:	14400495 	bnez	v0,3478 <_vfprintf_r+0x306c>
    2224:	00000000 	nop
    2228:	27c200b8 	addiu	v0,s8,184
    222c:	8fc401f8 	lw	a0,504(s8)
    2230:	8fc501fc 	lw	a1,508(s8)
    2234:	00403021 	move	a2,v0
    2238:	0c00352c 	jal	d4b0 <__sprint_r>
    223c:	00000000 	nop
    2240:	10400003 	beqz	v0,2250 <_vfprintf_r+0x1e44>
    2244:	00000000 	nop
    2248:	08000da1 	j	3684 <_vfprintf_r+0x3278>
    224c:	00000000 	nop
    2250:	27d100c4 	addiu	s1,s8,196
    2254:	08000d1e 	j	3478 <_vfprintf_r+0x306c>
    2258:	00000000 	nop
    225c:	2a820066 	slti	v0,s4,102
    2260:	1440038c 	bnez	v0,3094 <_vfprintf_r+0x2c88>
    2264:	00000000 	nop
    2268:	8fc300a4 	lw	v1,164(s8)
    226c:	8fc200a0 	lw	v0,160(s8)
    2270:	00602821 	move	a1,v1
    2274:	00402021 	move	a0,v0
    2278:	00003821 	move	a3,zero
    227c:	00003021 	move	a2,zero
    2280:	0c004fd6 	jal	13f58 <__eqdf2>
    2284:	00000000 	nop
    2288:	14400093 	bnez	v0,24d8 <_vfprintf_r+0x20cc>
    228c:	00000000 	nop
    2290:	3c020001 	lui	v0,0x1
    2294:	24424ab8 	addiu	v0,v0,19128
    2298:	ae220000 	sw	v0,0(s1)
    229c:	24020001 	li	v0,1
    22a0:	ae220004 	sw	v0,4(s1)
    22a4:	8fc200c0 	lw	v0,192(s8)
    22a8:	00000000 	nop
    22ac:	24420001 	addiu	v0,v0,1
    22b0:	afc200c0 	sw	v0,192(s8)
    22b4:	26310008 	addiu	s1,s1,8
    22b8:	8fc200bc 	lw	v0,188(s8)
    22bc:	00000000 	nop
    22c0:	24420001 	addiu	v0,v0,1
    22c4:	afc200bc 	sw	v0,188(s8)
    22c8:	8fc200bc 	lw	v0,188(s8)
    22cc:	00000000 	nop
    22d0:	28420008 	slti	v0,v0,8
    22d4:	1440000c 	bnez	v0,2308 <_vfprintf_r+0x1efc>
    22d8:	00000000 	nop
    22dc:	27c200b8 	addiu	v0,s8,184
    22e0:	8fc401f8 	lw	a0,504(s8)
    22e4:	8fc501fc 	lw	a1,508(s8)
    22e8:	00403021 	move	a2,v0
    22ec:	0c00352c 	jal	d4b0 <__sprint_r>
    22f0:	00000000 	nop
    22f4:	10400003 	beqz	v0,2304 <_vfprintf_r+0x1ef8>
    22f8:	00000000 	nop
    22fc:	08000da1 	j	3684 <_vfprintf_r+0x3278>
    2300:	00000000 	nop
    2304:	27d100c4 	addiu	s1,s8,196
    2308:	8fc300a8 	lw	v1,168(s8)
    230c:	8fc200b4 	lw	v0,180(s8)
    2310:	00000000 	nop
    2314:	0062102a 	slt	v0,v1,v0
    2318:	14400004 	bnez	v0,232c <_vfprintf_r+0x1f20>
    231c:	00000000 	nop
    2320:	32620001 	andi	v0,s3,0x1
    2324:	10400454 	beqz	v0,3478 <_vfprintf_r+0x306c>
    2328:	00000000 	nop
    232c:	8fc20084 	lw	v0,132(s8)
    2330:	00000000 	nop
    2334:	ae220000 	sw	v0,0(s1)
    2338:	8fc20088 	lw	v0,136(s8)
    233c:	00000000 	nop
    2340:	ae220004 	sw	v0,4(s1)
    2344:	8fc200c0 	lw	v0,192(s8)
    2348:	00000000 	nop
    234c:	00401821 	move	v1,v0
    2350:	8fc20088 	lw	v0,136(s8)
    2354:	00000000 	nop
    2358:	00621021 	addu	v0,v1,v0
    235c:	afc200c0 	sw	v0,192(s8)
    2360:	26310008 	addiu	s1,s1,8
    2364:	8fc200bc 	lw	v0,188(s8)
    2368:	00000000 	nop
    236c:	24420001 	addiu	v0,v0,1
    2370:	afc200bc 	sw	v0,188(s8)
    2374:	8fc200bc 	lw	v0,188(s8)
    2378:	00000000 	nop
    237c:	28420008 	slti	v0,v0,8
    2380:	1440000c 	bnez	v0,23b4 <_vfprintf_r+0x1fa8>
    2384:	00000000 	nop
    2388:	27c200b8 	addiu	v0,s8,184
    238c:	8fc401f8 	lw	a0,504(s8)
    2390:	8fc501fc 	lw	a1,508(s8)
    2394:	00403021 	move	a2,v0
    2398:	0c00352c 	jal	d4b0 <__sprint_r>
    239c:	00000000 	nop
    23a0:	10400003 	beqz	v0,23b0 <_vfprintf_r+0x1fa4>
    23a4:	00000000 	nop
    23a8:	08000da1 	j	3684 <_vfprintf_r+0x3278>
    23ac:	00000000 	nop
    23b0:	27d100c4 	addiu	s1,s8,196
    23b4:	8fc200b4 	lw	v0,180(s8)
    23b8:	00000000 	nop
    23bc:	2450ffff 	addiu	s0,v0,-1
    23c0:	1a00042d 	blez	s0,3478 <_vfprintf_r+0x306c>
    23c4:	00000000 	nop
    23c8:	08000913 	j	244c <_vfprintf_r+0x2040>
    23cc:	00000000 	nop
    23d0:	3c020001 	lui	v0,0x1
    23d4:	24424c38 	addiu	v0,v0,19512
    23d8:	ae220000 	sw	v0,0(s1)
    23dc:	24020010 	li	v0,16
    23e0:	ae220004 	sw	v0,4(s1)
    23e4:	8fc200c0 	lw	v0,192(s8)
    23e8:	00000000 	nop
    23ec:	24420010 	addiu	v0,v0,16
    23f0:	afc200c0 	sw	v0,192(s8)
    23f4:	26310008 	addiu	s1,s1,8
    23f8:	8fc200bc 	lw	v0,188(s8)
    23fc:	00000000 	nop
    2400:	24420001 	addiu	v0,v0,1
    2404:	afc200bc 	sw	v0,188(s8)
    2408:	8fc200bc 	lw	v0,188(s8)
    240c:	00000000 	nop
    2410:	28420008 	slti	v0,v0,8
    2414:	1440000c 	bnez	v0,2448 <_vfprintf_r+0x203c>
    2418:	00000000 	nop
    241c:	27c200b8 	addiu	v0,s8,184
    2420:	8fc401f8 	lw	a0,504(s8)
    2424:	8fc501fc 	lw	a1,508(s8)
    2428:	00403021 	move	a2,v0
    242c:	0c00352c 	jal	d4b0 <__sprint_r>
    2430:	00000000 	nop
    2434:	10400003 	beqz	v0,2444 <_vfprintf_r+0x2038>
    2438:	00000000 	nop
    243c:	08000da1 	j	3684 <_vfprintf_r+0x3278>
    2440:	00000000 	nop
    2444:	27d100c4 	addiu	s1,s8,196
    2448:	2610fff0 	addiu	s0,s0,-16
    244c:	2a020011 	slti	v0,s0,17
    2450:	1040ffdf 	beqz	v0,23d0 <_vfprintf_r+0x1fc4>
    2454:	00000000 	nop
    2458:	3c020001 	lui	v0,0x1
    245c:	24424c38 	addiu	v0,v0,19512
    2460:	ae220000 	sw	v0,0(s1)
    2464:	02001021 	move	v0,s0
    2468:	ae220004 	sw	v0,4(s1)
    246c:	8fc200c0 	lw	v0,192(s8)
    2470:	00000000 	nop
    2474:	00501021 	addu	v0,v0,s0
    2478:	afc200c0 	sw	v0,192(s8)
    247c:	26310008 	addiu	s1,s1,8
    2480:	8fc200bc 	lw	v0,188(s8)
    2484:	00000000 	nop
    2488:	24420001 	addiu	v0,v0,1
    248c:	afc200bc 	sw	v0,188(s8)
    2490:	8fc200bc 	lw	v0,188(s8)
    2494:	00000000 	nop
    2498:	28420008 	slti	v0,v0,8
    249c:	144003f6 	bnez	v0,3478 <_vfprintf_r+0x306c>
    24a0:	00000000 	nop
    24a4:	27c200b8 	addiu	v0,s8,184
    24a8:	8fc401f8 	lw	a0,504(s8)
    24ac:	8fc501fc 	lw	a1,508(s8)
    24b0:	00403021 	move	a2,v0
    24b4:	0c00352c 	jal	d4b0 <__sprint_r>
    24b8:	00000000 	nop
    24bc:	10400003 	beqz	v0,24cc <_vfprintf_r+0x20c0>
    24c0:	00000000 	nop
    24c4:	08000da1 	j	3684 <_vfprintf_r+0x3278>
    24c8:	00000000 	nop
    24cc:	27d100c4 	addiu	s1,s8,196
    24d0:	08000d1e 	j	3478 <_vfprintf_r+0x306c>
    24d4:	00000000 	nop
    24d8:	8fc200a8 	lw	v0,168(s8)
    24dc:	00000000 	nop
    24e0:	1c4000b3 	bgtz	v0,27b0 <_vfprintf_r+0x23a4>
    24e4:	00000000 	nop
    24e8:	3c020001 	lui	v0,0x1
    24ec:	24424ab8 	addiu	v0,v0,19128
    24f0:	ae220000 	sw	v0,0(s1)
    24f4:	24020001 	li	v0,1
    24f8:	ae220004 	sw	v0,4(s1)
    24fc:	8fc200c0 	lw	v0,192(s8)
    2500:	00000000 	nop
    2504:	24420001 	addiu	v0,v0,1
    2508:	afc200c0 	sw	v0,192(s8)
    250c:	26310008 	addiu	s1,s1,8
    2510:	8fc200bc 	lw	v0,188(s8)
    2514:	00000000 	nop
    2518:	24420001 	addiu	v0,v0,1
    251c:	afc200bc 	sw	v0,188(s8)
    2520:	8fc200bc 	lw	v0,188(s8)
    2524:	00000000 	nop
    2528:	28420008 	slti	v0,v0,8
    252c:	1440000c 	bnez	v0,2560 <_vfprintf_r+0x2154>
    2530:	00000000 	nop
    2534:	27c200b8 	addiu	v0,s8,184
    2538:	8fc401f8 	lw	a0,504(s8)
    253c:	8fc501fc 	lw	a1,508(s8)
    2540:	00403021 	move	a2,v0
    2544:	0c00352c 	jal	d4b0 <__sprint_r>
    2548:	00000000 	nop
    254c:	10400003 	beqz	v0,255c <_vfprintf_r+0x2150>
    2550:	00000000 	nop
    2554:	08000da1 	j	3684 <_vfprintf_r+0x3278>
    2558:	00000000 	nop
    255c:	27d100c4 	addiu	s1,s8,196
    2560:	8fc200a8 	lw	v0,168(s8)
    2564:	00000000 	nop
    2568:	14400008 	bnez	v0,258c <_vfprintf_r+0x2180>
    256c:	00000000 	nop
    2570:	8fc200b4 	lw	v0,180(s8)
    2574:	00000000 	nop
    2578:	14400004 	bnez	v0,258c <_vfprintf_r+0x2180>
    257c:	00000000 	nop
    2580:	32620001 	andi	v0,s3,0x1
    2584:	104003bc 	beqz	v0,3478 <_vfprintf_r+0x306c>
    2588:	00000000 	nop
    258c:	8fc20084 	lw	v0,132(s8)
    2590:	00000000 	nop
    2594:	ae220000 	sw	v0,0(s1)
    2598:	8fc20088 	lw	v0,136(s8)
    259c:	00000000 	nop
    25a0:	ae220004 	sw	v0,4(s1)
    25a4:	8fc200c0 	lw	v0,192(s8)
    25a8:	00000000 	nop
    25ac:	00401821 	move	v1,v0
    25b0:	8fc20088 	lw	v0,136(s8)
    25b4:	00000000 	nop
    25b8:	00621021 	addu	v0,v1,v0
    25bc:	afc200c0 	sw	v0,192(s8)
    25c0:	26310008 	addiu	s1,s1,8
    25c4:	8fc200bc 	lw	v0,188(s8)
    25c8:	00000000 	nop
    25cc:	24420001 	addiu	v0,v0,1
    25d0:	afc200bc 	sw	v0,188(s8)
    25d4:	8fc200bc 	lw	v0,188(s8)
    25d8:	00000000 	nop
    25dc:	28420008 	slti	v0,v0,8
    25e0:	1440000c 	bnez	v0,2614 <_vfprintf_r+0x2208>
    25e4:	00000000 	nop
    25e8:	27c200b8 	addiu	v0,s8,184
    25ec:	8fc401f8 	lw	a0,504(s8)
    25f0:	8fc501fc 	lw	a1,508(s8)
    25f4:	00403021 	move	a2,v0
    25f8:	0c00352c 	jal	d4b0 <__sprint_r>
    25fc:	00000000 	nop
    2600:	10400003 	beqz	v0,2610 <_vfprintf_r+0x2204>
    2604:	00000000 	nop
    2608:	08000da1 	j	3684 <_vfprintf_r+0x3278>
    260c:	00000000 	nop
    2610:	27d100c4 	addiu	s1,s8,196
    2614:	8fc200a8 	lw	v0,168(s8)
    2618:	00000000 	nop
    261c:	00028023 	negu	s0,v0
    2620:	1a000043 	blez	s0,2730 <_vfprintf_r+0x2324>
    2624:	00000000 	nop
    2628:	080009ab 	j	26ac <_vfprintf_r+0x22a0>
    262c:	00000000 	nop
    2630:	3c020001 	lui	v0,0x1
    2634:	24424c38 	addiu	v0,v0,19512
    2638:	ae220000 	sw	v0,0(s1)
    263c:	24020010 	li	v0,16
    2640:	ae220004 	sw	v0,4(s1)
    2644:	8fc200c0 	lw	v0,192(s8)
    2648:	00000000 	nop
    264c:	24420010 	addiu	v0,v0,16
    2650:	afc200c0 	sw	v0,192(s8)
    2654:	26310008 	addiu	s1,s1,8
    2658:	8fc200bc 	lw	v0,188(s8)
    265c:	00000000 	nop
    2660:	24420001 	addiu	v0,v0,1
    2664:	afc200bc 	sw	v0,188(s8)
    2668:	8fc200bc 	lw	v0,188(s8)
    266c:	00000000 	nop
    2670:	28420008 	slti	v0,v0,8
    2674:	1440000c 	bnez	v0,26a8 <_vfprintf_r+0x229c>
    2678:	00000000 	nop
    267c:	27c200b8 	addiu	v0,s8,184
    2680:	8fc401f8 	lw	a0,504(s8)
    2684:	8fc501fc 	lw	a1,508(s8)
    2688:	00403021 	move	a2,v0
    268c:	0c00352c 	jal	d4b0 <__sprint_r>
    2690:	00000000 	nop
    2694:	10400003 	beqz	v0,26a4 <_vfprintf_r+0x2298>
    2698:	00000000 	nop
    269c:	08000da1 	j	3684 <_vfprintf_r+0x3278>
    26a0:	00000000 	nop
    26a4:	27d100c4 	addiu	s1,s8,196
    26a8:	2610fff0 	addiu	s0,s0,-16
    26ac:	2a020011 	slti	v0,s0,17
    26b0:	1040ffdf 	beqz	v0,2630 <_vfprintf_r+0x2224>
    26b4:	00000000 	nop
    26b8:	3c020001 	lui	v0,0x1
    26bc:	24424c38 	addiu	v0,v0,19512
    26c0:	ae220000 	sw	v0,0(s1)
    26c4:	02001021 	move	v0,s0
    26c8:	ae220004 	sw	v0,4(s1)
    26cc:	8fc200c0 	lw	v0,192(s8)
    26d0:	00000000 	nop
    26d4:	00501021 	addu	v0,v0,s0
    26d8:	afc200c0 	sw	v0,192(s8)
    26dc:	26310008 	addiu	s1,s1,8
    26e0:	8fc200bc 	lw	v0,188(s8)
    26e4:	00000000 	nop
    26e8:	24420001 	addiu	v0,v0,1
    26ec:	afc200bc 	sw	v0,188(s8)
    26f0:	8fc200bc 	lw	v0,188(s8)
    26f4:	00000000 	nop
    26f8:	28420008 	slti	v0,v0,8
    26fc:	1440000c 	bnez	v0,2730 <_vfprintf_r+0x2324>
    2700:	00000000 	nop
    2704:	27c200b8 	addiu	v0,s8,184
    2708:	8fc401f8 	lw	a0,504(s8)
    270c:	8fc501fc 	lw	a1,508(s8)
    2710:	00403021 	move	a2,v0
    2714:	0c00352c 	jal	d4b0 <__sprint_r>
    2718:	00000000 	nop
    271c:	10400003 	beqz	v0,272c <_vfprintf_r+0x2320>
    2720:	00000000 	nop
    2724:	08000da1 	j	3684 <_vfprintf_r+0x3278>
    2728:	00000000 	nop
    272c:	27d100c4 	addiu	s1,s8,196
    2730:	ae320000 	sw	s2,0(s1)
    2734:	8fc200b4 	lw	v0,180(s8)
    2738:	00000000 	nop
    273c:	ae220004 	sw	v0,4(s1)
    2740:	8fc300c0 	lw	v1,192(s8)
    2744:	8fc200b4 	lw	v0,180(s8)
    2748:	00000000 	nop
    274c:	00621021 	addu	v0,v1,v0
    2750:	afc200c0 	sw	v0,192(s8)
    2754:	26310008 	addiu	s1,s1,8
    2758:	8fc200bc 	lw	v0,188(s8)
    275c:	00000000 	nop
    2760:	24420001 	addiu	v0,v0,1
    2764:	afc200bc 	sw	v0,188(s8)
    2768:	8fc200bc 	lw	v0,188(s8)
    276c:	00000000 	nop
    2770:	28420008 	slti	v0,v0,8
    2774:	14400340 	bnez	v0,3478 <_vfprintf_r+0x306c>
    2778:	00000000 	nop
    277c:	27c200b8 	addiu	v0,s8,184
    2780:	8fc401f8 	lw	a0,504(s8)
    2784:	8fc501fc 	lw	a1,508(s8)
    2788:	00403021 	move	a2,v0
    278c:	0c00352c 	jal	d4b0 <__sprint_r>
    2790:	00000000 	nop
    2794:	10400003 	beqz	v0,27a4 <_vfprintf_r+0x2398>
    2798:	00000000 	nop
    279c:	08000da1 	j	3684 <_vfprintf_r+0x3278>
    27a0:	00000000 	nop
    27a4:	27d100c4 	addiu	s1,s8,196
    27a8:	08000d1e 	j	3478 <_vfprintf_r+0x306c>
    27ac:	00000000 	nop
    27b0:	afd20094 	sw	s2,148(s8)
    27b4:	8fc200b4 	lw	v0,180(s8)
    27b8:	00000000 	nop
    27bc:	00401821 	move	v1,v0
    27c0:	8fc20094 	lw	v0,148(s8)
    27c4:	00000000 	nop
    27c8:	00431021 	addu	v0,v0,v1
    27cc:	00401821 	move	v1,v0
    27d0:	02401021 	move	v0,s2
    27d4:	00621023 	subu	v0,v1,v0
    27d8:	afc20078 	sw	v0,120(s8)
    27dc:	8fc30078 	lw	v1,120(s8)
    27e0:	8fc2004c 	lw	v0,76(s8)
    27e4:	00000000 	nop
    27e8:	0043102a 	slt	v0,v0,v1
    27ec:	10400004 	beqz	v0,2800 <_vfprintf_r+0x23f4>
    27f0:	00000000 	nop
    27f4:	8fc2004c 	lw	v0,76(s8)
    27f8:	00000000 	nop
    27fc:	afc20078 	sw	v0,120(s8)
    2800:	8fc20078 	lw	v0,120(s8)
    2804:	00000000 	nop
    2808:	1840001f 	blez	v0,2888 <_vfprintf_r+0x247c>
    280c:	00000000 	nop
    2810:	ae320000 	sw	s2,0(s1)
    2814:	8fc20078 	lw	v0,120(s8)
    2818:	00000000 	nop
    281c:	ae220004 	sw	v0,4(s1)
    2820:	8fc300c0 	lw	v1,192(s8)
    2824:	8fc20078 	lw	v0,120(s8)
    2828:	00000000 	nop
    282c:	00621021 	addu	v0,v1,v0
    2830:	afc200c0 	sw	v0,192(s8)
    2834:	26310008 	addiu	s1,s1,8
    2838:	8fc200bc 	lw	v0,188(s8)
    283c:	00000000 	nop
    2840:	24420001 	addiu	v0,v0,1
    2844:	afc200bc 	sw	v0,188(s8)
    2848:	8fc200bc 	lw	v0,188(s8)
    284c:	00000000 	nop
    2850:	28420008 	slti	v0,v0,8
    2854:	1440000c 	bnez	v0,2888 <_vfprintf_r+0x247c>
    2858:	00000000 	nop
    285c:	27c200b8 	addiu	v0,s8,184
    2860:	8fc401f8 	lw	a0,504(s8)
    2864:	8fc501fc 	lw	a1,508(s8)
    2868:	00403021 	move	a2,v0
    286c:	0c00352c 	jal	d4b0 <__sprint_r>
    2870:	00000000 	nop
    2874:	10400003 	beqz	v0,2884 <_vfprintf_r+0x2478>
    2878:	00000000 	nop
    287c:	08000da1 	j	3684 <_vfprintf_r+0x3278>
    2880:	00000000 	nop
    2884:	27d100c4 	addiu	s1,s8,196
    2888:	8fc30078 	lw	v1,120(s8)
    288c:	00000000 	nop
    2890:	04610002 	bgez	v1,289c <_vfprintf_r+0x2490>
    2894:	00000000 	nop
    2898:	00001821 	move	v1,zero
    289c:	8fc2004c 	lw	v0,76(s8)
    28a0:	00000000 	nop
    28a4:	00431023 	subu	v0,v0,v1
    28a8:	afc20078 	sw	v0,120(s8)
    28ac:	8fc20078 	lw	v0,120(s8)
    28b0:	00000000 	nop
    28b4:	1840004a 	blez	v0,29e0 <_vfprintf_r+0x25d4>
    28b8:	00000000 	nop
    28bc:	08000a53 	j	294c <_vfprintf_r+0x2540>
    28c0:	00000000 	nop
    28c4:	3c020001 	lui	v0,0x1
    28c8:	24424c38 	addiu	v0,v0,19512
    28cc:	ae220000 	sw	v0,0(s1)
    28d0:	24020010 	li	v0,16
    28d4:	ae220004 	sw	v0,4(s1)
    28d8:	8fc200c0 	lw	v0,192(s8)
    28dc:	00000000 	nop
    28e0:	24420010 	addiu	v0,v0,16
    28e4:	afc200c0 	sw	v0,192(s8)
    28e8:	26310008 	addiu	s1,s1,8
    28ec:	8fc200bc 	lw	v0,188(s8)
    28f0:	00000000 	nop
    28f4:	24420001 	addiu	v0,v0,1
    28f8:	afc200bc 	sw	v0,188(s8)
    28fc:	8fc200bc 	lw	v0,188(s8)
    2900:	00000000 	nop
    2904:	28420008 	slti	v0,v0,8
    2908:	1440000c 	bnez	v0,293c <_vfprintf_r+0x2530>
    290c:	00000000 	nop
    2910:	27c200b8 	addiu	v0,s8,184
    2914:	8fc401f8 	lw	a0,504(s8)
    2918:	8fc501fc 	lw	a1,508(s8)
    291c:	00403021 	move	a2,v0
    2920:	0c00352c 	jal	d4b0 <__sprint_r>
    2924:	00000000 	nop
    2928:	10400003 	beqz	v0,2938 <_vfprintf_r+0x252c>
    292c:	00000000 	nop
    2930:	08000da1 	j	3684 <_vfprintf_r+0x3278>
    2934:	00000000 	nop
    2938:	27d100c4 	addiu	s1,s8,196
    293c:	8fc20078 	lw	v0,120(s8)
    2940:	00000000 	nop
    2944:	2442fff0 	addiu	v0,v0,-16
    2948:	afc20078 	sw	v0,120(s8)
    294c:	8fc20078 	lw	v0,120(s8)
    2950:	00000000 	nop
    2954:	28420011 	slti	v0,v0,17
    2958:	1040ffda 	beqz	v0,28c4 <_vfprintf_r+0x24b8>
    295c:	00000000 	nop
    2960:	3c020001 	lui	v0,0x1
    2964:	24424c38 	addiu	v0,v0,19512
    2968:	ae220000 	sw	v0,0(s1)
    296c:	8fc20078 	lw	v0,120(s8)
    2970:	00000000 	nop
    2974:	ae220004 	sw	v0,4(s1)
    2978:	8fc300c0 	lw	v1,192(s8)
    297c:	8fc20078 	lw	v0,120(s8)
    2980:	00000000 	nop
    2984:	00621021 	addu	v0,v1,v0
    2988:	afc200c0 	sw	v0,192(s8)
    298c:	26310008 	addiu	s1,s1,8
    2990:	8fc200bc 	lw	v0,188(s8)
    2994:	00000000 	nop
    2998:	24420001 	addiu	v0,v0,1
    299c:	afc200bc 	sw	v0,188(s8)
    29a0:	8fc200bc 	lw	v0,188(s8)
    29a4:	00000000 	nop
    29a8:	28420008 	slti	v0,v0,8
    29ac:	1440000c 	bnez	v0,29e0 <_vfprintf_r+0x25d4>
    29b0:	00000000 	nop
    29b4:	27c200b8 	addiu	v0,s8,184
    29b8:	8fc401f8 	lw	a0,504(s8)
    29bc:	8fc501fc 	lw	a1,508(s8)
    29c0:	00403021 	move	a2,v0
    29c4:	0c00352c 	jal	d4b0 <__sprint_r>
    29c8:	00000000 	nop
    29cc:	10400003 	beqz	v0,29dc <_vfprintf_r+0x25d0>
    29d0:	00000000 	nop
    29d4:	08000da1 	j	3684 <_vfprintf_r+0x3278>
    29d8:	00000000 	nop
    29dc:	27d100c4 	addiu	s1,s8,196
    29e0:	8fc2004c 	lw	v0,76(s8)
    29e4:	00000000 	nop
    29e8:	02429021 	addu	s2,s2,v0
    29ec:	32620400 	andi	v0,s3,0x400
    29f0:	104000e7 	beqz	v0,2d90 <_vfprintf_r+0x2984>
    29f4:	00000000 	nop
    29f8:	08000b4d 	j	2d34 <_vfprintf_r+0x2928>
    29fc:	00000000 	nop
    2a00:	8fc20054 	lw	v0,84(s8)
    2a04:	00000000 	nop
    2a08:	18400007 	blez	v0,2a28 <_vfprintf_r+0x261c>
    2a0c:	00000000 	nop
    2a10:	8fc20054 	lw	v0,84(s8)
    2a14:	00000000 	nop
    2a18:	2442ffff 	addiu	v0,v0,-1
    2a1c:	afc20054 	sw	v0,84(s8)
    2a20:	08000a92 	j	2a48 <_vfprintf_r+0x263c>
    2a24:	00000000 	nop
    2a28:	8fc20044 	lw	v0,68(s8)
    2a2c:	00000000 	nop
    2a30:	2442ffff 	addiu	v0,v0,-1
    2a34:	afc20044 	sw	v0,68(s8)
    2a38:	8fc20050 	lw	v0,80(s8)
    2a3c:	00000000 	nop
    2a40:	2442ffff 	addiu	v0,v0,-1
    2a44:	afc20050 	sw	v0,80(s8)
    2a48:	8fc2003c 	lw	v0,60(s8)
    2a4c:	00000000 	nop
    2a50:	ae220000 	sw	v0,0(s1)
    2a54:	8fc20040 	lw	v0,64(s8)
    2a58:	00000000 	nop
    2a5c:	ae220004 	sw	v0,4(s1)
    2a60:	8fc200c0 	lw	v0,192(s8)
    2a64:	00000000 	nop
    2a68:	00401821 	move	v1,v0
    2a6c:	8fc20040 	lw	v0,64(s8)
    2a70:	00000000 	nop
    2a74:	00621021 	addu	v0,v1,v0
    2a78:	afc200c0 	sw	v0,192(s8)
    2a7c:	26310008 	addiu	s1,s1,8
    2a80:	8fc200bc 	lw	v0,188(s8)
    2a84:	00000000 	nop
    2a88:	24420001 	addiu	v0,v0,1
    2a8c:	afc200bc 	sw	v0,188(s8)
    2a90:	8fc200bc 	lw	v0,188(s8)
    2a94:	00000000 	nop
    2a98:	28420008 	slti	v0,v0,8
    2a9c:	1440000c 	bnez	v0,2ad0 <_vfprintf_r+0x26c4>
    2aa0:	00000000 	nop
    2aa4:	27c200b8 	addiu	v0,s8,184
    2aa8:	8fc401f8 	lw	a0,504(s8)
    2aac:	8fc501fc 	lw	a1,508(s8)
    2ab0:	00403021 	move	a2,v0
    2ab4:	0c00352c 	jal	d4b0 <__sprint_r>
    2ab8:	00000000 	nop
    2abc:	10400003 	beqz	v0,2acc <_vfprintf_r+0x26c0>
    2ac0:	00000000 	nop
    2ac4:	08000da1 	j	3684 <_vfprintf_r+0x3278>
    2ac8:	00000000 	nop
    2acc:	27d100c4 	addiu	s1,s8,196
    2ad0:	8fc200b4 	lw	v0,180(s8)
    2ad4:	00000000 	nop
    2ad8:	00401821 	move	v1,v0
    2adc:	8fc20094 	lw	v0,148(s8)
    2ae0:	00000000 	nop
    2ae4:	00431021 	addu	v0,v0,v1
    2ae8:	00401821 	move	v1,v0
    2aec:	02401021 	move	v0,s2
    2af0:	00621023 	subu	v0,v1,v0
    2af4:	afc2007c 	sw	v0,124(s8)
    2af8:	8fc20044 	lw	v0,68(s8)
    2afc:	00000000 	nop
    2b00:	80420000 	lb	v0,0(v0)
    2b04:	00000000 	nop
    2b08:	00401821 	move	v1,v0
    2b0c:	8fc2007c 	lw	v0,124(s8)
    2b10:	00000000 	nop
    2b14:	0062102a 	slt	v0,v1,v0
    2b18:	10400006 	beqz	v0,2b34 <_vfprintf_r+0x2728>
    2b1c:	00000000 	nop
    2b20:	8fc20044 	lw	v0,68(s8)
    2b24:	00000000 	nop
    2b28:	80420000 	lb	v0,0(v0)
    2b2c:	00000000 	nop
    2b30:	afc2007c 	sw	v0,124(s8)
    2b34:	8fc2007c 	lw	v0,124(s8)
    2b38:	00000000 	nop
    2b3c:	1840001f 	blez	v0,2bbc <_vfprintf_r+0x27b0>
    2b40:	00000000 	nop
    2b44:	ae320000 	sw	s2,0(s1)
    2b48:	8fc2007c 	lw	v0,124(s8)
    2b4c:	00000000 	nop
    2b50:	ae220004 	sw	v0,4(s1)
    2b54:	8fc300c0 	lw	v1,192(s8)
    2b58:	8fc2007c 	lw	v0,124(s8)
    2b5c:	00000000 	nop
    2b60:	00621021 	addu	v0,v1,v0
    2b64:	afc200c0 	sw	v0,192(s8)
    2b68:	26310008 	addiu	s1,s1,8
    2b6c:	8fc200bc 	lw	v0,188(s8)
    2b70:	00000000 	nop
    2b74:	24420001 	addiu	v0,v0,1
    2b78:	afc200bc 	sw	v0,188(s8)
    2b7c:	8fc200bc 	lw	v0,188(s8)
    2b80:	00000000 	nop
    2b84:	28420008 	slti	v0,v0,8
    2b88:	1440000c 	bnez	v0,2bbc <_vfprintf_r+0x27b0>
    2b8c:	00000000 	nop
    2b90:	27c200b8 	addiu	v0,s8,184
    2b94:	8fc401f8 	lw	a0,504(s8)
    2b98:	8fc501fc 	lw	a1,508(s8)
    2b9c:	00403021 	move	a2,v0
    2ba0:	0c00352c 	jal	d4b0 <__sprint_r>
    2ba4:	00000000 	nop
    2ba8:	10400003 	beqz	v0,2bb8 <_vfprintf_r+0x27ac>
    2bac:	00000000 	nop
    2bb0:	08000da1 	j	3684 <_vfprintf_r+0x3278>
    2bb4:	00000000 	nop
    2bb8:	27d100c4 	addiu	s1,s8,196
    2bbc:	8fc20044 	lw	v0,68(s8)
    2bc0:	00000000 	nop
    2bc4:	80420000 	lb	v0,0(v0)
    2bc8:	00000000 	nop
    2bcc:	00401821 	move	v1,v0
    2bd0:	8fc2007c 	lw	v0,124(s8)
    2bd4:	00000000 	nop
    2bd8:	04410002 	bgez	v0,2be4 <_vfprintf_r+0x27d8>
    2bdc:	00000000 	nop
    2be0:	00001021 	move	v0,zero
    2be4:	00621023 	subu	v0,v1,v0
    2be8:	afc2007c 	sw	v0,124(s8)
    2bec:	8fc2007c 	lw	v0,124(s8)
    2bf0:	00000000 	nop
    2bf4:	1840004a 	blez	v0,2d20 <_vfprintf_r+0x2914>
    2bf8:	00000000 	nop
    2bfc:	08000b23 	j	2c8c <_vfprintf_r+0x2880>
    2c00:	00000000 	nop
    2c04:	3c020001 	lui	v0,0x1
    2c08:	24424c38 	addiu	v0,v0,19512
    2c0c:	ae220000 	sw	v0,0(s1)
    2c10:	24020010 	li	v0,16
    2c14:	ae220004 	sw	v0,4(s1)
    2c18:	8fc200c0 	lw	v0,192(s8)
    2c1c:	00000000 	nop
    2c20:	24420010 	addiu	v0,v0,16
    2c24:	afc200c0 	sw	v0,192(s8)
    2c28:	26310008 	addiu	s1,s1,8
    2c2c:	8fc200bc 	lw	v0,188(s8)
    2c30:	00000000 	nop
    2c34:	24420001 	addiu	v0,v0,1
    2c38:	afc200bc 	sw	v0,188(s8)
    2c3c:	8fc200bc 	lw	v0,188(s8)
    2c40:	00000000 	nop
    2c44:	28420008 	slti	v0,v0,8
    2c48:	1440000c 	bnez	v0,2c7c <_vfprintf_r+0x2870>
    2c4c:	00000000 	nop
    2c50:	27c200b8 	addiu	v0,s8,184
    2c54:	8fc401f8 	lw	a0,504(s8)
    2c58:	8fc501fc 	lw	a1,508(s8)
    2c5c:	00403021 	move	a2,v0
    2c60:	0c00352c 	jal	d4b0 <__sprint_r>
    2c64:	00000000 	nop
    2c68:	10400003 	beqz	v0,2c78 <_vfprintf_r+0x286c>
    2c6c:	00000000 	nop
    2c70:	08000da1 	j	3684 <_vfprintf_r+0x3278>
    2c74:	00000000 	nop
    2c78:	27d100c4 	addiu	s1,s8,196
    2c7c:	8fc2007c 	lw	v0,124(s8)
    2c80:	00000000 	nop
    2c84:	2442fff0 	addiu	v0,v0,-16
    2c88:	afc2007c 	sw	v0,124(s8)
    2c8c:	8fc2007c 	lw	v0,124(s8)
    2c90:	00000000 	nop
    2c94:	28420011 	slti	v0,v0,17
    2c98:	1040ffda 	beqz	v0,2c04 <_vfprintf_r+0x27f8>
    2c9c:	00000000 	nop
    2ca0:	3c020001 	lui	v0,0x1
    2ca4:	24424c38 	addiu	v0,v0,19512
    2ca8:	ae220000 	sw	v0,0(s1)
    2cac:	8fc2007c 	lw	v0,124(s8)
    2cb0:	00000000 	nop
    2cb4:	ae220004 	sw	v0,4(s1)
    2cb8:	8fc300c0 	lw	v1,192(s8)
    2cbc:	8fc2007c 	lw	v0,124(s8)
    2cc0:	00000000 	nop
    2cc4:	00621021 	addu	v0,v1,v0
    2cc8:	afc200c0 	sw	v0,192(s8)
    2ccc:	26310008 	addiu	s1,s1,8
    2cd0:	8fc200bc 	lw	v0,188(s8)
    2cd4:	00000000 	nop
    2cd8:	24420001 	addiu	v0,v0,1
    2cdc:	afc200bc 	sw	v0,188(s8)
    2ce0:	8fc200bc 	lw	v0,188(s8)
    2ce4:	00000000 	nop
    2ce8:	28420008 	slti	v0,v0,8
    2cec:	1440000c 	bnez	v0,2d20 <_vfprintf_r+0x2914>
    2cf0:	00000000 	nop
    2cf4:	27c200b8 	addiu	v0,s8,184
    2cf8:	8fc401f8 	lw	a0,504(s8)
    2cfc:	8fc501fc 	lw	a1,508(s8)
    2d00:	00403021 	move	a2,v0
    2d04:	0c00352c 	jal	d4b0 <__sprint_r>
    2d08:	00000000 	nop
    2d0c:	10400003 	beqz	v0,2d1c <_vfprintf_r+0x2910>
    2d10:	00000000 	nop
    2d14:	08000da1 	j	3684 <_vfprintf_r+0x3278>
    2d18:	00000000 	nop
    2d1c:	27d100c4 	addiu	s1,s8,196
    2d20:	8fc20044 	lw	v0,68(s8)
    2d24:	00000000 	nop
    2d28:	80420000 	lb	v0,0(v0)
    2d2c:	00000000 	nop
    2d30:	02429021 	addu	s2,s2,v0
    2d34:	8fc20050 	lw	v0,80(s8)
    2d38:	00000000 	nop
    2d3c:	1c40ff30 	bgtz	v0,2a00 <_vfprintf_r+0x25f4>
    2d40:	00000000 	nop
    2d44:	8fc20054 	lw	v0,84(s8)
    2d48:	00000000 	nop
    2d4c:	1c40ff2c 	bgtz	v0,2a00 <_vfprintf_r+0x25f4>
    2d50:	00000000 	nop
    2d54:	8fc200b4 	lw	v0,180(s8)
    2d58:	00000000 	nop
    2d5c:	00401821 	move	v1,v0
    2d60:	8fc20094 	lw	v0,148(s8)
    2d64:	00000000 	nop
    2d68:	00431021 	addu	v0,v0,v1
    2d6c:	0052102b 	sltu	v0,v0,s2
    2d70:	10400007 	beqz	v0,2d90 <_vfprintf_r+0x2984>
    2d74:	00000000 	nop
    2d78:	8fc200b4 	lw	v0,180(s8)
    2d7c:	00000000 	nop
    2d80:	00401821 	move	v1,v0
    2d84:	8fc20094 	lw	v0,148(s8)
    2d88:	00000000 	nop
    2d8c:	00439021 	addu	s2,v0,v1
    2d90:	8fc300a8 	lw	v1,168(s8)
    2d94:	8fc200b4 	lw	v0,180(s8)
    2d98:	00000000 	nop
    2d9c:	0062102a 	slt	v0,v1,v0
    2da0:	14400004 	bnez	v0,2db4 <_vfprintf_r+0x29a8>
    2da4:	00000000 	nop
    2da8:	32620001 	andi	v0,s3,0x1
    2dac:	10400023 	beqz	v0,2e3c <_vfprintf_r+0x2a30>
    2db0:	00000000 	nop
    2db4:	8fc20084 	lw	v0,132(s8)
    2db8:	00000000 	nop
    2dbc:	ae220000 	sw	v0,0(s1)
    2dc0:	8fc20088 	lw	v0,136(s8)
    2dc4:	00000000 	nop
    2dc8:	ae220004 	sw	v0,4(s1)
    2dcc:	8fc200c0 	lw	v0,192(s8)
    2dd0:	00000000 	nop
    2dd4:	00401821 	move	v1,v0
    2dd8:	8fc20088 	lw	v0,136(s8)
    2ddc:	00000000 	nop
    2de0:	00621021 	addu	v0,v1,v0
    2de4:	afc200c0 	sw	v0,192(s8)
    2de8:	26310008 	addiu	s1,s1,8
    2dec:	8fc200bc 	lw	v0,188(s8)
    2df0:	00000000 	nop
    2df4:	24420001 	addiu	v0,v0,1
    2df8:	afc200bc 	sw	v0,188(s8)
    2dfc:	8fc200bc 	lw	v0,188(s8)
    2e00:	00000000 	nop
    2e04:	28420008 	slti	v0,v0,8
    2e08:	1440000c 	bnez	v0,2e3c <_vfprintf_r+0x2a30>
    2e0c:	00000000 	nop
    2e10:	27c200b8 	addiu	v0,s8,184
    2e14:	8fc401f8 	lw	a0,504(s8)
    2e18:	8fc501fc 	lw	a1,508(s8)
    2e1c:	00403021 	move	a2,v0
    2e20:	0c00352c 	jal	d4b0 <__sprint_r>
    2e24:	00000000 	nop
    2e28:	10400003 	beqz	v0,2e38 <_vfprintf_r+0x2a2c>
    2e2c:	00000000 	nop
    2e30:	08000da1 	j	3684 <_vfprintf_r+0x3278>
    2e34:	00000000 	nop
    2e38:	27d100c4 	addiu	s1,s8,196
    2e3c:	8fc200b4 	lw	v0,180(s8)
    2e40:	00000000 	nop
    2e44:	00401821 	move	v1,v0
    2e48:	8fc20094 	lw	v0,148(s8)
    2e4c:	00000000 	nop
    2e50:	00431021 	addu	v0,v0,v1
    2e54:	00401821 	move	v1,v0
    2e58:	02401021 	move	v0,s2
    2e5c:	00621023 	subu	v0,v1,v0
    2e60:	afc20080 	sw	v0,128(s8)
    2e64:	8fc300b4 	lw	v1,180(s8)
    2e68:	8fc200a8 	lw	v0,168(s8)
    2e6c:	00000000 	nop
    2e70:	00621823 	subu	v1,v1,v0
    2e74:	8fc20080 	lw	v0,128(s8)
    2e78:	00000000 	nop
    2e7c:	0062102a 	slt	v0,v1,v0
    2e80:	10400006 	beqz	v0,2e9c <_vfprintf_r+0x2a90>
    2e84:	00000000 	nop
    2e88:	8fc300b4 	lw	v1,180(s8)
    2e8c:	8fc200a8 	lw	v0,168(s8)
    2e90:	00000000 	nop
    2e94:	00621023 	subu	v0,v1,v0
    2e98:	afc20080 	sw	v0,128(s8)
    2e9c:	8fc20080 	lw	v0,128(s8)
    2ea0:	00000000 	nop
    2ea4:	1840001f 	blez	v0,2f24 <_vfprintf_r+0x2b18>
    2ea8:	00000000 	nop
    2eac:	ae320000 	sw	s2,0(s1)
    2eb0:	8fc20080 	lw	v0,128(s8)
    2eb4:	00000000 	nop
    2eb8:	ae220004 	sw	v0,4(s1)
    2ebc:	8fc300c0 	lw	v1,192(s8)
    2ec0:	8fc20080 	lw	v0,128(s8)
    2ec4:	00000000 	nop
    2ec8:	00621021 	addu	v0,v1,v0
    2ecc:	afc200c0 	sw	v0,192(s8)
    2ed0:	26310008 	addiu	s1,s1,8
    2ed4:	8fc200bc 	lw	v0,188(s8)
    2ed8:	00000000 	nop
    2edc:	24420001 	addiu	v0,v0,1
    2ee0:	afc200bc 	sw	v0,188(s8)
    2ee4:	8fc200bc 	lw	v0,188(s8)
    2ee8:	00000000 	nop
    2eec:	28420008 	slti	v0,v0,8
    2ef0:	1440000c 	bnez	v0,2f24 <_vfprintf_r+0x2b18>
    2ef4:	00000000 	nop
    2ef8:	27c200b8 	addiu	v0,s8,184
    2efc:	8fc401f8 	lw	a0,504(s8)
    2f00:	8fc501fc 	lw	a1,508(s8)
    2f04:	00403021 	move	a2,v0
    2f08:	0c00352c 	jal	d4b0 <__sprint_r>
    2f0c:	00000000 	nop
    2f10:	10400003 	beqz	v0,2f20 <_vfprintf_r+0x2b14>
    2f14:	00000000 	nop
    2f18:	08000da1 	j	3684 <_vfprintf_r+0x3278>
    2f1c:	00000000 	nop
    2f20:	27d100c4 	addiu	s1,s8,196
    2f24:	8fc300b4 	lw	v1,180(s8)
    2f28:	8fc200a8 	lw	v0,168(s8)
    2f2c:	00000000 	nop
    2f30:	00621823 	subu	v1,v1,v0
    2f34:	8fc20080 	lw	v0,128(s8)
    2f38:	00000000 	nop
    2f3c:	04410002 	bgez	v0,2f48 <_vfprintf_r+0x2b3c>
    2f40:	00000000 	nop
    2f44:	00001021 	move	v0,zero
    2f48:	00621023 	subu	v0,v1,v0
    2f4c:	afc20080 	sw	v0,128(s8)
    2f50:	8fc20080 	lw	v0,128(s8)
    2f54:	00000000 	nop
    2f58:	1840004c 	blez	v0,308c <_vfprintf_r+0x2c80>
    2f5c:	00000000 	nop
    2f60:	08000bfc 	j	2ff0 <_vfprintf_r+0x2be4>
    2f64:	00000000 	nop
    2f68:	3c020001 	lui	v0,0x1
    2f6c:	24424c38 	addiu	v0,v0,19512
    2f70:	ae220000 	sw	v0,0(s1)
    2f74:	24020010 	li	v0,16
    2f78:	ae220004 	sw	v0,4(s1)
    2f7c:	8fc200c0 	lw	v0,192(s8)
    2f80:	00000000 	nop
    2f84:	24420010 	addiu	v0,v0,16
    2f88:	afc200c0 	sw	v0,192(s8)
    2f8c:	26310008 	addiu	s1,s1,8
    2f90:	8fc200bc 	lw	v0,188(s8)
    2f94:	00000000 	nop
    2f98:	24420001 	addiu	v0,v0,1
    2f9c:	afc200bc 	sw	v0,188(s8)
    2fa0:	8fc200bc 	lw	v0,188(s8)
    2fa4:	00000000 	nop
    2fa8:	28420008 	slti	v0,v0,8
    2fac:	1440000c 	bnez	v0,2fe0 <_vfprintf_r+0x2bd4>
    2fb0:	00000000 	nop
    2fb4:	27c200b8 	addiu	v0,s8,184
    2fb8:	8fc401f8 	lw	a0,504(s8)
    2fbc:	8fc501fc 	lw	a1,508(s8)
    2fc0:	00403021 	move	a2,v0
    2fc4:	0c00352c 	jal	d4b0 <__sprint_r>
    2fc8:	00000000 	nop
    2fcc:	10400003 	beqz	v0,2fdc <_vfprintf_r+0x2bd0>
    2fd0:	00000000 	nop
    2fd4:	08000da1 	j	3684 <_vfprintf_r+0x3278>
    2fd8:	00000000 	nop
    2fdc:	27d100c4 	addiu	s1,s8,196
    2fe0:	8fc20080 	lw	v0,128(s8)
    2fe4:	00000000 	nop
    2fe8:	2442fff0 	addiu	v0,v0,-16
    2fec:	afc20080 	sw	v0,128(s8)
    2ff0:	8fc20080 	lw	v0,128(s8)
    2ff4:	00000000 	nop
    2ff8:	28420011 	slti	v0,v0,17
    2ffc:	1040ffda 	beqz	v0,2f68 <_vfprintf_r+0x2b5c>
    3000:	00000000 	nop
    3004:	3c020001 	lui	v0,0x1
    3008:	24424c38 	addiu	v0,v0,19512
    300c:	ae220000 	sw	v0,0(s1)
    3010:	8fc20080 	lw	v0,128(s8)
    3014:	00000000 	nop
    3018:	ae220004 	sw	v0,4(s1)
    301c:	8fc300c0 	lw	v1,192(s8)
    3020:	8fc20080 	lw	v0,128(s8)
    3024:	00000000 	nop
    3028:	00621021 	addu	v0,v1,v0
    302c:	afc200c0 	sw	v0,192(s8)
    3030:	26310008 	addiu	s1,s1,8
    3034:	8fc200bc 	lw	v0,188(s8)
    3038:	00000000 	nop
    303c:	24420001 	addiu	v0,v0,1
    3040:	afc200bc 	sw	v0,188(s8)
    3044:	8fc200bc 	lw	v0,188(s8)
    3048:	00000000 	nop
    304c:	28420008 	slti	v0,v0,8
    3050:	1440000e 	bnez	v0,308c <_vfprintf_r+0x2c80>
    3054:	00000000 	nop
    3058:	27c200b8 	addiu	v0,s8,184
    305c:	8fc401f8 	lw	a0,504(s8)
    3060:	8fc501fc 	lw	a1,508(s8)
    3064:	00403021 	move	a2,v0
    3068:	0c00352c 	jal	d4b0 <__sprint_r>
    306c:	00000000 	nop
    3070:	10400003 	beqz	v0,3080 <_vfprintf_r+0x2c74>
    3074:	00000000 	nop
    3078:	08000da1 	j	3684 <_vfprintf_r+0x3278>
    307c:	00000000 	nop
    3080:	27d100c4 	addiu	s1,s8,196
    3084:	08000d1e 	j	3478 <_vfprintf_r+0x306c>
    3088:	00000000 	nop
    308c:	08000d1e 	j	3478 <_vfprintf_r+0x306c>
    3090:	00000000 	nop
    3094:	8fc200b4 	lw	v0,180(s8)
    3098:	00000000 	nop
    309c:	28420002 	slti	v0,v0,2
    30a0:	10400004 	beqz	v0,30b4 <_vfprintf_r+0x2ca8>
    30a4:	00000000 	nop
    30a8:	32620001 	andi	v0,s3,0x1
    30ac:	104000b7 	beqz	v0,338c <_vfprintf_r+0x2f80>
    30b0:	00000000 	nop
    30b4:	ae320000 	sw	s2,0(s1)
    30b8:	24020001 	li	v0,1
    30bc:	ae220004 	sw	v0,4(s1)
    30c0:	8fc200c0 	lw	v0,192(s8)
    30c4:	00000000 	nop
    30c8:	24420001 	addiu	v0,v0,1
    30cc:	afc200c0 	sw	v0,192(s8)
    30d0:	26310008 	addiu	s1,s1,8
    30d4:	8fc200bc 	lw	v0,188(s8)
    30d8:	00000000 	nop
    30dc:	24420001 	addiu	v0,v0,1
    30e0:	afc200bc 	sw	v0,188(s8)
    30e4:	8fc200bc 	lw	v0,188(s8)
    30e8:	00000000 	nop
    30ec:	28420008 	slti	v0,v0,8
    30f0:	1440000c 	bnez	v0,3124 <_vfprintf_r+0x2d18>
    30f4:	00000000 	nop
    30f8:	27c200b8 	addiu	v0,s8,184
    30fc:	8fc401f8 	lw	a0,504(s8)
    3100:	8fc501fc 	lw	a1,508(s8)
    3104:	00403021 	move	a2,v0
    3108:	0c00352c 	jal	d4b0 <__sprint_r>
    310c:	00000000 	nop
    3110:	10400003 	beqz	v0,3120 <_vfprintf_r+0x2d14>
    3114:	00000000 	nop
    3118:	08000da1 	j	3684 <_vfprintf_r+0x3278>
    311c:	00000000 	nop
    3120:	27d100c4 	addiu	s1,s8,196
    3124:	26520001 	addiu	s2,s2,1
    3128:	8fc20084 	lw	v0,132(s8)
    312c:	00000000 	nop
    3130:	ae220000 	sw	v0,0(s1)
    3134:	8fc20088 	lw	v0,136(s8)
    3138:	00000000 	nop
    313c:	ae220004 	sw	v0,4(s1)
    3140:	8fc200c0 	lw	v0,192(s8)
    3144:	00000000 	nop
    3148:	00401821 	move	v1,v0
    314c:	8fc20088 	lw	v0,136(s8)
    3150:	00000000 	nop
    3154:	00621021 	addu	v0,v1,v0
    3158:	afc200c0 	sw	v0,192(s8)
    315c:	26310008 	addiu	s1,s1,8
    3160:	8fc200bc 	lw	v0,188(s8)
    3164:	00000000 	nop
    3168:	24420001 	addiu	v0,v0,1
    316c:	afc200bc 	sw	v0,188(s8)
    3170:	8fc200bc 	lw	v0,188(s8)
    3174:	00000000 	nop
    3178:	28420008 	slti	v0,v0,8
    317c:	1440000c 	bnez	v0,31b0 <_vfprintf_r+0x2da4>
    3180:	00000000 	nop
    3184:	27c200b8 	addiu	v0,s8,184
    3188:	8fc401f8 	lw	a0,504(s8)
    318c:	8fc501fc 	lw	a1,508(s8)
    3190:	00403021 	move	a2,v0
    3194:	0c00352c 	jal	d4b0 <__sprint_r>
    3198:	00000000 	nop
    319c:	10400003 	beqz	v0,31ac <_vfprintf_r+0x2da0>
    31a0:	00000000 	nop
    31a4:	08000da1 	j	3684 <_vfprintf_r+0x3278>
    31a8:	00000000 	nop
    31ac:	27d100c4 	addiu	s1,s8,196
    31b0:	8fc300a4 	lw	v1,164(s8)
    31b4:	8fc200a0 	lw	v0,160(s8)
    31b8:	00602821 	move	a1,v1
    31bc:	00402021 	move	a0,v0
    31c0:	00003821 	move	a3,zero
    31c4:	00003021 	move	a2,zero
    31c8:	0c004ff4 	jal	13fd0 <__nedf2>
    31cc:	00000000 	nop
    31d0:	10400023 	beqz	v0,3260 <_vfprintf_r+0x2e54>
    31d4:	00000000 	nop
    31d8:	ae320000 	sw	s2,0(s1)
    31dc:	8fc200b4 	lw	v0,180(s8)
    31e0:	00000000 	nop
    31e4:	2442ffff 	addiu	v0,v0,-1
    31e8:	ae220004 	sw	v0,4(s1)
    31ec:	8fc300c0 	lw	v1,192(s8)
    31f0:	8fc200b4 	lw	v0,180(s8)
    31f4:	00000000 	nop
    31f8:	2442ffff 	addiu	v0,v0,-1
    31fc:	00621021 	addu	v0,v1,v0
    3200:	afc200c0 	sw	v0,192(s8)
    3204:	26310008 	addiu	s1,s1,8
    3208:	8fc200bc 	lw	v0,188(s8)
    320c:	00000000 	nop
    3210:	24420001 	addiu	v0,v0,1
    3214:	afc200bc 	sw	v0,188(s8)
    3218:	8fc200bc 	lw	v0,188(s8)
    321c:	00000000 	nop
    3220:	28420008 	slti	v0,v0,8
    3224:	14400057 	bnez	v0,3384 <_vfprintf_r+0x2f78>
    3228:	00000000 	nop
    322c:	27c200b8 	addiu	v0,s8,184
    3230:	8fc401f8 	lw	a0,504(s8)
    3234:	8fc501fc 	lw	a1,508(s8)
    3238:	00403021 	move	a2,v0
    323c:	0c00352c 	jal	d4b0 <__sprint_r>
    3240:	00000000 	nop
    3244:	10400003 	beqz	v0,3254 <_vfprintf_r+0x2e48>
    3248:	00000000 	nop
    324c:	08000da1 	j	3684 <_vfprintf_r+0x3278>
    3250:	00000000 	nop
    3254:	27d100c4 	addiu	s1,s8,196
    3258:	08000cff 	j	33fc <_vfprintf_r+0x2ff0>
    325c:	00000000 	nop
    3260:	8fc200b4 	lw	v0,180(s8)
    3264:	00000000 	nop
    3268:	2450ffff 	addiu	s0,v0,-1
    326c:	1a000045 	blez	s0,3384 <_vfprintf_r+0x2f78>
    3270:	00000000 	nop
    3274:	08000cbe 	j	32f8 <_vfprintf_r+0x2eec>
    3278:	00000000 	nop
    327c:	3c020001 	lui	v0,0x1
    3280:	24424c38 	addiu	v0,v0,19512
    3284:	ae220000 	sw	v0,0(s1)
    3288:	24020010 	li	v0,16
    328c:	ae220004 	sw	v0,4(s1)
    3290:	8fc200c0 	lw	v0,192(s8)
    3294:	00000000 	nop
    3298:	24420010 	addiu	v0,v0,16
    329c:	afc200c0 	sw	v0,192(s8)
    32a0:	26310008 	addiu	s1,s1,8
    32a4:	8fc200bc 	lw	v0,188(s8)
    32a8:	00000000 	nop
    32ac:	24420001 	addiu	v0,v0,1
    32b0:	afc200bc 	sw	v0,188(s8)
    32b4:	8fc200bc 	lw	v0,188(s8)
    32b8:	00000000 	nop
    32bc:	28420008 	slti	v0,v0,8
    32c0:	1440000c 	bnez	v0,32f4 <_vfprintf_r+0x2ee8>
    32c4:	00000000 	nop
    32c8:	27c200b8 	addiu	v0,s8,184
    32cc:	8fc401f8 	lw	a0,504(s8)
    32d0:	8fc501fc 	lw	a1,508(s8)
    32d4:	00403021 	move	a2,v0
    32d8:	0c00352c 	jal	d4b0 <__sprint_r>
    32dc:	00000000 	nop
    32e0:	10400003 	beqz	v0,32f0 <_vfprintf_r+0x2ee4>
    32e4:	00000000 	nop
    32e8:	08000da1 	j	3684 <_vfprintf_r+0x3278>
    32ec:	00000000 	nop
    32f0:	27d100c4 	addiu	s1,s8,196
    32f4:	2610fff0 	addiu	s0,s0,-16
    32f8:	2a020011 	slti	v0,s0,17
    32fc:	1040ffdf 	beqz	v0,327c <_vfprintf_r+0x2e70>
    3300:	00000000 	nop
    3304:	3c020001 	lui	v0,0x1
    3308:	24424c38 	addiu	v0,v0,19512
    330c:	ae220000 	sw	v0,0(s1)
    3310:	02001021 	move	v0,s0
    3314:	ae220004 	sw	v0,4(s1)
    3318:	8fc200c0 	lw	v0,192(s8)
    331c:	00000000 	nop
    3320:	00501021 	addu	v0,v0,s0
    3324:	afc200c0 	sw	v0,192(s8)
    3328:	26310008 	addiu	s1,s1,8
    332c:	8fc200bc 	lw	v0,188(s8)
    3330:	00000000 	nop
    3334:	24420001 	addiu	v0,v0,1
    3338:	afc200bc 	sw	v0,188(s8)
    333c:	8fc200bc 	lw	v0,188(s8)
    3340:	00000000 	nop
    3344:	28420008 	slti	v0,v0,8
    3348:	1440000e 	bnez	v0,3384 <_vfprintf_r+0x2f78>
    334c:	00000000 	nop
    3350:	27c200b8 	addiu	v0,s8,184
    3354:	8fc401f8 	lw	a0,504(s8)
    3358:	8fc501fc 	lw	a1,508(s8)
    335c:	00403021 	move	a2,v0
    3360:	0c00352c 	jal	d4b0 <__sprint_r>
    3364:	00000000 	nop
    3368:	10400003 	beqz	v0,3378 <_vfprintf_r+0x2f6c>
    336c:	00000000 	nop
    3370:	08000da1 	j	3684 <_vfprintf_r+0x3278>
    3374:	00000000 	nop
    3378:	27d100c4 	addiu	s1,s8,196
    337c:	08000cff 	j	33fc <_vfprintf_r+0x2ff0>
    3380:	00000000 	nop
    3384:	08000cff 	j	33fc <_vfprintf_r+0x2ff0>
    3388:	00000000 	nop
    338c:	ae320000 	sw	s2,0(s1)
    3390:	24020001 	li	v0,1
    3394:	ae220004 	sw	v0,4(s1)
    3398:	8fc200c0 	lw	v0,192(s8)
    339c:	00000000 	nop
    33a0:	24420001 	addiu	v0,v0,1
    33a4:	afc200c0 	sw	v0,192(s8)
    33a8:	26310008 	addiu	s1,s1,8
    33ac:	8fc200bc 	lw	v0,188(s8)
    33b0:	00000000 	nop
    33b4:	24420001 	addiu	v0,v0,1
    33b8:	afc200bc 	sw	v0,188(s8)
    33bc:	8fc200bc 	lw	v0,188(s8)
    33c0:	00000000 	nop
    33c4:	28420008 	slti	v0,v0,8
    33c8:	1440000c 	bnez	v0,33fc <_vfprintf_r+0x2ff0>
    33cc:	00000000 	nop
    33d0:	27c200b8 	addiu	v0,s8,184
    33d4:	8fc401f8 	lw	a0,504(s8)
    33d8:	8fc501fc 	lw	a1,508(s8)
    33dc:	00403021 	move	a2,v0
    33e0:	0c00352c 	jal	d4b0 <__sprint_r>
    33e4:	00000000 	nop
    33e8:	10400003 	beqz	v0,33f8 <_vfprintf_r+0x2fec>
    33ec:	00000000 	nop
    33f0:	08000da1 	j	3684 <_vfprintf_r+0x3278>
    33f4:	00000000 	nop
    33f8:	27d100c4 	addiu	s1,s8,196
    33fc:	27c200ac 	addiu	v0,s8,172
    3400:	ae220000 	sw	v0,0(s1)
    3404:	8fc20048 	lw	v0,72(s8)
    3408:	00000000 	nop
    340c:	ae220004 	sw	v0,4(s1)
    3410:	8fc300c0 	lw	v1,192(s8)
    3414:	8fc20048 	lw	v0,72(s8)
    3418:	00000000 	nop
    341c:	00621021 	addu	v0,v1,v0
    3420:	afc200c0 	sw	v0,192(s8)
    3424:	26310008 	addiu	s1,s1,8
    3428:	8fc200bc 	lw	v0,188(s8)
    342c:	00000000 	nop
    3430:	24420001 	addiu	v0,v0,1
    3434:	afc200bc 	sw	v0,188(s8)
    3438:	8fc200bc 	lw	v0,188(s8)
    343c:	00000000 	nop
    3440:	28420008 	slti	v0,v0,8
    3444:	1440000c 	bnez	v0,3478 <_vfprintf_r+0x306c>
    3448:	00000000 	nop
    344c:	27c200b8 	addiu	v0,s8,184
    3450:	8fc401f8 	lw	a0,504(s8)
    3454:	8fc501fc 	lw	a1,508(s8)
    3458:	00403021 	move	a2,v0
    345c:	0c00352c 	jal	d4b0 <__sprint_r>
    3460:	00000000 	nop
    3464:	10400003 	beqz	v0,3474 <_vfprintf_r+0x3068>
    3468:	00000000 	nop
    346c:	08000da1 	j	3684 <_vfprintf_r+0x3278>
    3470:	00000000 	nop
    3474:	27d100c4 	addiu	s1,s8,196
    3478:	32620004 	andi	v0,s3,0x4
    347c:	10400049 	beqz	v0,35a4 <_vfprintf_r+0x3198>
    3480:	00000000 	nop
    3484:	8fc30034 	lw	v1,52(s8)
    3488:	8fc20068 	lw	v0,104(s8)
    348c:	00000000 	nop
    3490:	00628023 	subu	s0,v1,v0
    3494:	1a000043 	blez	s0,35a4 <_vfprintf_r+0x3198>
    3498:	00000000 	nop
    349c:	08000d48 	j	3520 <_vfprintf_r+0x3114>
    34a0:	00000000 	nop
    34a4:	3c020001 	lui	v0,0x1
    34a8:	24424c28 	addiu	v0,v0,19496
    34ac:	ae220000 	sw	v0,0(s1)
    34b0:	24020010 	li	v0,16
    34b4:	ae220004 	sw	v0,4(s1)
    34b8:	8fc200c0 	lw	v0,192(s8)
    34bc:	00000000 	nop
    34c0:	24420010 	addiu	v0,v0,16
    34c4:	afc200c0 	sw	v0,192(s8)
    34c8:	26310008 	addiu	s1,s1,8
    34cc:	8fc200bc 	lw	v0,188(s8)
    34d0:	00000000 	nop
    34d4:	24420001 	addiu	v0,v0,1
    34d8:	afc200bc 	sw	v0,188(s8)
    34dc:	8fc200bc 	lw	v0,188(s8)
    34e0:	00000000 	nop
    34e4:	28420008 	slti	v0,v0,8
    34e8:	1440000c 	bnez	v0,351c <_vfprintf_r+0x3110>
    34ec:	00000000 	nop
    34f0:	27c200b8 	addiu	v0,s8,184
    34f4:	8fc401f8 	lw	a0,504(s8)
    34f8:	8fc501fc 	lw	a1,508(s8)
    34fc:	00403021 	move	a2,v0
    3500:	0c00352c 	jal	d4b0 <__sprint_r>
    3504:	00000000 	nop
    3508:	10400003 	beqz	v0,3518 <_vfprintf_r+0x310c>
    350c:	00000000 	nop
    3510:	08000da1 	j	3684 <_vfprintf_r+0x3278>
    3514:	00000000 	nop
    3518:	27d100c4 	addiu	s1,s8,196
    351c:	2610fff0 	addiu	s0,s0,-16
    3520:	2a020011 	slti	v0,s0,17
    3524:	1040ffdf 	beqz	v0,34a4 <_vfprintf_r+0x3098>
    3528:	00000000 	nop
    352c:	3c020001 	lui	v0,0x1
    3530:	24424c28 	addiu	v0,v0,19496
    3534:	ae220000 	sw	v0,0(s1)
    3538:	02001021 	move	v0,s0
    353c:	ae220004 	sw	v0,4(s1)
    3540:	8fc200c0 	lw	v0,192(s8)
    3544:	00000000 	nop
    3548:	00501021 	addu	v0,v0,s0
    354c:	afc200c0 	sw	v0,192(s8)
    3550:	26310008 	addiu	s1,s1,8
    3554:	8fc200bc 	lw	v0,188(s8)
    3558:	00000000 	nop
    355c:	24420001 	addiu	v0,v0,1
    3560:	afc200bc 	sw	v0,188(s8)
    3564:	8fc200bc 	lw	v0,188(s8)
    3568:	00000000 	nop
    356c:	28420008 	slti	v0,v0,8
    3570:	1440000c 	bnez	v0,35a4 <_vfprintf_r+0x3198>
    3574:	00000000 	nop
    3578:	27c200b8 	addiu	v0,s8,184
    357c:	8fc401f8 	lw	a0,504(s8)
    3580:	8fc501fc 	lw	a1,508(s8)
    3584:	00403021 	move	a2,v0
    3588:	0c00352c 	jal	d4b0 <__sprint_r>
    358c:	00000000 	nop
    3590:	10400003 	beqz	v0,35a0 <_vfprintf_r+0x3194>
    3594:	00000000 	nop
    3598:	08000da1 	j	3684 <_vfprintf_r+0x3278>
    359c:	00000000 	nop
    35a0:	27d100c4 	addiu	s1,s8,196
    35a4:	8fc40034 	lw	a0,52(s8)
    35a8:	8fc30068 	lw	v1,104(s8)
    35ac:	00000000 	nop
    35b0:	0064102a 	slt	v0,v1,a0
    35b4:	10400002 	beqz	v0,35c0 <_vfprintf_r+0x31b4>
    35b8:	00000000 	nop
    35bc:	00801821 	move	v1,a0
    35c0:	8fc20030 	lw	v0,48(s8)
    35c4:	00000000 	nop
    35c8:	00431021 	addu	v0,v0,v1
    35cc:	afc20030 	sw	v0,48(s8)
    35d0:	8fc200c0 	lw	v0,192(s8)
    35d4:	00000000 	nop
    35d8:	1040000b 	beqz	v0,3608 <_vfprintf_r+0x31fc>
    35dc:	00000000 	nop
    35e0:	27c200b8 	addiu	v0,s8,184
    35e4:	8fc401f8 	lw	a0,504(s8)
    35e8:	8fc501fc 	lw	a1,508(s8)
    35ec:	00403021 	move	a2,v0
    35f0:	0c00352c 	jal	d4b0 <__sprint_r>
    35f4:	00000000 	nop
    35f8:	10400003 	beqz	v0,3608 <_vfprintf_r+0x31fc>
    35fc:	00000000 	nop
    3600:	08000da1 	j	3684 <_vfprintf_r+0x3278>
    3604:	00000000 	nop
    3608:	afc000bc 	sw	zero,188(s8)
    360c:	27d100c4 	addiu	s1,s8,196
    3610:	8fc20074 	lw	v0,116(s8)
    3614:	00000000 	nop
    3618:	10400008 	beqz	v0,363c <_vfprintf_r+0x3230>
    361c:	00000000 	nop
    3620:	8fc401f8 	lw	a0,504(s8)
    3624:	8fc50074 	lw	a1,116(s8)
    3628:	0c001d5a 	jal	7568 <_free_r>
    362c:	00000000 	nop
    3630:	afc00074 	sw	zero,116(s8)
    3634:	08000180 	j	600 <_vfprintf_r+0x1f4>
    3638:	00000000 	nop
    363c:	08000180 	j	600 <_vfprintf_r+0x1f4>
    3640:	00000000 	nop
    3644:	8fc200c0 	lw	v0,192(s8)
    3648:	00000000 	nop
    364c:	1040000b 	beqz	v0,367c <_vfprintf_r+0x3270>
    3650:	00000000 	nop
    3654:	27c200b8 	addiu	v0,s8,184
    3658:	8fc401f8 	lw	a0,504(s8)
    365c:	8fc501fc 	lw	a1,508(s8)
    3660:	00403021 	move	a2,v0
    3664:	0c00352c 	jal	d4b0 <__sprint_r>
    3668:	00000000 	nop
    366c:	10400003 	beqz	v0,367c <_vfprintf_r+0x3270>
    3670:	00000000 	nop
    3674:	08000da1 	j	3684 <_vfprintf_r+0x3278>
    3678:	00000000 	nop
    367c:	afc000bc 	sw	zero,188(s8)
    3680:	27d100c4 	addiu	s1,s8,196
    3684:	8fc20074 	lw	v0,116(s8)
    3688:	00000000 	nop
    368c:	10400005 	beqz	v0,36a4 <_vfprintf_r+0x3298>
    3690:	00000000 	nop
    3694:	8fc401f8 	lw	a0,504(s8)
    3698:	8fc50074 	lw	a1,116(s8)
    369c:	0c001d5a 	jal	7568 <_free_r>
    36a0:	00000000 	nop
    36a4:	8fc201fc 	lw	v0,508(s8)
    36a8:	00000000 	nop
    36ac:	8442000c 	lh	v0,12(v0)
    36b0:	00000000 	nop
    36b4:	3042ffff 	andi	v0,v0,0xffff
    36b8:	30420040 	andi	v0,v0,0x40
    36bc:	14400004 	bnez	v0,36d0 <_vfprintf_r+0x32c4>
    36c0:	00000000 	nop
    36c4:	8fc20030 	lw	v0,48(s8)
    36c8:	08000db5 	j	36d4 <_vfprintf_r+0x32c8>
    36cc:	00000000 	nop
    36d0:	2402ffff 	li	v0,-1
    36d4:	03c0e821 	move	sp,s8
    36d8:	8fbf01f4 	lw	ra,500(sp)
    36dc:	8fbe01f0 	lw	s8,496(sp)
    36e0:	8fb701ec 	lw	s7,492(sp)
    36e4:	8fb601e8 	lw	s6,488(sp)
    36e8:	8fb501e4 	lw	s5,484(sp)
    36ec:	8fb401e0 	lw	s4,480(sp)
    36f0:	8fb301dc 	lw	s3,476(sp)
    36f4:	8fb201d8 	lw	s2,472(sp)
    36f8:	8fb101d4 	lw	s1,468(sp)
    36fc:	8fb001d0 	lw	s0,464(sp)
    3700:	27bd01f8 	addiu	sp,sp,504
    3704:	03e00008 	jr	ra
    3708:	00000000 	nop

0000370c <cvt>:
    370c:	27bdffb0 	addiu	sp,sp,-80
    3710:	afbf004c 	sw	ra,76(sp)
    3714:	afbe0048 	sw	s8,72(sp)
    3718:	03a0f021 	move	s8,sp
    371c:	afc40050 	sw	a0,80(s8)
    3720:	afc7005c 	sw	a3,92(s8)
    3724:	afc60058 	sw	a2,88(s8)
    3728:	8fc3005c 	lw	v1,92(s8)
    372c:	8fc20058 	lw	v0,88(s8)
    3730:	afc30044 	sw	v1,68(s8)
    3734:	afc20040 	sw	v0,64(s8)
    3738:	8fc20040 	lw	v0,64(s8)
    373c:	00000000 	nop
    3740:	0441000d 	bgez	v0,3778 <cvt+0x6c>
    3744:	00000000 	nop
    3748:	8fc30058 	lw	v1,88(s8)
    374c:	3c028000 	lui	v0,0x8000
    3750:	00621026 	xor	v0,v1,v0
    3754:	afc20058 	sw	v0,88(s8)
    3758:	8fc2005c 	lw	v0,92(s8)
    375c:	00000000 	nop
    3760:	afc2005c 	sw	v0,92(s8)
    3764:	8fc20068 	lw	v0,104(s8)
    3768:	2403002d 	li	v1,45
    376c:	a0430000 	sb	v1,0(v0)
    3770:	08000de1 	j	3784 <cvt+0x78>
    3774:	00000000 	nop
    3778:	8fc20068 	lw	v0,104(s8)
    377c:	00000000 	nop
    3780:	a0400000 	sb	zero,0(v0)
    3784:	8fc30070 	lw	v1,112(s8)
    3788:	24020061 	li	v0,97
    378c:	10620005 	beq	v1,v0,37a4 <cvt+0x98>
    3790:	00000000 	nop
    3794:	8fc30070 	lw	v1,112(s8)
    3798:	24020041 	li	v0,65
    379c:	146200b5 	bne	v1,v0,3a74 <cvt+0x368>
    37a0:	00000000 	nop
    37a4:	8fc5005c 	lw	a1,92(s8)
    37a8:	8fc40058 	lw	a0,88(s8)
    37ac:	8fc6006c 	lw	a2,108(s8)
    37b0:	0c0031ff 	jal	c7fc <frexp>
    37b4:	00000000 	nop
    37b8:	00602821 	move	a1,v1
    37bc:	00402021 	move	a0,v0
    37c0:	8f87800c 	lw	a3,-32756(gp)
    37c4:	8f868008 	lw	a2,-32760(gp)
    37c8:	0c004f53 	jal	13d4c <__divdf3>
    37cc:	00000000 	nop
    37d0:	afc3005c 	sw	v1,92(s8)
    37d4:	afc20058 	sw	v0,88(s8)
    37d8:	8fc5005c 	lw	a1,92(s8)
    37dc:	8fc40058 	lw	a0,88(s8)
    37e0:	00003821 	move	a3,zero
    37e4:	00003021 	move	a2,zero
    37e8:	0c004fd6 	jal	13f58 <__eqdf2>
    37ec:	00000000 	nop
    37f0:	14400004 	bnez	v0,3804 <cvt+0xf8>
    37f4:	00000000 	nop
    37f8:	8fc2006c 	lw	v0,108(s8)
    37fc:	24030001 	li	v1,1
    3800:	ac430000 	sw	v1,0(v0)
    3804:	8fc30070 	lw	v1,112(s8)
    3808:	24020061 	li	v0,97
    380c:	14620005 	bne	v1,v0,3824 <cvt+0x118>
    3810:	00000000 	nop
    3814:	3c020001 	lui	v0,0x1
    3818:	24424a6c 	addiu	v0,v0,19052
    381c:	08000e0b 	j	382c <cvt+0x120>
    3820:	00000000 	nop
    3824:	3c020001 	lui	v0,0x1
    3828:	24424a88 	addiu	v0,v0,19080
    382c:	afc20030 	sw	v0,48(s8)
    3830:	8fc20078 	lw	v0,120(s8)
    3834:	00000000 	nop
    3838:	afc2002c 	sw	v0,44(s8)
    383c:	8fc5005c 	lw	a1,92(s8)
    3840:	8fc40058 	lw	a0,88(s8)
    3844:	8f878014 	lw	a3,-32748(gp)
    3848:	8f868010 	lw	a2,-32752(gp)
    384c:	0c004e98 	jal	13a60 <__muldf3>
    3850:	00000000 	nop
    3854:	afc3005c 	sw	v1,92(s8)
    3858:	afc20058 	sw	v0,88(s8)
    385c:	8fc5005c 	lw	a1,92(s8)
    3860:	8fc40058 	lw	a0,88(s8)
    3864:	0c0050a4 	jal	14290 <__fixdfsi>
    3868:	00000000 	nop
    386c:	afc20028 	sw	v0,40(s8)
    3870:	8fc40028 	lw	a0,40(s8)
    3874:	0c00506c 	jal	141b0 <__floatsidf>
    3878:	00000000 	nop
    387c:	8fc5005c 	lw	a1,92(s8)
    3880:	8fc40058 	lw	a0,88(s8)
    3884:	00603821 	move	a3,v1
    3888:	00403021 	move	a2,v0
    388c:	0c004e7f 	jal	139fc <__subdf3>
    3890:	00000000 	nop
    3894:	afc3005c 	sw	v1,92(s8)
    3898:	afc20058 	sw	v0,88(s8)
    389c:	8fc2002c 	lw	v0,44(s8)
    38a0:	00000000 	nop
    38a4:	24430001 	addiu	v1,v0,1
    38a8:	afc3002c 	sw	v1,44(s8)
    38ac:	8fc30028 	lw	v1,40(s8)
    38b0:	8fc40030 	lw	a0,48(s8)
    38b4:	00000000 	nop
    38b8:	00831821 	addu	v1,a0,v1
    38bc:	80630000 	lb	v1,0(v1)
    38c0:	00000000 	nop
    38c4:	a0430000 	sb	v1,0(v0)
    38c8:	8fc20060 	lw	v0,96(s8)
    38cc:	00000000 	nop
    38d0:	2443ffff 	addiu	v1,v0,-1
    38d4:	afc30060 	sw	v1,96(s8)
    38d8:	10400009 	beqz	v0,3900 <cvt+0x1f4>
    38dc:	00000000 	nop
    38e0:	8fc5005c 	lw	a1,92(s8)
    38e4:	8fc40058 	lw	a0,88(s8)
    38e8:	00003821 	move	a3,zero
    38ec:	00003021 	move	a2,zero
    38f0:	0c004ff4 	jal	13fd0 <__nedf2>
    38f4:	00000000 	nop
    38f8:	1440ffd0 	bnez	v0,383c <cvt+0x130>
    38fc:	00000000 	nop
    3900:	8fc5005c 	lw	a1,92(s8)
    3904:	8fc40058 	lw	a0,88(s8)
    3908:	8f87801c 	lw	a3,-32740(gp)
    390c:	8f868018 	lw	a2,-32744(gp)
    3910:	0c005012 	jal	14048 <__gtdf2>
    3914:	00000000 	nop
    3918:	1c400010 	bgtz	v0,395c <cvt+0x250>
    391c:	00000000 	nop
    3920:	8fc5005c 	lw	a1,92(s8)
    3924:	8fc40058 	lw	a0,88(s8)
    3928:	8f87801c 	lw	a3,-32740(gp)
    392c:	8f868018 	lw	a2,-32744(gp)
    3930:	0c004fd6 	jal	13f58 <__eqdf2>
    3934:	00000000 	nop
    3938:	10400003 	beqz	v0,3948 <cvt+0x23c>
    393c:	00000000 	nop
    3940:	08000e8d 	j	3a34 <cvt+0x328>
    3944:	00000000 	nop
    3948:	8fc20028 	lw	v0,40(s8)
    394c:	00000000 	nop
    3950:	30420001 	andi	v0,v0,0x1
    3954:	1040002f 	beqz	v0,3a14 <cvt+0x308>
    3958:	00000000 	nop
    395c:	8fc2002c 	lw	v0,44(s8)
    3960:	00000000 	nop
    3964:	afc20038 	sw	v0,56(s8)
    3968:	08000e5f 	j	397c <cvt+0x270>
    396c:	00000000 	nop
    3970:	8fc20038 	lw	v0,56(s8)
    3974:	24030030 	li	v1,48
    3978:	a0430000 	sb	v1,0(v0)
    397c:	8fc20038 	lw	v0,56(s8)
    3980:	00000000 	nop
    3984:	2442ffff 	addiu	v0,v0,-1
    3988:	afc20038 	sw	v0,56(s8)
    398c:	8fc20038 	lw	v0,56(s8)
    3990:	00000000 	nop
    3994:	80430000 	lb	v1,0(v0)
    3998:	8fc20030 	lw	v0,48(s8)
    399c:	00000000 	nop
    39a0:	2442000f 	addiu	v0,v0,15
    39a4:	80420000 	lb	v0,0(v0)
    39a8:	00000000 	nop
    39ac:	1062fff0 	beq	v1,v0,3970 <cvt+0x264>
    39b0:	00000000 	nop
    39b4:	8fc30038 	lw	v1,56(s8)
    39b8:	8fc20038 	lw	v0,56(s8)
    39bc:	00000000 	nop
    39c0:	80440000 	lb	a0,0(v0)
    39c4:	24020039 	li	v0,57
    39c8:	14820006 	bne	a0,v0,39e4 <cvt+0x2d8>
    39cc:	00000000 	nop
    39d0:	8fc20030 	lw	v0,48(s8)
    39d4:	00000000 	nop
    39d8:	8042000a 	lb	v0,10(v0)
    39dc:	08000e82 	j	3a08 <cvt+0x2fc>
    39e0:	00000000 	nop
    39e4:	8fc20038 	lw	v0,56(s8)
    39e8:	00000000 	nop
    39ec:	80420000 	lb	v0,0(v0)
    39f0:	00000000 	nop
    39f4:	304200ff 	andi	v0,v0,0xff
    39f8:	24420001 	addiu	v0,v0,1
    39fc:	304200ff 	andi	v0,v0,0xff
    3a00:	00021600 	sll	v0,v0,0x18
    3a04:	00021603 	sra	v0,v0,0x18
    3a08:	a0620000 	sb	v0,0(v1)
    3a0c:	08000e93 	j	3a4c <cvt+0x340>
    3a10:	00000000 	nop
    3a14:	08000e8d 	j	3a34 <cvt+0x328>
    3a18:	00000000 	nop
    3a1c:	8fc2002c 	lw	v0,44(s8)
    3a20:	00000000 	nop
    3a24:	24430001 	addiu	v1,v0,1
    3a28:	afc3002c 	sw	v1,44(s8)
    3a2c:	24030030 	li	v1,48
    3a30:	a0430000 	sb	v1,0(v0)
    3a34:	8fc20060 	lw	v0,96(s8)
    3a38:	00000000 	nop
    3a3c:	2443ffff 	addiu	v1,v0,-1
    3a40:	afc30060 	sw	v1,96(s8)
    3a44:	0441fff5 	bgez	v0,3a1c <cvt+0x310>
    3a48:	00000000 	nop
    3a4c:	8fc3002c 	lw	v1,44(s8)
    3a50:	8fc20078 	lw	v0,120(s8)
    3a54:	00000000 	nop
    3a58:	00621823 	subu	v1,v1,v0
    3a5c:	8fc20074 	lw	v0,116(s8)
    3a60:	00000000 	nop
    3a64:	ac430000 	sw	v1,0(v0)
    3a68:	8fc20078 	lw	v0,120(s8)
    3a6c:	08000f25 	j	3c94 <cvt+0x588>
    3a70:	00000000 	nop
    3a74:	8fc30070 	lw	v1,112(s8)
    3a78:	24020066 	li	v0,102
    3a7c:	10620005 	beq	v1,v0,3a94 <cvt+0x388>
    3a80:	00000000 	nop
    3a84:	8fc30070 	lw	v1,112(s8)
    3a88:	24020046 	li	v0,70
    3a8c:	14620005 	bne	v1,v0,3aa4 <cvt+0x398>
    3a90:	00000000 	nop
    3a94:	24020003 	li	v0,3
    3a98:	afc20028 	sw	v0,40(s8)
    3a9c:	08000eb7 	j	3adc <cvt+0x3d0>
    3aa0:	00000000 	nop
    3aa4:	8fc30070 	lw	v1,112(s8)
    3aa8:	24020065 	li	v0,101
    3aac:	10620005 	beq	v1,v0,3ac4 <cvt+0x3b8>
    3ab0:	00000000 	nop
    3ab4:	8fc30070 	lw	v1,112(s8)
    3ab8:	24020045 	li	v0,69
    3abc:	14620005 	bne	v1,v0,3ad4 <cvt+0x3c8>
    3ac0:	00000000 	nop
    3ac4:	8fc20060 	lw	v0,96(s8)
    3ac8:	00000000 	nop
    3acc:	24420001 	addiu	v0,v0,1
    3ad0:	afc20060 	sw	v0,96(s8)
    3ad4:	24020002 	li	v0,2
    3ad8:	afc20028 	sw	v0,40(s8)
    3adc:	8fc20028 	lw	v0,40(s8)
    3ae0:	00000000 	nop
    3ae4:	afa20010 	sw	v0,16(sp)
    3ae8:	8fc20060 	lw	v0,96(s8)
    3aec:	00000000 	nop
    3af0:	afa20014 	sw	v0,20(sp)
    3af4:	8fc2006c 	lw	v0,108(s8)
    3af8:	00000000 	nop
    3afc:	afa20018 	sw	v0,24(sp)
    3b00:	27c20034 	addiu	v0,s8,52
    3b04:	afa2001c 	sw	v0,28(sp)
    3b08:	27c20038 	addiu	v0,s8,56
    3b0c:	afa20020 	sw	v0,32(sp)
    3b10:	8fc40050 	lw	a0,80(s8)
    3b14:	8fc7005c 	lw	a3,92(s8)
    3b18:	8fc60058 	lw	a2,88(s8)
    3b1c:	0c0011aa 	jal	46a8 <_dtoa_r>
    3b20:	00000000 	nop
    3b24:	afc20030 	sw	v0,48(s8)
    3b28:	8fc30070 	lw	v1,112(s8)
    3b2c:	24020067 	li	v0,103
    3b30:	10620005 	beq	v1,v0,3b48 <cvt+0x43c>
    3b34:	00000000 	nop
    3b38:	8fc30070 	lw	v1,112(s8)
    3b3c:	24020047 	li	v0,71
    3b40:	14620006 	bne	v1,v0,3b5c <cvt+0x450>
    3b44:	00000000 	nop
    3b48:	8fc20064 	lw	v0,100(s8)
    3b4c:	00000000 	nop
    3b50:	30420001 	andi	v0,v0,0x1
    3b54:	10400045 	beqz	v0,3c6c <cvt+0x560>
    3b58:	00000000 	nop
    3b5c:	8fc20060 	lw	v0,96(s8)
    3b60:	8fc30030 	lw	v1,48(s8)
    3b64:	00000000 	nop
    3b68:	00621021 	addu	v0,v1,v0
    3b6c:	afc2002c 	sw	v0,44(s8)
    3b70:	8fc30070 	lw	v1,112(s8)
    3b74:	24020066 	li	v0,102
    3b78:	10620005 	beq	v1,v0,3b90 <cvt+0x484>
    3b7c:	00000000 	nop
    3b80:	8fc30070 	lw	v1,112(s8)
    3b84:	24020046 	li	v0,70
    3b88:	1462001d 	bne	v1,v0,3c00 <cvt+0x4f4>
    3b8c:	00000000 	nop
    3b90:	8fc20030 	lw	v0,48(s8)
    3b94:	00000000 	nop
    3b98:	80430000 	lb	v1,0(v0)
    3b9c:	24020030 	li	v0,48
    3ba0:	14620010 	bne	v1,v0,3be4 <cvt+0x4d8>
    3ba4:	00000000 	nop
    3ba8:	8fc5005c 	lw	a1,92(s8)
    3bac:	8fc40058 	lw	a0,88(s8)
    3bb0:	00003821 	move	a3,zero
    3bb4:	00003021 	move	a2,zero
    3bb8:	0c004ff4 	jal	13fd0 <__nedf2>
    3bbc:	00000000 	nop
    3bc0:	10400008 	beqz	v0,3be4 <cvt+0x4d8>
    3bc4:	00000000 	nop
    3bc8:	24030001 	li	v1,1
    3bcc:	8fc20060 	lw	v0,96(s8)
    3bd0:	00000000 	nop
    3bd4:	00621823 	subu	v1,v1,v0
    3bd8:	8fc2006c 	lw	v0,108(s8)
    3bdc:	00000000 	nop
    3be0:	ac430000 	sw	v1,0(v0)
    3be4:	8fc2006c 	lw	v0,108(s8)
    3be8:	00000000 	nop
    3bec:	8c420000 	lw	v0,0(v0)
    3bf0:	8fc3002c 	lw	v1,44(s8)
    3bf4:	00000000 	nop
    3bf8:	00621021 	addu	v0,v1,v0
    3bfc:	afc2002c 	sw	v0,44(s8)
    3c00:	8fc5005c 	lw	a1,92(s8)
    3c04:	8fc40058 	lw	a0,88(s8)
    3c08:	00003821 	move	a3,zero
    3c0c:	00003021 	move	a2,zero
    3c10:	0c004fd6 	jal	13f58 <__eqdf2>
    3c14:	00000000 	nop
    3c18:	10400003 	beqz	v0,3c28 <cvt+0x51c>
    3c1c:	00000000 	nop
    3c20:	08000f15 	j	3c54 <cvt+0x548>
    3c24:	00000000 	nop
    3c28:	8fc2002c 	lw	v0,44(s8)
    3c2c:	00000000 	nop
    3c30:	afc20038 	sw	v0,56(s8)
    3c34:	08000f15 	j	3c54 <cvt+0x548>
    3c38:	00000000 	nop
    3c3c:	8fc20038 	lw	v0,56(s8)
    3c40:	00000000 	nop
    3c44:	24430001 	addiu	v1,v0,1
    3c48:	afc30038 	sw	v1,56(s8)
    3c4c:	24030030 	li	v1,48
    3c50:	a0430000 	sb	v1,0(v0)
    3c54:	8fc30038 	lw	v1,56(s8)
    3c58:	8fc2002c 	lw	v0,44(s8)
    3c5c:	00000000 	nop
    3c60:	0062102b 	sltu	v0,v1,v0
    3c64:	1440fff5 	bnez	v0,3c3c <cvt+0x530>
    3c68:	00000000 	nop
    3c6c:	8fc20038 	lw	v0,56(s8)
    3c70:	00000000 	nop
    3c74:	00401821 	move	v1,v0
    3c78:	8fc20030 	lw	v0,48(s8)
    3c7c:	00000000 	nop
    3c80:	00621823 	subu	v1,v1,v0
    3c84:	8fc20074 	lw	v0,116(s8)
    3c88:	00000000 	nop
    3c8c:	ac430000 	sw	v1,0(v0)
    3c90:	8fc20030 	lw	v0,48(s8)
    3c94:	03c0e821 	move	sp,s8
    3c98:	8fbf004c 	lw	ra,76(sp)
    3c9c:	8fbe0048 	lw	s8,72(sp)
    3ca0:	27bd0050 	addiu	sp,sp,80
    3ca4:	03e00008 	jr	ra
    3ca8:	00000000 	nop

00003cac <exponent>:
    3cac:	27bdffe0 	addiu	sp,sp,-32
    3cb0:	afbe001c 	sw	s8,28(sp)
    3cb4:	afb10018 	sw	s1,24(sp)
    3cb8:	afb00014 	sw	s0,20(sp)
    3cbc:	03a0f021 	move	s8,sp
    3cc0:	afc40020 	sw	a0,32(s8)
    3cc4:	afc50024 	sw	a1,36(s8)
    3cc8:	afc60028 	sw	a2,40(s8)
    3ccc:	8fc30028 	lw	v1,40(s8)
    3cd0:	24020061 	li	v0,97
    3cd4:	10620005 	beq	v1,v0,3cec <exponent+0x40>
    3cd8:	00000000 	nop
    3cdc:	8fc30028 	lw	v1,40(s8)
    3ce0:	24020041 	li	v0,65
    3ce4:	14620004 	bne	v1,v0,3cf8 <exponent+0x4c>
    3ce8:	00000000 	nop
    3cec:	24020001 	li	v0,1
    3cf0:	08000f3f 	j	3cfc <exponent+0x50>
    3cf4:	00000000 	nop
    3cf8:	00001021 	move	v0,zero
    3cfc:	afc20000 	sw	v0,0(s8)
    3d00:	8fd00020 	lw	s0,32(s8)
    3d04:	00000000 	nop
    3d08:	02001021 	move	v0,s0
    3d0c:	24500001 	addiu	s0,v0,1
    3d10:	8fc30000 	lw	v1,0(s8)
    3d14:	00000000 	nop
    3d18:	1060000a 	beqz	v1,3d44 <exponent+0x98>
    3d1c:	00000000 	nop
    3d20:	8fc30028 	lw	v1,40(s8)
    3d24:	00000000 	nop
    3d28:	306300ff 	andi	v1,v1,0xff
    3d2c:	2463000f 	addiu	v1,v1,15
    3d30:	306300ff 	andi	v1,v1,0xff
    3d34:	00031e00 	sll	v1,v1,0x18
    3d38:	00031e03 	sra	v1,v1,0x18
    3d3c:	08000f55 	j	3d54 <exponent+0xa8>
    3d40:	00000000 	nop
    3d44:	8fc30028 	lw	v1,40(s8)
    3d48:	00000000 	nop
    3d4c:	00031e00 	sll	v1,v1,0x18
    3d50:	00031e03 	sra	v1,v1,0x18
    3d54:	a0430000 	sb	v1,0(v0)
    3d58:	8fc20024 	lw	v0,36(s8)
    3d5c:	00000000 	nop
    3d60:	0441000b 	bgez	v0,3d90 <exponent+0xe4>
    3d64:	00000000 	nop
    3d68:	8fc20024 	lw	v0,36(s8)
    3d6c:	00000000 	nop
    3d70:	00021023 	negu	v0,v0
    3d74:	afc20024 	sw	v0,36(s8)
    3d78:	02001021 	move	v0,s0
    3d7c:	24500001 	addiu	s0,v0,1
    3d80:	2403002d 	li	v1,45
    3d84:	a0430000 	sb	v1,0(v0)
    3d88:	08000f68 	j	3da0 <exponent+0xf4>
    3d8c:	00000000 	nop
    3d90:	02001021 	move	v0,s0
    3d94:	24500001 	addiu	s0,v0,1
    3d98:	2403002b 	li	v1,43
    3d9c:	a0430000 	sb	v1,0(v0)
    3da0:	27d10004 	addiu	s1,s8,4
    3da4:	26310007 	addiu	s1,s1,7
    3da8:	8fc20024 	lw	v0,36(s8)
    3dac:	00000000 	nop
    3db0:	2842000a 	slti	v0,v0,10
    3db4:	14400034 	bnez	v0,3e88 <exponent+0x1dc>
    3db8:	00000000 	nop
    3dbc:	2631ffff 	addiu	s1,s1,-1
    3dc0:	8fc30024 	lw	v1,36(s8)
    3dc4:	2402000a 	li	v0,10
    3dc8:	14400002 	bnez	v0,3dd4 <exponent+0x128>
    3dcc:	0062001a 	div	zero,v1,v0
    3dd0:	0007000d 	break	0x7
    3dd4:	00001010 	mfhi	v0
    3dd8:	304200ff 	andi	v0,v0,0xff
    3ddc:	24420030 	addiu	v0,v0,48
    3de0:	304200ff 	andi	v0,v0,0xff
    3de4:	00021600 	sll	v0,v0,0x18
    3de8:	00021603 	sra	v0,v0,0x18
    3dec:	a2220000 	sb	v0,0(s1)
    3df0:	8fc30024 	lw	v1,36(s8)
    3df4:	2402000a 	li	v0,10
    3df8:	14400002 	bnez	v0,3e04 <exponent+0x158>
    3dfc:	0062001a 	div	zero,v1,v0
    3e00:	0007000d 	break	0x7
    3e04:	00001810 	mfhi	v1
    3e08:	00001012 	mflo	v0
    3e0c:	afc20024 	sw	v0,36(s8)
    3e10:	8fc20024 	lw	v0,36(s8)
    3e14:	00000000 	nop
    3e18:	2842000a 	slti	v0,v0,10
    3e1c:	1040ffe7 	beqz	v0,3dbc <exponent+0x110>
    3e20:	00000000 	nop
    3e24:	2631ffff 	addiu	s1,s1,-1
    3e28:	8fc20024 	lw	v0,36(s8)
    3e2c:	00000000 	nop
    3e30:	304200ff 	andi	v0,v0,0xff
    3e34:	24420030 	addiu	v0,v0,48
    3e38:	304200ff 	andi	v0,v0,0xff
    3e3c:	00021600 	sll	v0,v0,0x18
    3e40:	00021603 	sra	v0,v0,0x18
    3e44:	a2220000 	sb	v0,0(s1)
    3e48:	08000f9b 	j	3e6c <exponent+0x1c0>
    3e4c:	00000000 	nop
    3e50:	02001021 	move	v0,s0
    3e54:	24500001 	addiu	s0,v0,1
    3e58:	02201821 	move	v1,s1
    3e5c:	24710001 	addiu	s1,v1,1
    3e60:	80630000 	lb	v1,0(v1)
    3e64:	00000000 	nop
    3e68:	a0430000 	sb	v1,0(v0)
    3e6c:	27c20004 	addiu	v0,s8,4
    3e70:	24420007 	addiu	v0,v0,7
    3e74:	0222102b 	sltu	v0,s1,v0
    3e78:	1440fff5 	bnez	v0,3e50 <exponent+0x1a4>
    3e7c:	00000000 	nop
    3e80:	08000fb4 	j	3ed0 <exponent+0x224>
    3e84:	00000000 	nop
    3e88:	8fc20000 	lw	v0,0(s8)
    3e8c:	00000000 	nop
    3e90:	14400005 	bnez	v0,3ea8 <exponent+0x1fc>
    3e94:	00000000 	nop
    3e98:	02001021 	move	v0,s0
    3e9c:	24500001 	addiu	s0,v0,1
    3ea0:	24030030 	li	v1,48
    3ea4:	a0430000 	sb	v1,0(v0)
    3ea8:	02001021 	move	v0,s0
    3eac:	24500001 	addiu	s0,v0,1
    3eb0:	8fc30024 	lw	v1,36(s8)
    3eb4:	00000000 	nop
    3eb8:	306300ff 	andi	v1,v1,0xff
    3ebc:	24630030 	addiu	v1,v1,48
    3ec0:	306300ff 	andi	v1,v1,0xff
    3ec4:	00031e00 	sll	v1,v1,0x18
    3ec8:	00031e03 	sra	v1,v1,0x18
    3ecc:	a0430000 	sb	v1,0(v0)
    3ed0:	02001821 	move	v1,s0
    3ed4:	8fc20020 	lw	v0,32(s8)
    3ed8:	00000000 	nop
    3edc:	00621023 	subu	v0,v1,v0
    3ee0:	03c0e821 	move	sp,s8
    3ee4:	8fbe001c 	lw	s8,28(sp)
    3ee8:	8fb10018 	lw	s1,24(sp)
    3eec:	8fb00014 	lw	s0,20(sp)
    3ef0:	27bd0020 	addiu	sp,sp,32
    3ef4:	03e00008 	jr	ra
    3ef8:	00000000 	nop

00003efc <__swsetup_r>:
    3efc:	27bdffe0 	addiu	sp,sp,-32
    3f00:	afbf001c 	sw	ra,28(sp)
    3f04:	afbe0018 	sw	s8,24(sp)
    3f08:	afb00014 	sw	s0,20(sp)
    3f0c:	03a0f021 	move	s8,sp
    3f10:	afc40020 	sw	a0,32(s8)
    3f14:	00a08021 	move	s0,a1
    3f18:	8f828068 	lw	v0,-32664(gp)
    3f1c:	00000000 	nop
    3f20:	1040000c 	beqz	v0,3f54 <__swsetup_r+0x58>
    3f24:	00000000 	nop
    3f28:	8f828068 	lw	v0,-32664(gp)
    3f2c:	00000000 	nop
    3f30:	8c420038 	lw	v0,56(v0)
    3f34:	00000000 	nop
    3f38:	14400006 	bnez	v0,3f54 <__swsetup_r+0x58>
    3f3c:	00000000 	nop
    3f40:	8f828068 	lw	v0,-32664(gp)
    3f44:	00000000 	nop
    3f48:	00402021 	move	a0,v0
    3f4c:	0c001cb6 	jal	72d8 <__sinit>
    3f50:	00000000 	nop
    3f54:	8602000c 	lh	v0,12(s0)
    3f58:	00000000 	nop
    3f5c:	3042ffff 	andi	v0,v0,0xffff
    3f60:	30420008 	andi	v0,v0,0x8
    3f64:	14400037 	bnez	v0,4044 <__swsetup_r+0x148>
    3f68:	00000000 	nop
    3f6c:	8602000c 	lh	v0,12(s0)
    3f70:	00000000 	nop
    3f74:	3042ffff 	andi	v0,v0,0xffff
    3f78:	30420010 	andi	v0,v0,0x10
    3f7c:	1440000d 	bnez	v0,3fb4 <__swsetup_r+0xb8>
    3f80:	00000000 	nop
    3f84:	8fc20020 	lw	v0,32(s8)
    3f88:	24030009 	li	v1,9
    3f8c:	ac430000 	sw	v1,0(v0)
    3f90:	8602000c 	lh	v0,12(s0)
    3f94:	00000000 	nop
    3f98:	34420040 	ori	v0,v0,0x40
    3f9c:	00021400 	sll	v0,v0,0x10
    3fa0:	00021403 	sra	v0,v0,0x10
    3fa4:	a602000c 	sh	v0,12(s0)
    3fa8:	2402ffff 	li	v0,-1
    3fac:	08001051 	j	4144 <__swsetup_r+0x248>
    3fb0:	00000000 	nop
    3fb4:	8602000c 	lh	v0,12(s0)
    3fb8:	00000000 	nop
    3fbc:	3042ffff 	andi	v0,v0,0xffff
    3fc0:	30420004 	andi	v0,v0,0x4
    3fc4:	10400019 	beqz	v0,402c <__swsetup_r+0x130>
    3fc8:	00000000 	nop
    3fcc:	8e020030 	lw	v0,48(s0)
    3fd0:	00000000 	nop
    3fd4:	1040000b 	beqz	v0,4004 <__swsetup_r+0x108>
    3fd8:	00000000 	nop
    3fdc:	8e030030 	lw	v1,48(s0)
    3fe0:	26020040 	addiu	v0,s0,64
    3fe4:	10620006 	beq	v1,v0,4000 <__swsetup_r+0x104>
    3fe8:	00000000 	nop
    3fec:	8e020030 	lw	v0,48(s0)
    3ff0:	8fc40020 	lw	a0,32(s8)
    3ff4:	00402821 	move	a1,v0
    3ff8:	0c001d5a 	jal	7568 <_free_r>
    3ffc:	00000000 	nop
    4000:	ae000030 	sw	zero,48(s0)
    4004:	8603000c 	lh	v1,12(s0)
    4008:	2402ffdb 	li	v0,-37
    400c:	00621024 	and	v0,v1,v0
    4010:	00021400 	sll	v0,v0,0x10
    4014:	00021403 	sra	v0,v0,0x10
    4018:	a602000c 	sh	v0,12(s0)
    401c:	ae000004 	sw	zero,4(s0)
    4020:	8e020010 	lw	v0,16(s0)
    4024:	00000000 	nop
    4028:	ae020000 	sw	v0,0(s0)
    402c:	8602000c 	lh	v0,12(s0)
    4030:	00000000 	nop
    4034:	34420008 	ori	v0,v0,0x8
    4038:	00021400 	sll	v0,v0,0x10
    403c:	00021403 	sra	v0,v0,0x10
    4040:	a602000c 	sh	v0,12(s0)
    4044:	8e020010 	lw	v0,16(s0)
    4048:	00000000 	nop
    404c:	14400011 	bnez	v0,4094 <__swsetup_r+0x198>
    4050:	00000000 	nop
    4054:	8602000c 	lh	v0,12(s0)
    4058:	00000000 	nop
    405c:	3042ffff 	andi	v0,v0,0xffff
    4060:	30420200 	andi	v0,v0,0x200
    4064:	10400007 	beqz	v0,4084 <__swsetup_r+0x188>
    4068:	00000000 	nop
    406c:	8602000c 	lh	v0,12(s0)
    4070:	00000000 	nop
    4074:	3042ffff 	andi	v0,v0,0xffff
    4078:	30420080 	andi	v0,v0,0x80
    407c:	10400005 	beqz	v0,4094 <__swsetup_r+0x198>
    4080:	00000000 	nop
    4084:	8fc40020 	lw	a0,32(s8)
    4088:	02002821 	move	a1,s0
    408c:	0c0020c4 	jal	8310 <__smakebuf_r>
    4090:	00000000 	nop
    4094:	8602000c 	lh	v0,12(s0)
    4098:	00000000 	nop
    409c:	3042ffff 	andi	v0,v0,0xffff
    40a0:	30420001 	andi	v0,v0,0x1
    40a4:	10400008 	beqz	v0,40c8 <__swsetup_r+0x1cc>
    40a8:	00000000 	nop
    40ac:	ae000008 	sw	zero,8(s0)
    40b0:	8e020014 	lw	v0,20(s0)
    40b4:	00000000 	nop
    40b8:	00021023 	negu	v0,v0
    40bc:	ae020018 	sw	v0,24(s0)
    40c0:	0800103d 	j	40f4 <__swsetup_r+0x1f8>
    40c4:	00000000 	nop
    40c8:	8602000c 	lh	v0,12(s0)
    40cc:	00000000 	nop
    40d0:	3042ffff 	andi	v0,v0,0xffff
    40d4:	30420002 	andi	v0,v0,0x2
    40d8:	14400004 	bnez	v0,40ec <__swsetup_r+0x1f0>
    40dc:	00000000 	nop
    40e0:	8e020014 	lw	v0,20(s0)
    40e4:	0800103c 	j	40f0 <__swsetup_r+0x1f4>
    40e8:	00000000 	nop
    40ec:	00001021 	move	v0,zero
    40f0:	ae020008 	sw	v0,8(s0)
    40f4:	8e020010 	lw	v0,16(s0)
    40f8:	00000000 	nop
    40fc:	14400010 	bnez	v0,4140 <__swsetup_r+0x244>
    4100:	00000000 	nop
    4104:	8602000c 	lh	v0,12(s0)
    4108:	00000000 	nop
    410c:	3042ffff 	andi	v0,v0,0xffff
    4110:	30420080 	andi	v0,v0,0x80
    4114:	1040000a 	beqz	v0,4140 <__swsetup_r+0x244>
    4118:	00000000 	nop
    411c:	8602000c 	lh	v0,12(s0)
    4120:	00000000 	nop
    4124:	34420040 	ori	v0,v0,0x40
    4128:	00021400 	sll	v0,v0,0x10
    412c:	00021403 	sra	v0,v0,0x10
    4130:	a602000c 	sh	v0,12(s0)
    4134:	2402ffff 	li	v0,-1
    4138:	08001051 	j	4144 <__swsetup_r+0x248>
    413c:	00000000 	nop
    4140:	00001021 	move	v0,zero
    4144:	03c0e821 	move	sp,s8
    4148:	8fbf001c 	lw	ra,28(sp)
    414c:	8fbe0018 	lw	s8,24(sp)
    4150:	8fb00014 	lw	s0,20(sp)
    4154:	27bd0020 	addiu	sp,sp,32
    4158:	03e00008 	jr	ra
    415c:	00000000 	nop

00004160 <quorem>:
    4160:	27bdffb0 	addiu	sp,sp,-80
    4164:	afbf004c 	sw	ra,76(sp)
    4168:	afbe0048 	sw	s8,72(sp)
    416c:	03a0f021 	move	s8,sp
    4170:	afc40050 	sw	a0,80(s8)
    4174:	afc50054 	sw	a1,84(s8)
    4178:	8fc20054 	lw	v0,84(s8)
    417c:	00000000 	nop
    4180:	8c420010 	lw	v0,16(v0)
    4184:	00000000 	nop
    4188:	afc20010 	sw	v0,16(s8)
    418c:	8fc20050 	lw	v0,80(s8)
    4190:	00000000 	nop
    4194:	8c430010 	lw	v1,16(v0)
    4198:	8fc20010 	lw	v0,16(s8)
    419c:	00000000 	nop
    41a0:	0062102a 	slt	v0,v1,v0
    41a4:	10400004 	beqz	v0,41b8 <quorem+0x58>
    41a8:	00000000 	nop
    41ac:	00001021 	move	v0,zero
    41b0:	080011a4 	j	4690 <quorem+0x530>
    41b4:	00000000 	nop
    41b8:	8fc20054 	lw	v0,84(s8)
    41bc:	00000000 	nop
    41c0:	24420014 	addiu	v0,v0,20
    41c4:	afc20028 	sw	v0,40(s8)
    41c8:	8fc20010 	lw	v0,16(s8)
    41cc:	00000000 	nop
    41d0:	2442ffff 	addiu	v0,v0,-1
    41d4:	afc20010 	sw	v0,16(s8)
    41d8:	8fc20010 	lw	v0,16(s8)
    41dc:	00000000 	nop
    41e0:	00021080 	sll	v0,v0,0x2
    41e4:	8fc30028 	lw	v1,40(s8)
    41e8:	00000000 	nop
    41ec:	00621021 	addu	v0,v1,v0
    41f0:	afc2002c 	sw	v0,44(s8)
    41f4:	8fc20050 	lw	v0,80(s8)
    41f8:	00000000 	nop
    41fc:	24420014 	addiu	v0,v0,20
    4200:	afc20020 	sw	v0,32(s8)
    4204:	8fc20010 	lw	v0,16(s8)
    4208:	00000000 	nop
    420c:	00021080 	sll	v0,v0,0x2
    4210:	8fc30020 	lw	v1,32(s8)
    4214:	00000000 	nop
    4218:	00621021 	addu	v0,v1,v0
    421c:	afc20024 	sw	v0,36(s8)
    4220:	8fc20024 	lw	v0,36(s8)
    4224:	00000000 	nop
    4228:	8c430000 	lw	v1,0(v0)
    422c:	8fc2002c 	lw	v0,44(s8)
    4230:	00000000 	nop
    4234:	8c420000 	lw	v0,0(v0)
    4238:	00000000 	nop
    423c:	24420001 	addiu	v0,v0,1
    4240:	14400002 	bnez	v0,424c <quorem+0xec>
    4244:	0062001b 	divu	zero,v1,v0
    4248:	0007000d 	break	0x7
    424c:	00001810 	mfhi	v1
    4250:	00001012 	mflo	v0
    4254:	afc2001c 	sw	v0,28(s8)
    4258:	8fc2001c 	lw	v0,28(s8)
    425c:	00000000 	nop
    4260:	1040007d 	beqz	v0,4458 <quorem+0x2f8>
    4264:	00000000 	nop
    4268:	afc00014 	sw	zero,20(s8)
    426c:	afc00018 	sw	zero,24(s8)
    4270:	8fc20028 	lw	v0,40(s8)
    4274:	00000000 	nop
    4278:	24430004 	addiu	v1,v0,4
    427c:	afc30028 	sw	v1,40(s8)
    4280:	8c420000 	lw	v0,0(v0)
    4284:	00000000 	nop
    4288:	afc20030 	sw	v0,48(s8)
    428c:	8fc20030 	lw	v0,48(s8)
    4290:	00000000 	nop
    4294:	3043ffff 	andi	v1,v0,0xffff
    4298:	8fc2001c 	lw	v0,28(s8)
    429c:	00000000 	nop
    42a0:	00620018 	mult	v1,v0
    42a4:	00001812 	mflo	v1
    42a8:	8fc20018 	lw	v0,24(s8)
    42ac:	00000000 	nop
    42b0:	00621021 	addu	v0,v1,v0
    42b4:	afc20034 	sw	v0,52(s8)
    42b8:	8fc20030 	lw	v0,48(s8)
    42bc:	00000000 	nop
    42c0:	00021c02 	srl	v1,v0,0x10
    42c4:	8fc2001c 	lw	v0,28(s8)
    42c8:	00000000 	nop
    42cc:	00620018 	mult	v1,v0
    42d0:	00001812 	mflo	v1
    42d4:	8fc20034 	lw	v0,52(s8)
    42d8:	00000000 	nop
    42dc:	00021402 	srl	v0,v0,0x10
    42e0:	00621021 	addu	v0,v1,v0
    42e4:	afc20038 	sw	v0,56(s8)
    42e8:	8fc20038 	lw	v0,56(s8)
    42ec:	00000000 	nop
    42f0:	00021402 	srl	v0,v0,0x10
    42f4:	afc20018 	sw	v0,24(s8)
    42f8:	8fc20020 	lw	v0,32(s8)
    42fc:	00000000 	nop
    4300:	8c420000 	lw	v0,0(v0)
    4304:	00000000 	nop
    4308:	3043ffff 	andi	v1,v0,0xffff
    430c:	8fc20034 	lw	v0,52(s8)
    4310:	00000000 	nop
    4314:	3042ffff 	andi	v0,v0,0xffff
    4318:	00621823 	subu	v1,v1,v0
    431c:	8fc20014 	lw	v0,20(s8)
    4320:	00000000 	nop
    4324:	00621021 	addu	v0,v1,v0
    4328:	afc2003c 	sw	v0,60(s8)
    432c:	8fc2003c 	lw	v0,60(s8)
    4330:	00000000 	nop
    4334:	00021403 	sra	v0,v0,0x10
    4338:	afc20014 	sw	v0,20(s8)
    433c:	8fc20020 	lw	v0,32(s8)
    4340:	00000000 	nop
    4344:	8c420000 	lw	v0,0(v0)
    4348:	00000000 	nop
    434c:	00021c02 	srl	v1,v0,0x10
    4350:	8fc20038 	lw	v0,56(s8)
    4354:	00000000 	nop
    4358:	3042ffff 	andi	v0,v0,0xffff
    435c:	00621823 	subu	v1,v1,v0
    4360:	8fc20014 	lw	v0,20(s8)
    4364:	00000000 	nop
    4368:	00621021 	addu	v0,v1,v0
    436c:	afc20040 	sw	v0,64(s8)
    4370:	8fc20040 	lw	v0,64(s8)
    4374:	00000000 	nop
    4378:	00021403 	sra	v0,v0,0x10
    437c:	afc20014 	sw	v0,20(s8)
    4380:	8fc20020 	lw	v0,32(s8)
    4384:	00000000 	nop
    4388:	24430004 	addiu	v1,v0,4
    438c:	afc30020 	sw	v1,32(s8)
    4390:	8fc30040 	lw	v1,64(s8)
    4394:	00000000 	nop
    4398:	00032400 	sll	a0,v1,0x10
    439c:	8fc3003c 	lw	v1,60(s8)
    43a0:	00000000 	nop
    43a4:	3063ffff 	andi	v1,v1,0xffff
    43a8:	00831825 	or	v1,a0,v1
    43ac:	ac430000 	sw	v1,0(v0)
    43b0:	8fc30028 	lw	v1,40(s8)
    43b4:	8fc2002c 	lw	v0,44(s8)
    43b8:	00000000 	nop
    43bc:	0043102b 	sltu	v0,v0,v1
    43c0:	1040ffab 	beqz	v0,4270 <quorem+0x110>
    43c4:	00000000 	nop
    43c8:	8fc20024 	lw	v0,36(s8)
    43cc:	00000000 	nop
    43d0:	8c420000 	lw	v0,0(v0)
    43d4:	00000000 	nop
    43d8:	1440001f 	bnez	v0,4458 <quorem+0x2f8>
    43dc:	00000000 	nop
    43e0:	8fc20050 	lw	v0,80(s8)
    43e4:	00000000 	nop
    43e8:	24420014 	addiu	v0,v0,20
    43ec:	afc20020 	sw	v0,32(s8)
    43f0:	08001102 	j	4408 <quorem+0x2a8>
    43f4:	00000000 	nop
    43f8:	8fc20010 	lw	v0,16(s8)
    43fc:	00000000 	nop
    4400:	2442ffff 	addiu	v0,v0,-1
    4404:	afc20010 	sw	v0,16(s8)
    4408:	8fc20024 	lw	v0,36(s8)
    440c:	00000000 	nop
    4410:	2442fffc 	addiu	v0,v0,-4
    4414:	afc20024 	sw	v0,36(s8)
    4418:	8fc30024 	lw	v1,36(s8)
    441c:	8fc20020 	lw	v0,32(s8)
    4420:	00000000 	nop
    4424:	0043102b 	sltu	v0,v0,v1
    4428:	10400007 	beqz	v0,4448 <quorem+0x2e8>
    442c:	00000000 	nop
    4430:	8fc20024 	lw	v0,36(s8)
    4434:	00000000 	nop
    4438:	8c420000 	lw	v0,0(v0)
    443c:	00000000 	nop
    4440:	1040ffed 	beqz	v0,43f8 <quorem+0x298>
    4444:	00000000 	nop
    4448:	8fc20050 	lw	v0,80(s8)
    444c:	8fc30010 	lw	v1,16(s8)
    4450:	00000000 	nop
    4454:	ac430010 	sw	v1,16(v0)
    4458:	8fc40050 	lw	a0,80(s8)
    445c:	8fc50054 	lw	a1,84(s8)
    4460:	0c002d84 	jal	b610 <__mcmp>
    4464:	00000000 	nop
    4468:	04400088 	bltz	v0,468c <quorem+0x52c>
    446c:	00000000 	nop
    4470:	8fc2001c 	lw	v0,28(s8)
    4474:	00000000 	nop
    4478:	24420001 	addiu	v0,v0,1
    447c:	afc2001c 	sw	v0,28(s8)
    4480:	afc00014 	sw	zero,20(s8)
    4484:	afc00018 	sw	zero,24(s8)
    4488:	8fc20050 	lw	v0,80(s8)
    448c:	00000000 	nop
    4490:	24420014 	addiu	v0,v0,20
    4494:	afc20020 	sw	v0,32(s8)
    4498:	8fc20054 	lw	v0,84(s8)
    449c:	00000000 	nop
    44a0:	24420014 	addiu	v0,v0,20
    44a4:	afc20028 	sw	v0,40(s8)
    44a8:	8fc20028 	lw	v0,40(s8)
    44ac:	00000000 	nop
    44b0:	24430004 	addiu	v1,v0,4
    44b4:	afc30028 	sw	v1,40(s8)
    44b8:	8c420000 	lw	v0,0(v0)
    44bc:	00000000 	nop
    44c0:	afc20030 	sw	v0,48(s8)
    44c4:	8fc20030 	lw	v0,48(s8)
    44c8:	00000000 	nop
    44cc:	3043ffff 	andi	v1,v0,0xffff
    44d0:	8fc20018 	lw	v0,24(s8)
    44d4:	00000000 	nop
    44d8:	00621021 	addu	v0,v1,v0
    44dc:	afc20034 	sw	v0,52(s8)
    44e0:	8fc20030 	lw	v0,48(s8)
    44e4:	00000000 	nop
    44e8:	00021c02 	srl	v1,v0,0x10
    44ec:	8fc20034 	lw	v0,52(s8)
    44f0:	00000000 	nop
    44f4:	00021402 	srl	v0,v0,0x10
    44f8:	00621021 	addu	v0,v1,v0
    44fc:	afc20038 	sw	v0,56(s8)
    4500:	8fc20038 	lw	v0,56(s8)
    4504:	00000000 	nop
    4508:	00021402 	srl	v0,v0,0x10
    450c:	afc20018 	sw	v0,24(s8)
    4510:	8fc20020 	lw	v0,32(s8)
    4514:	00000000 	nop
    4518:	8c420000 	lw	v0,0(v0)
    451c:	00000000 	nop
    4520:	3043ffff 	andi	v1,v0,0xffff
    4524:	8fc20034 	lw	v0,52(s8)
    4528:	00000000 	nop
    452c:	3042ffff 	andi	v0,v0,0xffff
    4530:	00621823 	subu	v1,v1,v0
    4534:	8fc20014 	lw	v0,20(s8)
    4538:	00000000 	nop
    453c:	00621021 	addu	v0,v1,v0
    4540:	afc2003c 	sw	v0,60(s8)
    4544:	8fc2003c 	lw	v0,60(s8)
    4548:	00000000 	nop
    454c:	00021403 	sra	v0,v0,0x10
    4550:	afc20014 	sw	v0,20(s8)
    4554:	8fc20020 	lw	v0,32(s8)
    4558:	00000000 	nop
    455c:	8c420000 	lw	v0,0(v0)
    4560:	00000000 	nop
    4564:	00021c02 	srl	v1,v0,0x10
    4568:	8fc20038 	lw	v0,56(s8)
    456c:	00000000 	nop
    4570:	3042ffff 	andi	v0,v0,0xffff
    4574:	00621823 	subu	v1,v1,v0
    4578:	8fc20014 	lw	v0,20(s8)
    457c:	00000000 	nop
    4580:	00621021 	addu	v0,v1,v0
    4584:	afc20040 	sw	v0,64(s8)
    4588:	8fc20040 	lw	v0,64(s8)
    458c:	00000000 	nop
    4590:	00021403 	sra	v0,v0,0x10
    4594:	afc20014 	sw	v0,20(s8)
    4598:	8fc20020 	lw	v0,32(s8)
    459c:	00000000 	nop
    45a0:	24430004 	addiu	v1,v0,4
    45a4:	afc30020 	sw	v1,32(s8)
    45a8:	8fc30040 	lw	v1,64(s8)
    45ac:	00000000 	nop
    45b0:	00032400 	sll	a0,v1,0x10
    45b4:	8fc3003c 	lw	v1,60(s8)
    45b8:	00000000 	nop
    45bc:	3063ffff 	andi	v1,v1,0xffff
    45c0:	00831825 	or	v1,a0,v1
    45c4:	ac430000 	sw	v1,0(v0)
    45c8:	8fc30028 	lw	v1,40(s8)
    45cc:	8fc2002c 	lw	v0,44(s8)
    45d0:	00000000 	nop
    45d4:	0043102b 	sltu	v0,v0,v1
    45d8:	1040ffb3 	beqz	v0,44a8 <quorem+0x348>
    45dc:	00000000 	nop
    45e0:	8fc20050 	lw	v0,80(s8)
    45e4:	00000000 	nop
    45e8:	24420014 	addiu	v0,v0,20
    45ec:	afc20020 	sw	v0,32(s8)
    45f0:	8fc20010 	lw	v0,16(s8)
    45f4:	00000000 	nop
    45f8:	00021080 	sll	v0,v0,0x2
    45fc:	8fc30020 	lw	v1,32(s8)
    4600:	00000000 	nop
    4604:	00621021 	addu	v0,v1,v0
    4608:	afc20024 	sw	v0,36(s8)
    460c:	8fc20024 	lw	v0,36(s8)
    4610:	00000000 	nop
    4614:	8c420000 	lw	v0,0(v0)
    4618:	00000000 	nop
    461c:	1440001b 	bnez	v0,468c <quorem+0x52c>
    4620:	00000000 	nop
    4624:	0800118f 	j	463c <quorem+0x4dc>
    4628:	00000000 	nop
    462c:	8fc20010 	lw	v0,16(s8)
    4630:	00000000 	nop
    4634:	2442ffff 	addiu	v0,v0,-1
    4638:	afc20010 	sw	v0,16(s8)
    463c:	8fc20024 	lw	v0,36(s8)
    4640:	00000000 	nop
    4644:	2442fffc 	addiu	v0,v0,-4
    4648:	afc20024 	sw	v0,36(s8)
    464c:	8fc30024 	lw	v1,36(s8)
    4650:	8fc20020 	lw	v0,32(s8)
    4654:	00000000 	nop
    4658:	0043102b 	sltu	v0,v0,v1
    465c:	10400007 	beqz	v0,467c <quorem+0x51c>
    4660:	00000000 	nop
    4664:	8fc20024 	lw	v0,36(s8)
    4668:	00000000 	nop
    466c:	8c420000 	lw	v0,0(v0)
    4670:	00000000 	nop
    4674:	1040ffed 	beqz	v0,462c <quorem+0x4cc>
    4678:	00000000 	nop
    467c:	8fc20050 	lw	v0,80(s8)
    4680:	8fc30010 	lw	v1,16(s8)
    4684:	00000000 	nop
    4688:	ac430010 	sw	v1,16(v0)
    468c:	8fc2001c 	lw	v0,28(s8)
    4690:	03c0e821 	move	sp,s8
    4694:	8fbf004c 	lw	ra,76(sp)
    4698:	8fbe0048 	lw	s8,72(sp)
    469c:	27bd0050 	addiu	sp,sp,80
    46a0:	03e00008 	jr	ra
    46a4:	00000000 	nop

000046a8 <_dtoa_r>:
    46a8:	27bdff28 	addiu	sp,sp,-216
    46ac:	afbf00d4 	sw	ra,212(sp)
    46b0:	afbe00d0 	sw	s8,208(sp)
    46b4:	afb300cc 	sw	s3,204(sp)
    46b8:	afb200c8 	sw	s2,200(sp)
    46bc:	afb100c4 	sw	s1,196(sp)
    46c0:	afb000c0 	sw	s0,192(sp)
    46c4:	03a0f021 	move	s8,sp
    46c8:	afc400d8 	sw	a0,216(s8)
    46cc:	afc700e4 	sw	a3,228(s8)
    46d0:	afc600e0 	sw	a2,224(s8)
    46d4:	afc00064 	sw	zero,100(s8)
    46d8:	8fc300e4 	lw	v1,228(s8)
    46dc:	8fc200e0 	lw	v0,224(s8)
    46e0:	afc300ac 	sw	v1,172(s8)
    46e4:	afc200a8 	sw	v0,168(s8)
    46e8:	8fc200d8 	lw	v0,216(s8)
    46ec:	00000000 	nop
    46f0:	8c420040 	lw	v0,64(v0)
    46f4:	00000000 	nop
    46f8:	1040001c 	beqz	v0,476c <_dtoa_r+0xc4>
    46fc:	00000000 	nop
    4700:	8fc200d8 	lw	v0,216(s8)
    4704:	00000000 	nop
    4708:	8c420040 	lw	v0,64(v0)
    470c:	8fc300d8 	lw	v1,216(s8)
    4710:	00000000 	nop
    4714:	8c630044 	lw	v1,68(v1)
    4718:	00000000 	nop
    471c:	ac430004 	sw	v1,4(v0)
    4720:	8fc200d8 	lw	v0,216(s8)
    4724:	00000000 	nop
    4728:	8c420040 	lw	v0,64(v0)
    472c:	8fc300d8 	lw	v1,216(s8)
    4730:	00000000 	nop
    4734:	8c630044 	lw	v1,68(v1)
    4738:	24040001 	li	a0,1
    473c:	00641804 	sllv	v1,a0,v1
    4740:	ac430008 	sw	v1,8(v0)
    4744:	8fc200d8 	lw	v0,216(s8)
    4748:	00000000 	nop
    474c:	8c420040 	lw	v0,64(v0)
    4750:	8fc400d8 	lw	a0,216(s8)
    4754:	00402821 	move	a1,v0
    4758:	0c002926 	jal	a498 <_Bfree>
    475c:	00000000 	nop
    4760:	8fc200d8 	lw	v0,216(s8)
    4764:	00000000 	nop
    4768:	ac400040 	sw	zero,64(v0)
    476c:	8fc200a8 	lw	v0,168(s8)
    4770:	00000000 	nop
    4774:	0441000b 	bgez	v0,47a4 <_dtoa_r+0xfc>
    4778:	00000000 	nop
    477c:	8fc200f4 	lw	v0,244(s8)
    4780:	24030001 	li	v1,1
    4784:	ac430000 	sw	v1,0(v0)
    4788:	8fc300a8 	lw	v1,168(s8)
    478c:	3c027fff 	lui	v0,0x7fff
    4790:	3442ffff 	ori	v0,v0,0xffff
    4794:	00621024 	and	v0,v1,v0
    4798:	afc200a8 	sw	v0,168(s8)
    479c:	080011ec 	j	47b0 <_dtoa_r+0x108>
    47a0:	00000000 	nop
    47a4:	8fc200f4 	lw	v0,244(s8)
    47a8:	00000000 	nop
    47ac:	ac400000 	sw	zero,0(v0)
    47b0:	8fc300a8 	lw	v1,168(s8)
    47b4:	3c027ff0 	lui	v0,0x7ff0
    47b8:	00621824 	and	v1,v1,v0
    47bc:	3c027ff0 	lui	v0,0x7ff0
    47c0:	1462002e 	bne	v1,v0,487c <_dtoa_r+0x1d4>
    47c4:	00000000 	nop
    47c8:	8fc200f0 	lw	v0,240(s8)
    47cc:	2403270f 	li	v1,9999
    47d0:	ac430000 	sw	v1,0(v0)
    47d4:	8fc200ac 	lw	v0,172(s8)
    47d8:	00000000 	nop
    47dc:	1440000b 	bnez	v0,480c <_dtoa_r+0x164>
    47e0:	00000000 	nop
    47e4:	8fc300a8 	lw	v1,168(s8)
    47e8:	3c02000f 	lui	v0,0xf
    47ec:	3442ffff 	ori	v0,v0,0xffff
    47f0:	00621024 	and	v0,v1,v0
    47f4:	14400005 	bnez	v0,480c <_dtoa_r+0x164>
    47f8:	00000000 	nop
    47fc:	3c020001 	lui	v0,0x1
    4800:	24424c48 	addiu	v0,v0,19528
    4804:	08001205 	j	4814 <_dtoa_r+0x16c>
    4808:	00000000 	nop
    480c:	3c020001 	lui	v0,0x1
    4810:	24424c54 	addiu	v0,v0,19540
    4814:	afc20078 	sw	v0,120(s8)
    4818:	8fc200f8 	lw	v0,248(s8)
    481c:	00000000 	nop
    4820:	10400013 	beqz	v0,4870 <_dtoa_r+0x1c8>
    4824:	00000000 	nop
    4828:	8fc20078 	lw	v0,120(s8)
    482c:	00000000 	nop
    4830:	24420003 	addiu	v0,v0,3
    4834:	80420000 	lb	v0,0(v0)
    4838:	00000000 	nop
    483c:	10400006 	beqz	v0,4858 <_dtoa_r+0x1b0>
    4840:	00000000 	nop
    4844:	8fc20078 	lw	v0,120(s8)
    4848:	00000000 	nop
    484c:	24420008 	addiu	v0,v0,8
    4850:	08001219 	j	4864 <_dtoa_r+0x1bc>
    4854:	00000000 	nop
    4858:	8fc20078 	lw	v0,120(s8)
    485c:	00000000 	nop
    4860:	24420003 	addiu	v0,v0,3
    4864:	8fc300f8 	lw	v1,248(s8)
    4868:	00000000 	nop
    486c:	ac620000 	sw	v0,0(v1)
    4870:	8fc20078 	lw	v0,120(s8)
    4874:	08001a17 	j	685c <_dtoa_r+0x21b4>
    4878:	00000000 	nop
    487c:	8fc300ac 	lw	v1,172(s8)
    4880:	8fc200a8 	lw	v0,168(s8)
    4884:	00602821 	move	a1,v1
    4888:	00402021 	move	a0,v0
    488c:	00003821 	move	a3,zero
    4890:	00003021 	move	a2,zero
    4894:	0c004fd6 	jal	13f58 <__eqdf2>
    4898:	00000000 	nop
    489c:	14400014 	bnez	v0,48f0 <_dtoa_r+0x248>
    48a0:	00000000 	nop
    48a4:	8fc200f0 	lw	v0,240(s8)
    48a8:	24030001 	li	v1,1
    48ac:	ac430000 	sw	v1,0(v0)
    48b0:	3c020001 	lui	v0,0x1
    48b4:	24424c58 	addiu	v0,v0,19544
    48b8:	afc20078 	sw	v0,120(s8)
    48bc:	8fc200f8 	lw	v0,248(s8)
    48c0:	00000000 	nop
    48c4:	10400007 	beqz	v0,48e4 <_dtoa_r+0x23c>
    48c8:	00000000 	nop
    48cc:	8fc20078 	lw	v0,120(s8)
    48d0:	00000000 	nop
    48d4:	24430001 	addiu	v1,v0,1
    48d8:	8fc200f8 	lw	v0,248(s8)
    48dc:	00000000 	nop
    48e0:	ac430000 	sw	v1,0(v0)
    48e4:	8fc20078 	lw	v0,120(s8)
    48e8:	08001a17 	j	685c <_dtoa_r+0x21b4>
    48ec:	00000000 	nop
    48f0:	8fc300ac 	lw	v1,172(s8)
    48f4:	8fc200a8 	lw	v0,168(s8)
    48f8:	27c400a0 	addiu	a0,s8,160
    48fc:	afa40010 	sw	a0,16(sp)
    4900:	27c4009c 	addiu	a0,s8,156
    4904:	afa40014 	sw	a0,20(sp)
    4908:	8fc400d8 	lw	a0,216(s8)
    490c:	00603821 	move	a3,v1
    4910:	00403021 	move	a2,v0
    4914:	0c002fb5 	jal	bed4 <__d2b>
    4918:	00000000 	nop
    491c:	afc20060 	sw	v0,96(s8)
    4920:	8fc200a8 	lw	v0,168(s8)
    4924:	00000000 	nop
    4928:	00021502 	srl	v0,v0,0x14
    492c:	304207ff 	andi	v0,v0,0x7ff
    4930:	afc20024 	sw	v0,36(s8)
    4934:	8fc20024 	lw	v0,36(s8)
    4938:	00000000 	nop
    493c:	10400015 	beqz	v0,4994 <_dtoa_r+0x2ec>
    4940:	00000000 	nop
    4944:	8fc300ac 	lw	v1,172(s8)
    4948:	8fc200a8 	lw	v0,168(s8)
    494c:	afc300b4 	sw	v1,180(s8)
    4950:	afc200b0 	sw	v0,176(s8)
    4954:	8fc300b0 	lw	v1,176(s8)
    4958:	3c02000f 	lui	v0,0xf
    495c:	3442ffff 	ori	v0,v0,0xffff
    4960:	00621024 	and	v0,v1,v0
    4964:	afc200b0 	sw	v0,176(s8)
    4968:	8fc300b0 	lw	v1,176(s8)
    496c:	3c023ff0 	lui	v0,0x3ff0
    4970:	00621025 	or	v0,v1,v0
    4974:	afc200b0 	sw	v0,176(s8)
    4978:	8fc20024 	lw	v0,36(s8)
    497c:	00000000 	nop
    4980:	2442fc01 	addiu	v0,v0,-1023
    4984:	afc20024 	sw	v0,36(s8)
    4988:	afc0005c 	sw	zero,92(s8)
    498c:	08001294 	j	4a50 <_dtoa_r+0x3a8>
    4990:	00000000 	nop
    4994:	8fc3009c 	lw	v1,156(s8)
    4998:	8fc200a0 	lw	v0,160(s8)
    499c:	00000000 	nop
    49a0:	00621021 	addu	v0,v1,v0
    49a4:	24420432 	addiu	v0,v0,1074
    49a8:	afc20024 	sw	v0,36(s8)
    49ac:	8fc20024 	lw	v0,36(s8)
    49b0:	00000000 	nop
    49b4:	28420021 	slti	v0,v0,33
    49b8:	1440000f 	bnez	v0,49f8 <_dtoa_r+0x350>
    49bc:	00000000 	nop
    49c0:	8fc300a8 	lw	v1,168(s8)
    49c4:	24040040 	li	a0,64
    49c8:	8fc20024 	lw	v0,36(s8)
    49cc:	00000000 	nop
    49d0:	00821023 	subu	v0,a0,v0
    49d4:	00431804 	sllv	v1,v1,v0
    49d8:	8fc400ac 	lw	a0,172(s8)
    49dc:	8fc20024 	lw	v0,36(s8)
    49e0:	00000000 	nop
    49e4:	2442ffe0 	addiu	v0,v0,-32
    49e8:	00441006 	srlv	v0,a0,v0
    49ec:	00621025 	or	v0,v1,v0
    49f0:	08001284 	j	4a10 <_dtoa_r+0x368>
    49f4:	00000000 	nop
    49f8:	8fc300ac 	lw	v1,172(s8)
    49fc:	24040020 	li	a0,32
    4a00:	8fc20024 	lw	v0,36(s8)
    4a04:	00000000 	nop
    4a08:	00821023 	subu	v0,a0,v0
    4a0c:	00431004 	sllv	v0,v1,v0
    4a10:	afc2007c 	sw	v0,124(s8)
    4a14:	8fc4007c 	lw	a0,124(s8)
    4a18:	0c0050e1 	jal	14384 <__floatunsidf>
    4a1c:	00000000 	nop
    4a20:	afc300b4 	sw	v1,180(s8)
    4a24:	afc200b0 	sw	v0,176(s8)
    4a28:	8fc300b0 	lw	v1,176(s8)
    4a2c:	3c02fe10 	lui	v0,0xfe10
    4a30:	00621021 	addu	v0,v1,v0
    4a34:	afc200b0 	sw	v0,176(s8)
    4a38:	8fc20024 	lw	v0,36(s8)
    4a3c:	00000000 	nop
    4a40:	2442fbcd 	addiu	v0,v0,-1075
    4a44:	afc20024 	sw	v0,36(s8)
    4a48:	24020001 	li	v0,1
    4a4c:	afc2005c 	sw	v0,92(s8)
    4a50:	8fc300b4 	lw	v1,180(s8)
    4a54:	8fc200b0 	lw	v0,176(s8)
    4a58:	00602821 	move	a1,v1
    4a5c:	00402021 	move	a0,v0
    4a60:	8f878024 	lw	a3,-32732(gp)
    4a64:	8f868020 	lw	a2,-32736(gp)
    4a68:	0c004e7f 	jal	139fc <__subdf3>
    4a6c:	00000000 	nop
    4a70:	00602821 	move	a1,v1
    4a74:	00402021 	move	a0,v0
    4a78:	8f87802c 	lw	a3,-32724(gp)
    4a7c:	8f868028 	lw	a2,-32728(gp)
    4a80:	0c004e98 	jal	13a60 <__muldf3>
    4a84:	00000000 	nop
    4a88:	00602821 	move	a1,v1
    4a8c:	00402021 	move	a0,v0
    4a90:	8f878034 	lw	a3,-32716(gp)
    4a94:	8f868030 	lw	a2,-32720(gp)
    4a98:	0c004e69 	jal	139a4 <__adddf3>
    4a9c:	00000000 	nop
    4aa0:	00609821 	move	s3,v1
    4aa4:	00409021 	move	s2,v0
    4aa8:	8fc40024 	lw	a0,36(s8)
    4aac:	0c00506c 	jal	141b0 <__floatsidf>
    4ab0:	00000000 	nop
    4ab4:	00602821 	move	a1,v1
    4ab8:	00402021 	move	a0,v0
    4abc:	8f87803c 	lw	a3,-32708(gp)
    4ac0:	8f868038 	lw	a2,-32712(gp)
    4ac4:	0c004e98 	jal	13a60 <__muldf3>
    4ac8:	00000000 	nop
    4acc:	02602821 	move	a1,s3
    4ad0:	02402021 	move	a0,s2
    4ad4:	00603821 	move	a3,v1
    4ad8:	00403021 	move	a2,v0
    4adc:	0c004e69 	jal	139a4 <__adddf3>
    4ae0:	00000000 	nop
    4ae4:	afc30074 	sw	v1,116(s8)
    4ae8:	afc20070 	sw	v0,112(s8)
    4aec:	8fc50074 	lw	a1,116(s8)
    4af0:	8fc40070 	lw	a0,112(s8)
    4af4:	0c0050a4 	jal	14290 <__fixdfsi>
    4af8:	00000000 	nop
    4afc:	afc20038 	sw	v0,56(s8)
    4b00:	8fc50074 	lw	a1,116(s8)
    4b04:	8fc40070 	lw	a0,112(s8)
    4b08:	00003821 	move	a3,zero
    4b0c:	00003021 	move	a2,zero
    4b10:	0c005030 	jal	140c0 <__ltdf2>
    4b14:	00000000 	nop
    4b18:	04410010 	bgez	v0,4b5c <_dtoa_r+0x4b4>
    4b1c:	00000000 	nop
    4b20:	8fc40038 	lw	a0,56(s8)
    4b24:	0c00506c 	jal	141b0 <__floatsidf>
    4b28:	00000000 	nop
    4b2c:	00602821 	move	a1,v1
    4b30:	00402021 	move	a0,v0
    4b34:	8fc70074 	lw	a3,116(s8)
    4b38:	8fc60070 	lw	a2,112(s8)
    4b3c:	0c004ff4 	jal	13fd0 <__nedf2>
    4b40:	00000000 	nop
    4b44:	10400005 	beqz	v0,4b5c <_dtoa_r+0x4b4>
    4b48:	00000000 	nop
    4b4c:	8fc20038 	lw	v0,56(s8)
    4b50:	00000000 	nop
    4b54:	2442ffff 	addiu	v0,v0,-1
    4b58:	afc20038 	sw	v0,56(s8)
    4b5c:	24020001 	li	v0,1
    4b60:	afc2003c 	sw	v0,60(s8)
    4b64:	8fc20038 	lw	v0,56(s8)
    4b68:	00000000 	nop
    4b6c:	0440001b 	bltz	v0,4bdc <_dtoa_r+0x534>
    4b70:	00000000 	nop
    4b74:	8fc20038 	lw	v0,56(s8)
    4b78:	00000000 	nop
    4b7c:	28420017 	slti	v0,v0,23
    4b80:	10400016 	beqz	v0,4bdc <_dtoa_r+0x534>
    4b84:	00000000 	nop
    4b88:	8fc500ac 	lw	a1,172(s8)
    4b8c:	8fc400a8 	lw	a0,168(s8)
    4b90:	3c020001 	lui	v0,0x1
    4b94:	8fc30038 	lw	v1,56(s8)
    4b98:	00000000 	nop
    4b9c:	000318c0 	sll	v1,v1,0x3
    4ba0:	24424c90 	addiu	v0,v0,19600
    4ba4:	00621021 	addu	v0,v1,v0
    4ba8:	8c430004 	lw	v1,4(v0)
    4bac:	8c420000 	lw	v0,0(v0)
    4bb0:	00603821 	move	a3,v1
    4bb4:	00403021 	move	a2,v0
    4bb8:	0c005030 	jal	140c0 <__ltdf2>
    4bbc:	00000000 	nop
    4bc0:	04410005 	bgez	v0,4bd8 <_dtoa_r+0x530>
    4bc4:	00000000 	nop
    4bc8:	8fc20038 	lw	v0,56(s8)
    4bcc:	00000000 	nop
    4bd0:	2442ffff 	addiu	v0,v0,-1
    4bd4:	afc20038 	sw	v0,56(s8)
    4bd8:	afc0003c 	sw	zero,60(s8)
    4bdc:	8fc3009c 	lw	v1,156(s8)
    4be0:	8fc20024 	lw	v0,36(s8)
    4be4:	00000000 	nop
    4be8:	00621023 	subu	v0,v1,v0
    4bec:	2442ffff 	addiu	v0,v0,-1
    4bf0:	afc20034 	sw	v0,52(s8)
    4bf4:	8fc20034 	lw	v0,52(s8)
    4bf8:	00000000 	nop
    4bfc:	04400007 	bltz	v0,4c1c <_dtoa_r+0x574>
    4c00:	00000000 	nop
    4c04:	afc00018 	sw	zero,24(s8)
    4c08:	8fc20034 	lw	v0,52(s8)
    4c0c:	00000000 	nop
    4c10:	afc2004c 	sw	v0,76(s8)
    4c14:	0800130c 	j	4c30 <_dtoa_r+0x588>
    4c18:	00000000 	nop
    4c1c:	8fc20034 	lw	v0,52(s8)
    4c20:	00000000 	nop
    4c24:	00021023 	negu	v0,v0
    4c28:	afc20018 	sw	v0,24(s8)
    4c2c:	afc0004c 	sw	zero,76(s8)
    4c30:	8fc20038 	lw	v0,56(s8)
    4c34:	00000000 	nop
    4c38:	0440000c 	bltz	v0,4c6c <_dtoa_r+0x5c4>
    4c3c:	00000000 	nop
    4c40:	afc0001c 	sw	zero,28(s8)
    4c44:	8fc20038 	lw	v0,56(s8)
    4c48:	00000000 	nop
    4c4c:	afc20050 	sw	v0,80(s8)
    4c50:	8fc3004c 	lw	v1,76(s8)
    4c54:	8fc20038 	lw	v0,56(s8)
    4c58:	00000000 	nop
    4c5c:	00621021 	addu	v0,v1,v0
    4c60:	afc2004c 	sw	v0,76(s8)
    4c64:	08001325 	j	4c94 <_dtoa_r+0x5ec>
    4c68:	00000000 	nop
    4c6c:	8fc30018 	lw	v1,24(s8)
    4c70:	8fc20038 	lw	v0,56(s8)
    4c74:	00000000 	nop
    4c78:	00621023 	subu	v0,v1,v0
    4c7c:	afc20018 	sw	v0,24(s8)
    4c80:	8fc20038 	lw	v0,56(s8)
    4c84:	00000000 	nop
    4c88:	00021023 	negu	v0,v0
    4c8c:	afc2001c 	sw	v0,28(s8)
    4c90:	afc00050 	sw	zero,80(s8)
    4c94:	8fc200e8 	lw	v0,232(s8)
    4c98:	00000000 	nop
    4c9c:	04400006 	bltz	v0,4cb8 <_dtoa_r+0x610>
    4ca0:	00000000 	nop
    4ca4:	8fc200e8 	lw	v0,232(s8)
    4ca8:	00000000 	nop
    4cac:	2842000a 	slti	v0,v0,10
    4cb0:	14400002 	bnez	v0,4cbc <_dtoa_r+0x614>
    4cb4:	00000000 	nop
    4cb8:	afc000e8 	sw	zero,232(s8)
    4cbc:	24020001 	li	v0,1
    4cc0:	afc20058 	sw	v0,88(s8)
    4cc4:	8fc200e8 	lw	v0,232(s8)
    4cc8:	00000000 	nop
    4ccc:	28420006 	slti	v0,v0,6
    4cd0:	14400006 	bnez	v0,4cec <_dtoa_r+0x644>
    4cd4:	00000000 	nop
    4cd8:	8fc200e8 	lw	v0,232(s8)
    4cdc:	00000000 	nop
    4ce0:	2442fffc 	addiu	v0,v0,-4
    4ce4:	afc200e8 	sw	v0,232(s8)
    4ce8:	afc00058 	sw	zero,88(s8)
    4cec:	24020001 	li	v0,1
    4cf0:	afc20040 	sw	v0,64(s8)
    4cf4:	2402ffff 	li	v0,-1
    4cf8:	afc20030 	sw	v0,48(s8)
    4cfc:	8fc20030 	lw	v0,48(s8)
    4d00:	00000000 	nop
    4d04:	afc2002c 	sw	v0,44(s8)
    4d08:	8fc200e8 	lw	v0,232(s8)
    4d0c:	00000000 	nop
    4d10:	2c420006 	sltiu	v0,v0,6
    4d14:	10400036 	beqz	v0,4df0 <_dtoa_r+0x748>
    4d18:	00000000 	nop
    4d1c:	8fc200e8 	lw	v0,232(s8)
    4d20:	00000000 	nop
    4d24:	00021880 	sll	v1,v0,0x2
    4d28:	3c020001 	lui	v0,0x1
    4d2c:	24424c5c 	addiu	v0,v0,19548
    4d30:	00621021 	addu	v0,v1,v0
    4d34:	8c420000 	lw	v0,0(v0)
    4d38:	00000000 	nop
    4d3c:	00400008 	jr	v0
    4d40:	00000000 	nop
    4d44:	24020012 	li	v0,18
    4d48:	afc20024 	sw	v0,36(s8)
    4d4c:	afc000ec 	sw	zero,236(s8)
    4d50:	0800137c 	j	4df0 <_dtoa_r+0x748>
    4d54:	00000000 	nop
    4d58:	afc00040 	sw	zero,64(s8)
    4d5c:	8fc200ec 	lw	v0,236(s8)
    4d60:	00000000 	nop
    4d64:	1c400003 	bgtz	v0,4d74 <_dtoa_r+0x6cc>
    4d68:	00000000 	nop
    4d6c:	24020001 	li	v0,1
    4d70:	afc200ec 	sw	v0,236(s8)
    4d74:	8fc200ec 	lw	v0,236(s8)
    4d78:	00000000 	nop
    4d7c:	afc20024 	sw	v0,36(s8)
    4d80:	8fc20024 	lw	v0,36(s8)
    4d84:	00000000 	nop
    4d88:	afc20030 	sw	v0,48(s8)
    4d8c:	8fc20030 	lw	v0,48(s8)
    4d90:	00000000 	nop
    4d94:	afc2002c 	sw	v0,44(s8)
    4d98:	0800137c 	j	4df0 <_dtoa_r+0x748>
    4d9c:	00000000 	nop
    4da0:	afc00040 	sw	zero,64(s8)
    4da4:	8fc300ec 	lw	v1,236(s8)
    4da8:	8fc20038 	lw	v0,56(s8)
    4dac:	00000000 	nop
    4db0:	00621021 	addu	v0,v1,v0
    4db4:	24420001 	addiu	v0,v0,1
    4db8:	afc20024 	sw	v0,36(s8)
    4dbc:	8fc20024 	lw	v0,36(s8)
    4dc0:	00000000 	nop
    4dc4:	afc2002c 	sw	v0,44(s8)
    4dc8:	8fc20024 	lw	v0,36(s8)
    4dcc:	00000000 	nop
    4dd0:	2442ffff 	addiu	v0,v0,-1
    4dd4:	afc20030 	sw	v0,48(s8)
    4dd8:	8fc20024 	lw	v0,36(s8)
    4ddc:	00000000 	nop
    4de0:	1c400003 	bgtz	v0,4df0 <_dtoa_r+0x748>
    4de4:	00000000 	nop
    4de8:	24020001 	li	v0,1
    4dec:	afc20024 	sw	v0,36(s8)
    4df0:	24020004 	li	v0,4
    4df4:	afc20034 	sw	v0,52(s8)
    4df8:	8fc200d8 	lw	v0,216(s8)
    4dfc:	00000000 	nop
    4e00:	ac400044 	sw	zero,68(v0)
    4e04:	0800138f 	j	4e3c <_dtoa_r+0x794>
    4e08:	00000000 	nop
    4e0c:	8fc200d8 	lw	v0,216(s8)
    4e10:	00000000 	nop
    4e14:	8c420044 	lw	v0,68(v0)
    4e18:	00000000 	nop
    4e1c:	24430001 	addiu	v1,v0,1
    4e20:	8fc200d8 	lw	v0,216(s8)
    4e24:	00000000 	nop
    4e28:	ac430044 	sw	v1,68(v0)
    4e2c:	8fc20034 	lw	v0,52(s8)
    4e30:	00000000 	nop
    4e34:	00021040 	sll	v0,v0,0x1
    4e38:	afc20034 	sw	v0,52(s8)
    4e3c:	8fc20034 	lw	v0,52(s8)
    4e40:	00000000 	nop
    4e44:	24430014 	addiu	v1,v0,20
    4e48:	8fc20024 	lw	v0,36(s8)
    4e4c:	00000000 	nop
    4e50:	0043102b 	sltu	v0,v0,v1
    4e54:	1040ffed 	beqz	v0,4e0c <_dtoa_r+0x764>
    4e58:	00000000 	nop
    4e5c:	8fc200d8 	lw	v0,216(s8)
    4e60:	00000000 	nop
    4e64:	8c420044 	lw	v0,68(v0)
    4e68:	8fc400d8 	lw	a0,216(s8)
    4e6c:	00402821 	move	a1,v0
    4e70:	0c0028be 	jal	a2f8 <_Balloc>
    4e74:	00000000 	nop
    4e78:	00401821 	move	v1,v0
    4e7c:	8fc200d8 	lw	v0,216(s8)
    4e80:	00000000 	nop
    4e84:	ac430040 	sw	v1,64(v0)
    4e88:	8fc200d8 	lw	v0,216(s8)
    4e8c:	00000000 	nop
    4e90:	8c420040 	lw	v0,64(v0)
    4e94:	00000000 	nop
    4e98:	afc20080 	sw	v0,128(s8)
    4e9c:	8fc20080 	lw	v0,128(s8)
    4ea0:	00000000 	nop
    4ea4:	afc20078 	sw	v0,120(s8)
    4ea8:	8fc2002c 	lw	v0,44(s8)
    4eac:	00000000 	nop
    4eb0:	0440023d 	bltz	v0,57a8 <_dtoa_r+0x1100>
    4eb4:	00000000 	nop
    4eb8:	8fc2002c 	lw	v0,44(s8)
    4ebc:	00000000 	nop
    4ec0:	2842000f 	slti	v0,v0,15
    4ec4:	10400238 	beqz	v0,57a8 <_dtoa_r+0x1100>
    4ec8:	00000000 	nop
    4ecc:	8fc20058 	lw	v0,88(s8)
    4ed0:	00000000 	nop
    4ed4:	10400234 	beqz	v0,57a8 <_dtoa_r+0x1100>
    4ed8:	00000000 	nop
    4edc:	afc00024 	sw	zero,36(s8)
    4ee0:	8fc300ac 	lw	v1,172(s8)
    4ee4:	8fc200a8 	lw	v0,168(s8)
    4ee8:	afc300b4 	sw	v1,180(s8)
    4eec:	afc200b0 	sw	v0,176(s8)
    4ef0:	8fc20038 	lw	v0,56(s8)
    4ef4:	00000000 	nop
    4ef8:	afc20084 	sw	v0,132(s8)
    4efc:	8fc2002c 	lw	v0,44(s8)
    4f00:	00000000 	nop
    4f04:	afc20088 	sw	v0,136(s8)
    4f08:	24020002 	li	v0,2
    4f0c:	afc20028 	sw	v0,40(s8)
    4f10:	8fc20038 	lw	v0,56(s8)
    4f14:	00000000 	nop
    4f18:	1840005e 	blez	v0,5094 <_dtoa_r+0x9ec>
    4f1c:	00000000 	nop
    4f20:	8fc20038 	lw	v0,56(s8)
    4f24:	00000000 	nop
    4f28:	3043000f 	andi	v1,v0,0xf
    4f2c:	3c020001 	lui	v0,0x1
    4f30:	000318c0 	sll	v1,v1,0x3
    4f34:	24424c90 	addiu	v0,v0,19600
    4f38:	00621021 	addu	v0,v1,v0
    4f3c:	8c430004 	lw	v1,4(v0)
    4f40:	8c420000 	lw	v0,0(v0)
    4f44:	afc30074 	sw	v1,116(s8)
    4f48:	afc20070 	sw	v0,112(s8)
    4f4c:	8fc20038 	lw	v0,56(s8)
    4f50:	00000000 	nop
    4f54:	00021103 	sra	v0,v0,0x4
    4f58:	afc20034 	sw	v0,52(s8)
    4f5c:	8fc20034 	lw	v0,52(s8)
    4f60:	00000000 	nop
    4f64:	30420010 	andi	v0,v0,0x10
    4f68:	10400017 	beqz	v0,4fc8 <_dtoa_r+0x920>
    4f6c:	00000000 	nop
    4f70:	8fc20034 	lw	v0,52(s8)
    4f74:	00000000 	nop
    4f78:	3042000f 	andi	v0,v0,0xf
    4f7c:	afc20034 	sw	v0,52(s8)
    4f80:	8fc500ac 	lw	a1,172(s8)
    4f84:	8fc400a8 	lw	a0,168(s8)
    4f88:	3c020001 	lui	v0,0x1
    4f8c:	24424d58 	addiu	v0,v0,19800
    4f90:	8c430024 	lw	v1,36(v0)
    4f94:	8c420020 	lw	v0,32(v0)
    4f98:	00603821 	move	a3,v1
    4f9c:	00403021 	move	a2,v0
    4fa0:	0c004f53 	jal	13d4c <__divdf3>
    4fa4:	00000000 	nop
    4fa8:	afc300ac 	sw	v1,172(s8)
    4fac:	afc200a8 	sw	v0,168(s8)
    4fb0:	8fc20028 	lw	v0,40(s8)
    4fb4:	00000000 	nop
    4fb8:	24420001 	addiu	v0,v0,1
    4fbc:	afc20028 	sw	v0,40(s8)
    4fc0:	08001415 	j	5054 <_dtoa_r+0x9ac>
    4fc4:	00000000 	nop
    4fc8:	08001415 	j	5054 <_dtoa_r+0x9ac>
    4fcc:	00000000 	nop
    4fd0:	8fc20034 	lw	v0,52(s8)
    4fd4:	00000000 	nop
    4fd8:	30420001 	andi	v0,v0,0x1
    4fdc:	10400015 	beqz	v0,5034 <_dtoa_r+0x98c>
    4fe0:	00000000 	nop
    4fe4:	8fc20028 	lw	v0,40(s8)
    4fe8:	00000000 	nop
    4fec:	24420001 	addiu	v0,v0,1
    4ff0:	afc20028 	sw	v0,40(s8)
    4ff4:	3c020001 	lui	v0,0x1
    4ff8:	8fc30024 	lw	v1,36(s8)
    4ffc:	00000000 	nop
    5000:	000318c0 	sll	v1,v1,0x3
    5004:	24424d58 	addiu	v0,v0,19800
    5008:	00621021 	addu	v0,v1,v0
    500c:	8c430004 	lw	v1,4(v0)
    5010:	8c420000 	lw	v0,0(v0)
    5014:	8fc50074 	lw	a1,116(s8)
    5018:	8fc40070 	lw	a0,112(s8)
    501c:	00603821 	move	a3,v1
    5020:	00403021 	move	a2,v0
    5024:	0c004e98 	jal	13a60 <__muldf3>
    5028:	00000000 	nop
    502c:	afc30074 	sw	v1,116(s8)
    5030:	afc20070 	sw	v0,112(s8)
    5034:	8fc20034 	lw	v0,52(s8)
    5038:	00000000 	nop
    503c:	00021043 	sra	v0,v0,0x1
    5040:	afc20034 	sw	v0,52(s8)
    5044:	8fc20024 	lw	v0,36(s8)
    5048:	00000000 	nop
    504c:	24420001 	addiu	v0,v0,1
    5050:	afc20024 	sw	v0,36(s8)
    5054:	8fc20034 	lw	v0,52(s8)
    5058:	00000000 	nop
    505c:	1440ffdc 	bnez	v0,4fd0 <_dtoa_r+0x928>
    5060:	00000000 	nop
    5064:	8fc300ac 	lw	v1,172(s8)
    5068:	8fc200a8 	lw	v0,168(s8)
    506c:	00602821 	move	a1,v1
    5070:	00402021 	move	a0,v0
    5074:	8fc70074 	lw	a3,116(s8)
    5078:	8fc60070 	lw	a2,112(s8)
    507c:	0c004f53 	jal	13d4c <__divdf3>
    5080:	00000000 	nop
    5084:	afc300ac 	sw	v1,172(s8)
    5088:	afc200a8 	sw	v0,168(s8)
    508c:	08001469 	j	51a4 <_dtoa_r+0xafc>
    5090:	00000000 	nop
    5094:	8fc20038 	lw	v0,56(s8)
    5098:	00000000 	nop
    509c:	00021023 	negu	v0,v0
    50a0:	afc2008c 	sw	v0,140(s8)
    50a4:	8fc2008c 	lw	v0,140(s8)
    50a8:	00000000 	nop
    50ac:	1040003d 	beqz	v0,51a4 <_dtoa_r+0xafc>
    50b0:	00000000 	nop
    50b4:	8fc500ac 	lw	a1,172(s8)
    50b8:	8fc400a8 	lw	a0,168(s8)
    50bc:	8fc2008c 	lw	v0,140(s8)
    50c0:	00000000 	nop
    50c4:	3043000f 	andi	v1,v0,0xf
    50c8:	3c020001 	lui	v0,0x1
    50cc:	000318c0 	sll	v1,v1,0x3
    50d0:	24424c90 	addiu	v0,v0,19600
    50d4:	00621021 	addu	v0,v1,v0
    50d8:	8c430004 	lw	v1,4(v0)
    50dc:	8c420000 	lw	v0,0(v0)
    50e0:	00603821 	move	a3,v1
    50e4:	00403021 	move	a2,v0
    50e8:	0c004e98 	jal	13a60 <__muldf3>
    50ec:	00000000 	nop
    50f0:	afc300ac 	sw	v1,172(s8)
    50f4:	afc200a8 	sw	v0,168(s8)
    50f8:	8fc2008c 	lw	v0,140(s8)
    50fc:	00000000 	nop
    5100:	00021103 	sra	v0,v0,0x4
    5104:	afc20034 	sw	v0,52(s8)
    5108:	08001465 	j	5194 <_dtoa_r+0xaec>
    510c:	00000000 	nop
    5110:	8fc20034 	lw	v0,52(s8)
    5114:	00000000 	nop
    5118:	30420001 	andi	v0,v0,0x1
    511c:	10400015 	beqz	v0,5174 <_dtoa_r+0xacc>
    5120:	00000000 	nop
    5124:	8fc20028 	lw	v0,40(s8)
    5128:	00000000 	nop
    512c:	24420001 	addiu	v0,v0,1
    5130:	afc20028 	sw	v0,40(s8)
    5134:	8fc500ac 	lw	a1,172(s8)
    5138:	8fc400a8 	lw	a0,168(s8)
    513c:	3c020001 	lui	v0,0x1
    5140:	8fc30024 	lw	v1,36(s8)
    5144:	00000000 	nop
    5148:	000318c0 	sll	v1,v1,0x3
    514c:	24424d58 	addiu	v0,v0,19800
    5150:	00621021 	addu	v0,v1,v0
    5154:	8c430004 	lw	v1,4(v0)
    5158:	8c420000 	lw	v0,0(v0)
    515c:	00603821 	move	a3,v1
    5160:	00403021 	move	a2,v0
    5164:	0c004e98 	jal	13a60 <__muldf3>
    5168:	00000000 	nop
    516c:	afc300ac 	sw	v1,172(s8)
    5170:	afc200a8 	sw	v0,168(s8)
    5174:	8fc20034 	lw	v0,52(s8)
    5178:	00000000 	nop
    517c:	00021043 	sra	v0,v0,0x1
    5180:	afc20034 	sw	v0,52(s8)
    5184:	8fc20024 	lw	v0,36(s8)
    5188:	00000000 	nop
    518c:	24420001 	addiu	v0,v0,1
    5190:	afc20024 	sw	v0,36(s8)
    5194:	8fc20034 	lw	v0,52(s8)
    5198:	00000000 	nop
    519c:	1440ffdc 	bnez	v0,5110 <_dtoa_r+0xa68>
    51a0:	00000000 	nop
    51a4:	8fc2003c 	lw	v0,60(s8)
    51a8:	00000000 	nop
    51ac:	1040002a 	beqz	v0,5258 <_dtoa_r+0xbb0>
    51b0:	00000000 	nop
    51b4:	8fc300ac 	lw	v1,172(s8)
    51b8:	8fc200a8 	lw	v0,168(s8)
    51bc:	00602821 	move	a1,v1
    51c0:	00402021 	move	a0,v0
    51c4:	8f878044 	lw	a3,-32700(gp)
    51c8:	8f868040 	lw	a2,-32704(gp)
    51cc:	0c005030 	jal	140c0 <__ltdf2>
    51d0:	00000000 	nop
    51d4:	04410020 	bgez	v0,5258 <_dtoa_r+0xbb0>
    51d8:	00000000 	nop
    51dc:	8fc2002c 	lw	v0,44(s8)
    51e0:	00000000 	nop
    51e4:	1840001c 	blez	v0,5258 <_dtoa_r+0xbb0>
    51e8:	00000000 	nop
    51ec:	8fc20030 	lw	v0,48(s8)
    51f0:	00000000 	nop
    51f4:	1c400003 	bgtz	v0,5204 <_dtoa_r+0xb5c>
    51f8:	00000000 	nop
    51fc:	080015dd 	j	5774 <_dtoa_r+0x10cc>
    5200:	00000000 	nop
    5204:	8fc20030 	lw	v0,48(s8)
    5208:	00000000 	nop
    520c:	afc2002c 	sw	v0,44(s8)
    5210:	8fc20038 	lw	v0,56(s8)
    5214:	00000000 	nop
    5218:	2442ffff 	addiu	v0,v0,-1
    521c:	afc20038 	sw	v0,56(s8)
    5220:	8fc300ac 	lw	v1,172(s8)
    5224:	8fc200a8 	lw	v0,168(s8)
    5228:	00602821 	move	a1,v1
    522c:	00402021 	move	a0,v0
    5230:	8f87804c 	lw	a3,-32692(gp)
    5234:	8f868048 	lw	a2,-32696(gp)
    5238:	0c004e98 	jal	13a60 <__muldf3>
    523c:	00000000 	nop
    5240:	afc300ac 	sw	v1,172(s8)
    5244:	afc200a8 	sw	v0,168(s8)
    5248:	8fc20028 	lw	v0,40(s8)
    524c:	00000000 	nop
    5250:	24420001 	addiu	v0,v0,1
    5254:	afc20028 	sw	v0,40(s8)
    5258:	8fc40028 	lw	a0,40(s8)
    525c:	0c00506c 	jal	141b0 <__floatsidf>
    5260:	00000000 	nop
    5264:	00602821 	move	a1,v1
    5268:	00402021 	move	a0,v0
    526c:	8fc300ac 	lw	v1,172(s8)
    5270:	8fc200a8 	lw	v0,168(s8)
    5274:	00603821 	move	a3,v1
    5278:	00403021 	move	a2,v0
    527c:	0c004e98 	jal	13a60 <__muldf3>
    5280:	00000000 	nop
    5284:	00602821 	move	a1,v1
    5288:	00402021 	move	a0,v0
    528c:	8f878054 	lw	a3,-32684(gp)
    5290:	8f868050 	lw	a2,-32688(gp)
    5294:	0c004e69 	jal	139a4 <__adddf3>
    5298:	00000000 	nop
    529c:	afc300bc 	sw	v1,188(s8)
    52a0:	afc200b8 	sw	v0,184(s8)
    52a4:	8fc300b8 	lw	v1,184(s8)
    52a8:	3c02fcc0 	lui	v0,0xfcc0
    52ac:	00621021 	addu	v0,v1,v0
    52b0:	afc200b8 	sw	v0,184(s8)
    52b4:	8fc2002c 	lw	v0,44(s8)
    52b8:	00000000 	nop
    52bc:	1440002c 	bnez	v0,5370 <_dtoa_r+0xcc8>
    52c0:	00000000 	nop
    52c4:	afc00068 	sw	zero,104(s8)
    52c8:	8fc20068 	lw	v0,104(s8)
    52cc:	00000000 	nop
    52d0:	afc2006c 	sw	v0,108(s8)
    52d4:	8fc300ac 	lw	v1,172(s8)
    52d8:	8fc200a8 	lw	v0,168(s8)
    52dc:	00602821 	move	a1,v1
    52e0:	00402021 	move	a0,v0
    52e4:	8f87805c 	lw	a3,-32676(gp)
    52e8:	8f868058 	lw	a2,-32680(gp)
    52ec:	0c004e7f 	jal	139fc <__subdf3>
    52f0:	00000000 	nop
    52f4:	afc300ac 	sw	v1,172(s8)
    52f8:	afc200a8 	sw	v0,168(s8)
    52fc:	8fc500ac 	lw	a1,172(s8)
    5300:	8fc400a8 	lw	a0,168(s8)
    5304:	8fc300bc 	lw	v1,188(s8)
    5308:	8fc200b8 	lw	v0,184(s8)
    530c:	00603821 	move	a3,v1
    5310:	00403021 	move	a2,v0
    5314:	0c005012 	jal	14048 <__gtdf2>
    5318:	00000000 	nop
    531c:	18400003 	blez	v0,532c <_dtoa_r+0xc84>
    5320:	00000000 	nop
    5324:	0800184d 	j	6134 <_dtoa_r+0x1a8c>
    5328:	00000000 	nop
    532c:	8fc500ac 	lw	a1,172(s8)
    5330:	8fc400a8 	lw	a0,168(s8)
    5334:	8fc300bc 	lw	v1,188(s8)
    5338:	8fc200b8 	lw	v0,184(s8)
    533c:	3c068000 	lui	a2,0x8000
    5340:	00468026 	xor	s0,v0,a2
    5344:	00608821 	move	s1,v1
    5348:	02203821 	move	a3,s1
    534c:	02003021 	move	a2,s0
    5350:	0c005030 	jal	140c0 <__ltdf2>
    5354:	00000000 	nop
    5358:	04400003 	bltz	v0,5368 <_dtoa_r+0xcc0>
    535c:	00000000 	nop
    5360:	080015dd 	j	5774 <_dtoa_r+0x10cc>
    5364:	00000000 	nop
    5368:	08001847 	j	611c <_dtoa_r+0x1a74>
    536c:	00000000 	nop
    5370:	8fc20040 	lw	v0,64(s8)
    5374:	00000000 	nop
    5378:	1040007e 	beqz	v0,5574 <_dtoa_r+0xecc>
    537c:	00000000 	nop
    5380:	8fc2002c 	lw	v0,44(s8)
    5384:	00000000 	nop
    5388:	2443ffff 	addiu	v1,v0,-1
    538c:	3c020001 	lui	v0,0x1
    5390:	000318c0 	sll	v1,v1,0x3
    5394:	24424c90 	addiu	v0,v0,19600
    5398:	00621021 	addu	v0,v1,v0
    539c:	8c430004 	lw	v1,4(v0)
    53a0:	8c420000 	lw	v0,0(v0)
    53a4:	8f858064 	lw	a1,-32668(gp)
    53a8:	8f848060 	lw	a0,-32672(gp)
    53ac:	00603821 	move	a3,v1
    53b0:	00403021 	move	a2,v0
    53b4:	0c004f53 	jal	13d4c <__divdf3>
    53b8:	00000000 	nop
    53bc:	00602821 	move	a1,v1
    53c0:	00402021 	move	a0,v0
    53c4:	8fc300bc 	lw	v1,188(s8)
    53c8:	8fc200b8 	lw	v0,184(s8)
    53cc:	00603821 	move	a3,v1
    53d0:	00403021 	move	a2,v0
    53d4:	0c004e7f 	jal	139fc <__subdf3>
    53d8:	00000000 	nop
    53dc:	afc300bc 	sw	v1,188(s8)
    53e0:	afc200b8 	sw	v0,184(s8)
    53e4:	afc00024 	sw	zero,36(s8)
    53e8:	8fc300ac 	lw	v1,172(s8)
    53ec:	8fc200a8 	lw	v0,168(s8)
    53f0:	00602821 	move	a1,v1
    53f4:	00402021 	move	a0,v0
    53f8:	0c0050a4 	jal	14290 <__fixdfsi>
    53fc:	00000000 	nop
    5400:	afc20090 	sw	v0,144(s8)
    5404:	8fd100ac 	lw	s1,172(s8)
    5408:	8fd000a8 	lw	s0,168(s8)
    540c:	8fc40090 	lw	a0,144(s8)
    5410:	0c00506c 	jal	141b0 <__floatsidf>
    5414:	00000000 	nop
    5418:	02202821 	move	a1,s1
    541c:	02002021 	move	a0,s0
    5420:	00603821 	move	a3,v1
    5424:	00403021 	move	a2,v0
    5428:	0c004e7f 	jal	139fc <__subdf3>
    542c:	00000000 	nop
    5430:	afc300ac 	sw	v1,172(s8)
    5434:	afc200a8 	sw	v0,168(s8)
    5438:	8fc20078 	lw	v0,120(s8)
    543c:	00000000 	nop
    5440:	24430001 	addiu	v1,v0,1
    5444:	afc30078 	sw	v1,120(s8)
    5448:	8fc30090 	lw	v1,144(s8)
    544c:	00000000 	nop
    5450:	306300ff 	andi	v1,v1,0xff
    5454:	24630030 	addiu	v1,v1,48
    5458:	306300ff 	andi	v1,v1,0xff
    545c:	00031e00 	sll	v1,v1,0x18
    5460:	00031e03 	sra	v1,v1,0x18
    5464:	a0430000 	sb	v1,0(v0)
    5468:	8fc500ac 	lw	a1,172(s8)
    546c:	8fc400a8 	lw	a0,168(s8)
    5470:	8fc300bc 	lw	v1,188(s8)
    5474:	8fc200b8 	lw	v0,184(s8)
    5478:	00603821 	move	a3,v1
    547c:	00403021 	move	a2,v0
    5480:	0c005030 	jal	140c0 <__ltdf2>
    5484:	00000000 	nop
    5488:	04410003 	bgez	v0,5498 <_dtoa_r+0xdf0>
    548c:	00000000 	nop
    5490:	08001a01 	j	6804 <_dtoa_r+0x215c>
    5494:	00000000 	nop
    5498:	8fc300ac 	lw	v1,172(s8)
    549c:	8fc200a8 	lw	v0,168(s8)
    54a0:	8f858044 	lw	a1,-32700(gp)
    54a4:	8f848040 	lw	a0,-32704(gp)
    54a8:	00603821 	move	a3,v1
    54ac:	00403021 	move	a2,v0
    54b0:	0c004e7f 	jal	139fc <__subdf3>
    54b4:	00000000 	nop
    54b8:	00602821 	move	a1,v1
    54bc:	00402021 	move	a0,v0
    54c0:	8fc300bc 	lw	v1,188(s8)
    54c4:	8fc200b8 	lw	v0,184(s8)
    54c8:	00603821 	move	a3,v1
    54cc:	00403021 	move	a2,v0
    54d0:	0c005030 	jal	140c0 <__ltdf2>
    54d4:	00000000 	nop
    54d8:	04410003 	bgez	v0,54e8 <_dtoa_r+0xe40>
    54dc:	00000000 	nop
    54e0:	08001677 	j	59dc <_dtoa_r+0x1334>
    54e4:	00000000 	nop
    54e8:	8fc20024 	lw	v0,36(s8)
    54ec:	00000000 	nop
    54f0:	24420001 	addiu	v0,v0,1
    54f4:	afc20024 	sw	v0,36(s8)
    54f8:	8fc30024 	lw	v1,36(s8)
    54fc:	8fc2002c 	lw	v0,44(s8)
    5500:	00000000 	nop
    5504:	0062102a 	slt	v0,v1,v0
    5508:	14400004 	bnez	v0,551c <_dtoa_r+0xe74>
    550c:	00000000 	nop
    5510:	00000000 	nop
    5514:	080015dd 	j	5774 <_dtoa_r+0x10cc>
    5518:	00000000 	nop
    551c:	8fc300bc 	lw	v1,188(s8)
    5520:	8fc200b8 	lw	v0,184(s8)
    5524:	00602821 	move	a1,v1
    5528:	00402021 	move	a0,v0
    552c:	8f87804c 	lw	a3,-32692(gp)
    5530:	8f868048 	lw	a2,-32696(gp)
    5534:	0c004e98 	jal	13a60 <__muldf3>
    5538:	00000000 	nop
    553c:	afc300bc 	sw	v1,188(s8)
    5540:	afc200b8 	sw	v0,184(s8)
    5544:	8fc300ac 	lw	v1,172(s8)
    5548:	8fc200a8 	lw	v0,168(s8)
    554c:	00602821 	move	a1,v1
    5550:	00402021 	move	a0,v0
    5554:	8f87804c 	lw	a3,-32692(gp)
    5558:	8f868048 	lw	a2,-32696(gp)
    555c:	0c004e98 	jal	13a60 <__muldf3>
    5560:	00000000 	nop
    5564:	afc300ac 	sw	v1,172(s8)
    5568:	afc200a8 	sw	v0,168(s8)
    556c:	080014fa 	j	53e8 <_dtoa_r+0xd40>
    5570:	00000000 	nop
    5574:	8fc500bc 	lw	a1,188(s8)
    5578:	8fc400b8 	lw	a0,184(s8)
    557c:	8fc2002c 	lw	v0,44(s8)
    5580:	00000000 	nop
    5584:	2443ffff 	addiu	v1,v0,-1
    5588:	3c020001 	lui	v0,0x1
    558c:	000318c0 	sll	v1,v1,0x3
    5590:	24424c90 	addiu	v0,v0,19600
    5594:	00621021 	addu	v0,v1,v0
    5598:	8c430004 	lw	v1,4(v0)
    559c:	8c420000 	lw	v0,0(v0)
    55a0:	00603821 	move	a3,v1
    55a4:	00403021 	move	a2,v0
    55a8:	0c004e98 	jal	13a60 <__muldf3>
    55ac:	00000000 	nop
    55b0:	afc300bc 	sw	v1,188(s8)
    55b4:	afc200b8 	sw	v0,184(s8)
    55b8:	24020001 	li	v0,1
    55bc:	afc20024 	sw	v0,36(s8)
    55c0:	8fc300ac 	lw	v1,172(s8)
    55c4:	8fc200a8 	lw	v0,168(s8)
    55c8:	00602821 	move	a1,v1
    55cc:	00402021 	move	a0,v0
    55d0:	0c0050a4 	jal	14290 <__fixdfsi>
    55d4:	00000000 	nop
    55d8:	afc20090 	sw	v0,144(s8)
    55dc:	8fd100ac 	lw	s1,172(s8)
    55e0:	8fd000a8 	lw	s0,168(s8)
    55e4:	8fc40090 	lw	a0,144(s8)
    55e8:	0c00506c 	jal	141b0 <__floatsidf>
    55ec:	00000000 	nop
    55f0:	02202821 	move	a1,s1
    55f4:	02002021 	move	a0,s0
    55f8:	00603821 	move	a3,v1
    55fc:	00403021 	move	a2,v0
    5600:	0c004e7f 	jal	139fc <__subdf3>
    5604:	00000000 	nop
    5608:	afc300ac 	sw	v1,172(s8)
    560c:	afc200a8 	sw	v0,168(s8)
    5610:	8fc20078 	lw	v0,120(s8)
    5614:	00000000 	nop
    5618:	24430001 	addiu	v1,v0,1
    561c:	afc30078 	sw	v1,120(s8)
    5620:	8fc30090 	lw	v1,144(s8)
    5624:	00000000 	nop
    5628:	306300ff 	andi	v1,v1,0xff
    562c:	24630030 	addiu	v1,v1,48
    5630:	306300ff 	andi	v1,v1,0xff
    5634:	00031e00 	sll	v1,v1,0x18
    5638:	00031e03 	sra	v1,v1,0x18
    563c:	a0430000 	sb	v1,0(v0)
    5640:	8fc30024 	lw	v1,36(s8)
    5644:	8fc2002c 	lw	v0,44(s8)
    5648:	00000000 	nop
    564c:	14620039 	bne	v1,v0,5734 <_dtoa_r+0x108c>
    5650:	00000000 	nop
    5654:	8fd100ac 	lw	s1,172(s8)
    5658:	8fd000a8 	lw	s0,168(s8)
    565c:	8fc300bc 	lw	v1,188(s8)
    5660:	8fc200b8 	lw	v0,184(s8)
    5664:	00602821 	move	a1,v1
    5668:	00402021 	move	a0,v0
    566c:	8f878064 	lw	a3,-32668(gp)
    5670:	8f868060 	lw	a2,-32672(gp)
    5674:	0c004e69 	jal	139a4 <__adddf3>
    5678:	00000000 	nop
    567c:	02202821 	move	a1,s1
    5680:	02002021 	move	a0,s0
    5684:	00603821 	move	a3,v1
    5688:	00403021 	move	a2,v0
    568c:	0c005012 	jal	14048 <__gtdf2>
    5690:	00000000 	nop
    5694:	18400003 	blez	v0,56a4 <_dtoa_r+0xffc>
    5698:	00000000 	nop
    569c:	08001677 	j	59dc <_dtoa_r+0x1334>
    56a0:	00000000 	nop
    56a4:	8fd100ac 	lw	s1,172(s8)
    56a8:	8fd000a8 	lw	s0,168(s8)
    56ac:	8fc300bc 	lw	v1,188(s8)
    56b0:	8fc200b8 	lw	v0,184(s8)
    56b4:	8f858064 	lw	a1,-32668(gp)
    56b8:	8f848060 	lw	a0,-32672(gp)
    56bc:	00603821 	move	a3,v1
    56c0:	00403021 	move	a2,v0
    56c4:	0c004e7f 	jal	139fc <__subdf3>
    56c8:	00000000 	nop
    56cc:	02202821 	move	a1,s1
    56d0:	02002021 	move	a0,s0
    56d4:	00603821 	move	a3,v1
    56d8:	00403021 	move	a2,v0
    56dc:	0c005030 	jal	140c0 <__ltdf2>
    56e0:	00000000 	nop
    56e4:	04400003 	bltz	v0,56f4 <_dtoa_r+0x104c>
    56e8:	00000000 	nop
    56ec:	080015dd 	j	5774 <_dtoa_r+0x10cc>
    56f0:	00000000 	nop
    56f4:	8fc20078 	lw	v0,120(s8)
    56f8:	00000000 	nop
    56fc:	2442ffff 	addiu	v0,v0,-1
    5700:	afc20078 	sw	v0,120(s8)
    5704:	8fc20078 	lw	v0,120(s8)
    5708:	00000000 	nop
    570c:	80430000 	lb	v1,0(v0)
    5710:	24020030 	li	v0,48
    5714:	1062fff7 	beq	v1,v0,56f4 <_dtoa_r+0x104c>
    5718:	00000000 	nop
    571c:	8fc20078 	lw	v0,120(s8)
    5720:	00000000 	nop
    5724:	24420001 	addiu	v0,v0,1
    5728:	afc20078 	sw	v0,120(s8)
    572c:	08001a01 	j	6804 <_dtoa_r+0x215c>
    5730:	00000000 	nop
    5734:	8fc20024 	lw	v0,36(s8)
    5738:	00000000 	nop
    573c:	24420001 	addiu	v0,v0,1
    5740:	afc20024 	sw	v0,36(s8)
    5744:	8fc300ac 	lw	v1,172(s8)
    5748:	8fc200a8 	lw	v0,168(s8)
    574c:	00602821 	move	a1,v1
    5750:	00402021 	move	a0,v0
    5754:	8f87804c 	lw	a3,-32692(gp)
    5758:	8f868048 	lw	a2,-32696(gp)
    575c:	0c004e98 	jal	13a60 <__muldf3>
    5760:	00000000 	nop
    5764:	afc300ac 	sw	v1,172(s8)
    5768:	afc200a8 	sw	v0,168(s8)
    576c:	08001570 	j	55c0 <_dtoa_r+0xf18>
    5770:	00000000 	nop
    5774:	8fc20080 	lw	v0,128(s8)
    5778:	00000000 	nop
    577c:	afc20078 	sw	v0,120(s8)
    5780:	8fc300b4 	lw	v1,180(s8)
    5784:	8fc200b0 	lw	v0,176(s8)
    5788:	afc300ac 	sw	v1,172(s8)
    578c:	afc200a8 	sw	v0,168(s8)
    5790:	8fc20084 	lw	v0,132(s8)
    5794:	00000000 	nop
    5798:	afc20038 	sw	v0,56(s8)
    579c:	8fc20088 	lw	v0,136(s8)
    57a0:	00000000 	nop
    57a4:	afc2002c 	sw	v0,44(s8)
    57a8:	8fc200a0 	lw	v0,160(s8)
    57ac:	00000000 	nop
    57b0:	044000d0 	bltz	v0,5af4 <_dtoa_r+0x144c>
    57b4:	00000000 	nop
    57b8:	8fc20038 	lw	v0,56(s8)
    57bc:	00000000 	nop
    57c0:	2842000f 	slti	v0,v0,15
    57c4:	104000cb 	beqz	v0,5af4 <_dtoa_r+0x144c>
    57c8:	00000000 	nop
    57cc:	3c020001 	lui	v0,0x1
    57d0:	8fc30038 	lw	v1,56(s8)
    57d4:	00000000 	nop
    57d8:	000318c0 	sll	v1,v1,0x3
    57dc:	24424c90 	addiu	v0,v0,19600
    57e0:	00621021 	addu	v0,v1,v0
    57e4:	8c430004 	lw	v1,4(v0)
    57e8:	8c420000 	lw	v0,0(v0)
    57ec:	afc30074 	sw	v1,116(s8)
    57f0:	afc20070 	sw	v0,112(s8)
    57f4:	8fc200ec 	lw	v0,236(s8)
    57f8:	00000000 	nop
    57fc:	0441001f 	bgez	v0,587c <_dtoa_r+0x11d4>
    5800:	00000000 	nop
    5804:	8fc2002c 	lw	v0,44(s8)
    5808:	00000000 	nop
    580c:	1c40001b 	bgtz	v0,587c <_dtoa_r+0x11d4>
    5810:	00000000 	nop
    5814:	afc00068 	sw	zero,104(s8)
    5818:	8fc20068 	lw	v0,104(s8)
    581c:	00000000 	nop
    5820:	afc2006c 	sw	v0,108(s8)
    5824:	8fc2002c 	lw	v0,44(s8)
    5828:	00000000 	nop
    582c:	0440023b 	bltz	v0,611c <_dtoa_r+0x1a74>
    5830:	00000000 	nop
    5834:	8fd100ac 	lw	s1,172(s8)
    5838:	8fd000a8 	lw	s0,168(s8)
    583c:	8fc50074 	lw	a1,116(s8)
    5840:	8fc40070 	lw	a0,112(s8)
    5844:	8f87805c 	lw	a3,-32676(gp)
    5848:	8f868058 	lw	a2,-32680(gp)
    584c:	0c004e98 	jal	13a60 <__muldf3>
    5850:	00000000 	nop
    5854:	02202821 	move	a1,s1
    5858:	02002021 	move	a0,s0
    585c:	00603821 	move	a3,v1
    5860:	00403021 	move	a2,v0
    5864:	0c00504e 	jal	14138 <__ledf2>
    5868:	00000000 	nop
    586c:	1840022b 	blez	v0,611c <_dtoa_r+0x1a74>
    5870:	00000000 	nop
    5874:	0800184d 	j	6134 <_dtoa_r+0x1a8c>
    5878:	00000000 	nop
    587c:	24020001 	li	v0,1
    5880:	afc20024 	sw	v0,36(s8)
    5884:	8fc300ac 	lw	v1,172(s8)
    5888:	8fc200a8 	lw	v0,168(s8)
    588c:	00602821 	move	a1,v1
    5890:	00402021 	move	a0,v0
    5894:	8fc70074 	lw	a3,116(s8)
    5898:	8fc60070 	lw	a2,112(s8)
    589c:	0c004f53 	jal	13d4c <__divdf3>
    58a0:	00000000 	nop
    58a4:	00602821 	move	a1,v1
    58a8:	00402021 	move	a0,v0
    58ac:	0c0050a4 	jal	14290 <__fixdfsi>
    58b0:	00000000 	nop
    58b4:	afc20090 	sw	v0,144(s8)
    58b8:	8fd100ac 	lw	s1,172(s8)
    58bc:	8fd000a8 	lw	s0,168(s8)
    58c0:	8fc40090 	lw	a0,144(s8)
    58c4:	0c00506c 	jal	141b0 <__floatsidf>
    58c8:	00000000 	nop
    58cc:	00602821 	move	a1,v1
    58d0:	00402021 	move	a0,v0
    58d4:	8fc70074 	lw	a3,116(s8)
    58d8:	8fc60070 	lw	a2,112(s8)
    58dc:	0c004e98 	jal	13a60 <__muldf3>
    58e0:	00000000 	nop
    58e4:	02202821 	move	a1,s1
    58e8:	02002021 	move	a0,s0
    58ec:	00603821 	move	a3,v1
    58f0:	00403021 	move	a2,v0
    58f4:	0c004e7f 	jal	139fc <__subdf3>
    58f8:	00000000 	nop
    58fc:	afc300ac 	sw	v1,172(s8)
    5900:	afc200a8 	sw	v0,168(s8)
    5904:	8fc20078 	lw	v0,120(s8)
    5908:	00000000 	nop
    590c:	24430001 	addiu	v1,v0,1
    5910:	afc30078 	sw	v1,120(s8)
    5914:	8fc30090 	lw	v1,144(s8)
    5918:	00000000 	nop
    591c:	306300ff 	andi	v1,v1,0xff
    5920:	24630030 	addiu	v1,v1,48
    5924:	306300ff 	andi	v1,v1,0xff
    5928:	00031e00 	sll	v1,v1,0x18
    592c:	00031e03 	sra	v1,v1,0x18
    5930:	a0430000 	sb	v1,0(v0)
    5934:	8fc30024 	lw	v1,36(s8)
    5938:	8fc2002c 	lw	v0,44(s8)
    593c:	00000000 	nop
    5940:	1462004e 	bne	v1,v0,5a7c <_dtoa_r+0x13d4>
    5944:	00000000 	nop
    5948:	8fc300ac 	lw	v1,172(s8)
    594c:	8fc200a8 	lw	v0,168(s8)
    5950:	00602821 	move	a1,v1
    5954:	00402021 	move	a0,v0
    5958:	00603821 	move	a3,v1
    595c:	00403021 	move	a2,v0
    5960:	0c004e69 	jal	139a4 <__adddf3>
    5964:	00000000 	nop
    5968:	afc300ac 	sw	v1,172(s8)
    596c:	afc200a8 	sw	v0,168(s8)
    5970:	8fc300ac 	lw	v1,172(s8)
    5974:	8fc200a8 	lw	v0,168(s8)
    5978:	00602821 	move	a1,v1
    597c:	00402021 	move	a0,v0
    5980:	8fc70074 	lw	a3,116(s8)
    5984:	8fc60070 	lw	a2,112(s8)
    5988:	0c005012 	jal	14048 <__gtdf2>
    598c:	00000000 	nop
    5990:	1c400012 	bgtz	v0,59dc <_dtoa_r+0x1334>
    5994:	00000000 	nop
    5998:	8fc300ac 	lw	v1,172(s8)
    599c:	8fc200a8 	lw	v0,168(s8)
    59a0:	00602821 	move	a1,v1
    59a4:	00402021 	move	a0,v0
    59a8:	8fc70074 	lw	a3,116(s8)
    59ac:	8fc60070 	lw	a2,112(s8)
    59b0:	0c004fd6 	jal	13f58 <__eqdf2>
    59b4:	00000000 	nop
    59b8:	10400003 	beqz	v0,59c8 <_dtoa_r+0x1320>
    59bc:	00000000 	nop
    59c0:	080016bb 	j	5aec <_dtoa_r+0x1444>
    59c4:	00000000 	nop
    59c8:	8fc20090 	lw	v0,144(s8)
    59cc:	00000000 	nop
    59d0:	30420001 	andi	v0,v0,0x1
    59d4:	10400027 	beqz	v0,5a74 <_dtoa_r+0x13cc>
    59d8:	00000000 	nop
    59dc:	08001687 	j	5a1c <_dtoa_r+0x1374>
    59e0:	00000000 	nop
    59e4:	8fc30078 	lw	v1,120(s8)
    59e8:	8fc20080 	lw	v0,128(s8)
    59ec:	00000000 	nop
    59f0:	1462000a 	bne	v1,v0,5a1c <_dtoa_r+0x1374>
    59f4:	00000000 	nop
    59f8:	8fc20038 	lw	v0,56(s8)
    59fc:	00000000 	nop
    5a00:	24420001 	addiu	v0,v0,1
    5a04:	afc20038 	sw	v0,56(s8)
    5a08:	8fc20078 	lw	v0,120(s8)
    5a0c:	24030030 	li	v1,48
    5a10:	a0430000 	sb	v1,0(v0)
    5a14:	08001691 	j	5a44 <_dtoa_r+0x139c>
    5a18:	00000000 	nop
    5a1c:	8fc20078 	lw	v0,120(s8)
    5a20:	00000000 	nop
    5a24:	2442ffff 	addiu	v0,v0,-1
    5a28:	afc20078 	sw	v0,120(s8)
    5a2c:	8fc20078 	lw	v0,120(s8)
    5a30:	00000000 	nop
    5a34:	80430000 	lb	v1,0(v0)
    5a38:	24020039 	li	v0,57
    5a3c:	1062ffe9 	beq	v1,v0,59e4 <_dtoa_r+0x133c>
    5a40:	00000000 	nop
    5a44:	8fc20078 	lw	v0,120(s8)
    5a48:	00000000 	nop
    5a4c:	24430001 	addiu	v1,v0,1
    5a50:	afc30078 	sw	v1,120(s8)
    5a54:	80430000 	lb	v1,0(v0)
    5a58:	00000000 	nop
    5a5c:	24630001 	addiu	v1,v1,1
    5a60:	00031e00 	sll	v1,v1,0x18
    5a64:	00031e03 	sra	v1,v1,0x18
    5a68:	a0430000 	sb	v1,0(v0)
    5a6c:	080016bb 	j	5aec <_dtoa_r+0x1444>
    5a70:	00000000 	nop
    5a74:	080016bb 	j	5aec <_dtoa_r+0x1444>
    5a78:	00000000 	nop
    5a7c:	8fc300ac 	lw	v1,172(s8)
    5a80:	8fc200a8 	lw	v0,168(s8)
    5a84:	00602821 	move	a1,v1
    5a88:	00402021 	move	a0,v0
    5a8c:	8f87804c 	lw	a3,-32692(gp)
    5a90:	8f868048 	lw	a2,-32696(gp)
    5a94:	0c004e98 	jal	13a60 <__muldf3>
    5a98:	00000000 	nop
    5a9c:	afc300ac 	sw	v1,172(s8)
    5aa0:	afc200a8 	sw	v0,168(s8)
    5aa4:	8fc300ac 	lw	v1,172(s8)
    5aa8:	8fc200a8 	lw	v0,168(s8)
    5aac:	00602821 	move	a1,v1
    5ab0:	00402021 	move	a0,v0
    5ab4:	00003821 	move	a3,zero
    5ab8:	00003021 	move	a2,zero
    5abc:	0c004fd6 	jal	13f58 <__eqdf2>
    5ac0:	00000000 	nop
    5ac4:	14400003 	bnez	v0,5ad4 <_dtoa_r+0x142c>
    5ac8:	00000000 	nop
    5acc:	080016bb 	j	5aec <_dtoa_r+0x1444>
    5ad0:	00000000 	nop
    5ad4:	8fc20024 	lw	v0,36(s8)
    5ad8:	00000000 	nop
    5adc:	24420001 	addiu	v0,v0,1
    5ae0:	afc20024 	sw	v0,36(s8)
    5ae4:	08001621 	j	5884 <_dtoa_r+0x11dc>
    5ae8:	00000000 	nop
    5aec:	08001a01 	j	6804 <_dtoa_r+0x215c>
    5af0:	00000000 	nop
    5af4:	8fc20018 	lw	v0,24(s8)
    5af8:	00000000 	nop
    5afc:	afc20044 	sw	v0,68(s8)
    5b00:	8fc2001c 	lw	v0,28(s8)
    5b04:	00000000 	nop
    5b08:	afc20048 	sw	v0,72(s8)
    5b0c:	afc00064 	sw	zero,100(s8)
    5b10:	8fc20064 	lw	v0,100(s8)
    5b14:	00000000 	nop
    5b18:	afc20068 	sw	v0,104(s8)
    5b1c:	8fc20040 	lw	v0,64(s8)
    5b20:	00000000 	nop
    5b24:	10400052 	beqz	v0,5c70 <_dtoa_r+0x15c8>
    5b28:	00000000 	nop
    5b2c:	8fc200e8 	lw	v0,232(s8)
    5b30:	00000000 	nop
    5b34:	28420002 	slti	v0,v0,2
    5b38:	10400010 	beqz	v0,5b7c <_dtoa_r+0x14d4>
    5b3c:	00000000 	nop
    5b40:	8fc2005c 	lw	v0,92(s8)
    5b44:	00000000 	nop
    5b48:	10400006 	beqz	v0,5b64 <_dtoa_r+0x14bc>
    5b4c:	00000000 	nop
    5b50:	8fc200a0 	lw	v0,160(s8)
    5b54:	00000000 	nop
    5b58:	24420433 	addiu	v0,v0,1075
    5b5c:	080016dc 	j	5b70 <_dtoa_r+0x14c8>
    5b60:	00000000 	nop
    5b64:	8fc2009c 	lw	v0,156(s8)
    5b68:	24030036 	li	v1,54
    5b6c:	00621023 	subu	v0,v1,v0
    5b70:	afc20024 	sw	v0,36(s8)
    5b74:	0800170d 	j	5c34 <_dtoa_r+0x158c>
    5b78:	00000000 	nop
    5b7c:	8fc2002c 	lw	v0,44(s8)
    5b80:	00000000 	nop
    5b84:	2442ffff 	addiu	v0,v0,-1
    5b88:	afc20034 	sw	v0,52(s8)
    5b8c:	8fc30048 	lw	v1,72(s8)
    5b90:	8fc20034 	lw	v0,52(s8)
    5b94:	00000000 	nop
    5b98:	0062102a 	slt	v0,v1,v0
    5b9c:	14400008 	bnez	v0,5bc0 <_dtoa_r+0x1518>
    5ba0:	00000000 	nop
    5ba4:	8fc30048 	lw	v1,72(s8)
    5ba8:	8fc20034 	lw	v0,52(s8)
    5bac:	00000000 	nop
    5bb0:	00621023 	subu	v0,v1,v0
    5bb4:	afc20048 	sw	v0,72(s8)
    5bb8:	08001700 	j	5c00 <_dtoa_r+0x1558>
    5bbc:	00000000 	nop
    5bc0:	8fc30034 	lw	v1,52(s8)
    5bc4:	8fc20048 	lw	v0,72(s8)
    5bc8:	00000000 	nop
    5bcc:	00621023 	subu	v0,v1,v0
    5bd0:	afc20034 	sw	v0,52(s8)
    5bd4:	8fc30050 	lw	v1,80(s8)
    5bd8:	8fc20034 	lw	v0,52(s8)
    5bdc:	00000000 	nop
    5be0:	00621021 	addu	v0,v1,v0
    5be4:	afc20050 	sw	v0,80(s8)
    5be8:	8fc3001c 	lw	v1,28(s8)
    5bec:	8fc20034 	lw	v0,52(s8)
    5bf0:	00000000 	nop
    5bf4:	00621021 	addu	v0,v1,v0
    5bf8:	afc2001c 	sw	v0,28(s8)
    5bfc:	afc00048 	sw	zero,72(s8)
    5c00:	8fc2002c 	lw	v0,44(s8)
    5c04:	00000000 	nop
    5c08:	afc20024 	sw	v0,36(s8)
    5c0c:	8fc20024 	lw	v0,36(s8)
    5c10:	00000000 	nop
    5c14:	04410007 	bgez	v0,5c34 <_dtoa_r+0x158c>
    5c18:	00000000 	nop
    5c1c:	8fc30044 	lw	v1,68(s8)
    5c20:	8fc20024 	lw	v0,36(s8)
    5c24:	00000000 	nop
    5c28:	00621023 	subu	v0,v1,v0
    5c2c:	afc20044 	sw	v0,68(s8)
    5c30:	afc00024 	sw	zero,36(s8)
    5c34:	8fc30018 	lw	v1,24(s8)
    5c38:	8fc20024 	lw	v0,36(s8)
    5c3c:	00000000 	nop
    5c40:	00621021 	addu	v0,v1,v0
    5c44:	afc20018 	sw	v0,24(s8)
    5c48:	8fc3004c 	lw	v1,76(s8)
    5c4c:	8fc20024 	lw	v0,36(s8)
    5c50:	00000000 	nop
    5c54:	00621021 	addu	v0,v1,v0
    5c58:	afc2004c 	sw	v0,76(s8)
    5c5c:	8fc400d8 	lw	a0,216(s8)
    5c60:	24050001 	li	a1,1
    5c64:	0c002ad4 	jal	ab50 <__i2b>
    5c68:	00000000 	nop
    5c6c:	afc20068 	sw	v0,104(s8)
    5c70:	8fc20044 	lw	v0,68(s8)
    5c74:	00000000 	nop
    5c78:	1840001c 	blez	v0,5cec <_dtoa_r+0x1644>
    5c7c:	00000000 	nop
    5c80:	8fc2004c 	lw	v0,76(s8)
    5c84:	00000000 	nop
    5c88:	18400018 	blez	v0,5cec <_dtoa_r+0x1644>
    5c8c:	00000000 	nop
    5c90:	8fc30044 	lw	v1,68(s8)
    5c94:	8fc2004c 	lw	v0,76(s8)
    5c98:	00000000 	nop
    5c9c:	0062202a 	slt	a0,v1,v0
    5ca0:	10800002 	beqz	a0,5cac <_dtoa_r+0x1604>
    5ca4:	00000000 	nop
    5ca8:	00601021 	move	v0,v1
    5cac:	afc20024 	sw	v0,36(s8)
    5cb0:	8fc30018 	lw	v1,24(s8)
    5cb4:	8fc20024 	lw	v0,36(s8)
    5cb8:	00000000 	nop
    5cbc:	00621023 	subu	v0,v1,v0
    5cc0:	afc20018 	sw	v0,24(s8)
    5cc4:	8fc30044 	lw	v1,68(s8)
    5cc8:	8fc20024 	lw	v0,36(s8)
    5ccc:	00000000 	nop
    5cd0:	00621023 	subu	v0,v1,v0
    5cd4:	afc20044 	sw	v0,68(s8)
    5cd8:	8fc3004c 	lw	v1,76(s8)
    5cdc:	8fc20024 	lw	v0,36(s8)
    5ce0:	00000000 	nop
    5ce4:	00621023 	subu	v0,v1,v0
    5ce8:	afc2004c 	sw	v0,76(s8)
    5cec:	8fc2001c 	lw	v0,28(s8)
    5cf0:	00000000 	nop
    5cf4:	18400033 	blez	v0,5dc4 <_dtoa_r+0x171c>
    5cf8:	00000000 	nop
    5cfc:	8fc20040 	lw	v0,64(s8)
    5d00:	00000000 	nop
    5d04:	10400029 	beqz	v0,5dac <_dtoa_r+0x1704>
    5d08:	00000000 	nop
    5d0c:	8fc20048 	lw	v0,72(s8)
    5d10:	00000000 	nop
    5d14:	18400014 	blez	v0,5d68 <_dtoa_r+0x16c0>
    5d18:	00000000 	nop
    5d1c:	8fc400d8 	lw	a0,216(s8)
    5d20:	8fc50068 	lw	a1,104(s8)
    5d24:	8fc60048 	lw	a2,72(s8)
    5d28:	0c002c4d 	jal	b134 <__pow5mult>
    5d2c:	00000000 	nop
    5d30:	afc20068 	sw	v0,104(s8)
    5d34:	8fc400d8 	lw	a0,216(s8)
    5d38:	8fc50068 	lw	a1,104(s8)
    5d3c:	8fc60060 	lw	a2,96(s8)
    5d40:	0c002aed 	jal	abb4 <__multiply>
    5d44:	00000000 	nop
    5d48:	afc20094 	sw	v0,148(s8)
    5d4c:	8fc400d8 	lw	a0,216(s8)
    5d50:	8fc50060 	lw	a1,96(s8)
    5d54:	0c002926 	jal	a498 <_Bfree>
    5d58:	00000000 	nop
    5d5c:	8fc20094 	lw	v0,148(s8)
    5d60:	00000000 	nop
    5d64:	afc20060 	sw	v0,96(s8)
    5d68:	8fc3001c 	lw	v1,28(s8)
    5d6c:	8fc20048 	lw	v0,72(s8)
    5d70:	00000000 	nop
    5d74:	00621023 	subu	v0,v1,v0
    5d78:	afc20034 	sw	v0,52(s8)
    5d7c:	8fc20034 	lw	v0,52(s8)
    5d80:	00000000 	nop
    5d84:	1040000f 	beqz	v0,5dc4 <_dtoa_r+0x171c>
    5d88:	00000000 	nop
    5d8c:	8fc400d8 	lw	a0,216(s8)
    5d90:	8fc50060 	lw	a1,96(s8)
    5d94:	8fc60034 	lw	a2,52(s8)
    5d98:	0c002c4d 	jal	b134 <__pow5mult>
    5d9c:	00000000 	nop
    5da0:	afc20060 	sw	v0,96(s8)
    5da4:	08001771 	j	5dc4 <_dtoa_r+0x171c>
    5da8:	00000000 	nop
    5dac:	8fc400d8 	lw	a0,216(s8)
    5db0:	8fc50060 	lw	a1,96(s8)
    5db4:	8fc6001c 	lw	a2,28(s8)
    5db8:	0c002c4d 	jal	b134 <__pow5mult>
    5dbc:	00000000 	nop
    5dc0:	afc20060 	sw	v0,96(s8)
    5dc4:	8fc400d8 	lw	a0,216(s8)
    5dc8:	24050001 	li	a1,1
    5dcc:	0c002ad4 	jal	ab50 <__i2b>
    5dd0:	00000000 	nop
    5dd4:	afc2006c 	sw	v0,108(s8)
    5dd8:	8fc20050 	lw	v0,80(s8)
    5ddc:	00000000 	nop
    5de0:	18400007 	blez	v0,5e00 <_dtoa_r+0x1758>
    5de4:	00000000 	nop
    5de8:	8fc400d8 	lw	a0,216(s8)
    5dec:	8fc5006c 	lw	a1,108(s8)
    5df0:	8fc60050 	lw	a2,80(s8)
    5df4:	0c002c4d 	jal	b134 <__pow5mult>
    5df8:	00000000 	nop
    5dfc:	afc2006c 	sw	v0,108(s8)
    5e00:	afc00054 	sw	zero,84(s8)
    5e04:	8fc200e8 	lw	v0,232(s8)
    5e08:	00000000 	nop
    5e0c:	28420002 	slti	v0,v0,2
    5e10:	1040001a 	beqz	v0,5e7c <_dtoa_r+0x17d4>
    5e14:	00000000 	nop
    5e18:	8fc200ac 	lw	v0,172(s8)
    5e1c:	00000000 	nop
    5e20:	14400016 	bnez	v0,5e7c <_dtoa_r+0x17d4>
    5e24:	00000000 	nop
    5e28:	8fc300a8 	lw	v1,168(s8)
    5e2c:	3c02000f 	lui	v0,0xf
    5e30:	3442ffff 	ori	v0,v0,0xffff
    5e34:	00621024 	and	v0,v1,v0
    5e38:	14400010 	bnez	v0,5e7c <_dtoa_r+0x17d4>
    5e3c:	00000000 	nop
    5e40:	8fc300a8 	lw	v1,168(s8)
    5e44:	3c027ff0 	lui	v0,0x7ff0
    5e48:	00621024 	and	v0,v1,v0
    5e4c:	1040000b 	beqz	v0,5e7c <_dtoa_r+0x17d4>
    5e50:	00000000 	nop
    5e54:	8fc20018 	lw	v0,24(s8)
    5e58:	00000000 	nop
    5e5c:	24420001 	addiu	v0,v0,1
    5e60:	afc20018 	sw	v0,24(s8)
    5e64:	8fc2004c 	lw	v0,76(s8)
    5e68:	00000000 	nop
    5e6c:	24420001 	addiu	v0,v0,1
    5e70:	afc2004c 	sw	v0,76(s8)
    5e74:	24020001 	li	v0,1
    5e78:	afc20054 	sw	v0,84(s8)
    5e7c:	8fc20050 	lw	v0,80(s8)
    5e80:	00000000 	nop
    5e84:	10400013 	beqz	v0,5ed4 <_dtoa_r+0x182c>
    5e88:	00000000 	nop
    5e8c:	8fc2006c 	lw	v0,108(s8)
    5e90:	00000000 	nop
    5e94:	8c420010 	lw	v0,16(v0)
    5e98:	00000000 	nop
    5e9c:	2442ffff 	addiu	v0,v0,-1
    5ea0:	8fc3006c 	lw	v1,108(s8)
    5ea4:	24420004 	addiu	v0,v0,4
    5ea8:	00021080 	sll	v0,v0,0x2
    5eac:	00621021 	addu	v0,v1,v0
    5eb0:	8c420004 	lw	v0,4(v0)
    5eb4:	00000000 	nop
    5eb8:	00402021 	move	a0,v0
    5ebc:	0c002a56 	jal	a958 <__hi0bits>
    5ec0:	00000000 	nop
    5ec4:	24030020 	li	v1,32
    5ec8:	00621023 	subu	v0,v1,v0
    5ecc:	080017b6 	j	5ed8 <_dtoa_r+0x1830>
    5ed0:	00000000 	nop
    5ed4:	24020001 	li	v0,1
    5ed8:	8fc3004c 	lw	v1,76(s8)
    5edc:	00000000 	nop
    5ee0:	00431021 	addu	v0,v0,v1
    5ee4:	3042001f 	andi	v0,v0,0x1f
    5ee8:	afc20024 	sw	v0,36(s8)
    5eec:	8fc20024 	lw	v0,36(s8)
    5ef0:	00000000 	nop
    5ef4:	10400006 	beqz	v0,5f10 <_dtoa_r+0x1868>
    5ef8:	00000000 	nop
    5efc:	24030020 	li	v1,32
    5f00:	8fc20024 	lw	v0,36(s8)
    5f04:	00000000 	nop
    5f08:	00621023 	subu	v0,v1,v0
    5f0c:	afc20024 	sw	v0,36(s8)
    5f10:	8fc20024 	lw	v0,36(s8)
    5f14:	00000000 	nop
    5f18:	28420005 	slti	v0,v0,5
    5f1c:	14400016 	bnez	v0,5f78 <_dtoa_r+0x18d0>
    5f20:	00000000 	nop
    5f24:	8fc20024 	lw	v0,36(s8)
    5f28:	00000000 	nop
    5f2c:	2442fffc 	addiu	v0,v0,-4
    5f30:	afc20024 	sw	v0,36(s8)
    5f34:	8fc30018 	lw	v1,24(s8)
    5f38:	8fc20024 	lw	v0,36(s8)
    5f3c:	00000000 	nop
    5f40:	00621021 	addu	v0,v1,v0
    5f44:	afc20018 	sw	v0,24(s8)
    5f48:	8fc30044 	lw	v1,68(s8)
    5f4c:	8fc20024 	lw	v0,36(s8)
    5f50:	00000000 	nop
    5f54:	00621021 	addu	v0,v1,v0
    5f58:	afc20044 	sw	v0,68(s8)
    5f5c:	8fc3004c 	lw	v1,76(s8)
    5f60:	8fc20024 	lw	v0,36(s8)
    5f64:	00000000 	nop
    5f68:	00621021 	addu	v0,v1,v0
    5f6c:	afc2004c 	sw	v0,76(s8)
    5f70:	080017f6 	j	5fd8 <_dtoa_r+0x1930>
    5f74:	00000000 	nop
    5f78:	8fc20024 	lw	v0,36(s8)
    5f7c:	00000000 	nop
    5f80:	28420004 	slti	v0,v0,4
    5f84:	10400014 	beqz	v0,5fd8 <_dtoa_r+0x1930>
    5f88:	00000000 	nop
    5f8c:	8fc20024 	lw	v0,36(s8)
    5f90:	00000000 	nop
    5f94:	2442001c 	addiu	v0,v0,28
    5f98:	afc20024 	sw	v0,36(s8)
    5f9c:	8fc30018 	lw	v1,24(s8)
    5fa0:	8fc20024 	lw	v0,36(s8)
    5fa4:	00000000 	nop
    5fa8:	00621021 	addu	v0,v1,v0
    5fac:	afc20018 	sw	v0,24(s8)
    5fb0:	8fc30044 	lw	v1,68(s8)
    5fb4:	8fc20024 	lw	v0,36(s8)
    5fb8:	00000000 	nop
    5fbc:	00621021 	addu	v0,v1,v0
    5fc0:	afc20044 	sw	v0,68(s8)
    5fc4:	8fc3004c 	lw	v1,76(s8)
    5fc8:	8fc20024 	lw	v0,36(s8)
    5fcc:	00000000 	nop
    5fd0:	00621021 	addu	v0,v1,v0
    5fd4:	afc2004c 	sw	v0,76(s8)
    5fd8:	8fc20018 	lw	v0,24(s8)
    5fdc:	00000000 	nop
    5fe0:	18400007 	blez	v0,6000 <_dtoa_r+0x1958>
    5fe4:	00000000 	nop
    5fe8:	8fc400d8 	lw	a0,216(s8)
    5fec:	8fc50060 	lw	a1,96(s8)
    5ff0:	8fc60018 	lw	a2,24(s8)
    5ff4:	0c002cd2 	jal	b348 <__lshift>
    5ff8:	00000000 	nop
    5ffc:	afc20060 	sw	v0,96(s8)
    6000:	8fc2004c 	lw	v0,76(s8)
    6004:	00000000 	nop
    6008:	18400007 	blez	v0,6028 <_dtoa_r+0x1980>
    600c:	00000000 	nop
    6010:	8fc400d8 	lw	a0,216(s8)
    6014:	8fc5006c 	lw	a1,108(s8)
    6018:	8fc6004c 	lw	a2,76(s8)
    601c:	0c002cd2 	jal	b348 <__lshift>
    6020:	00000000 	nop
    6024:	afc2006c 	sw	v0,108(s8)
    6028:	8fc2003c 	lw	v0,60(s8)
    602c:	00000000 	nop
    6030:	10400020 	beqz	v0,60b4 <_dtoa_r+0x1a0c>
    6034:	00000000 	nop
    6038:	8fc40060 	lw	a0,96(s8)
    603c:	8fc5006c 	lw	a1,108(s8)
    6040:	0c002d84 	jal	b610 <__mcmp>
    6044:	00000000 	nop
    6048:	0441001a 	bgez	v0,60b4 <_dtoa_r+0x1a0c>
    604c:	00000000 	nop
    6050:	8fc20038 	lw	v0,56(s8)
    6054:	00000000 	nop
    6058:	2442ffff 	addiu	v0,v0,-1
    605c:	afc20038 	sw	v0,56(s8)
    6060:	8fc400d8 	lw	a0,216(s8)
    6064:	8fc50060 	lw	a1,96(s8)
    6068:	2406000a 	li	a2,10
    606c:	00003821 	move	a3,zero
    6070:	0c00294d 	jal	a534 <__multadd>
    6074:	00000000 	nop
    6078:	afc20060 	sw	v0,96(s8)
    607c:	8fc20040 	lw	v0,64(s8)
    6080:	00000000 	nop
    6084:	10400008 	beqz	v0,60a8 <_dtoa_r+0x1a00>
    6088:	00000000 	nop
    608c:	8fc400d8 	lw	a0,216(s8)
    6090:	8fc50068 	lw	a1,104(s8)
    6094:	2406000a 	li	a2,10
    6098:	00003821 	move	a3,zero
    609c:	0c00294d 	jal	a534 <__multadd>
    60a0:	00000000 	nop
    60a4:	afc20068 	sw	v0,104(s8)
    60a8:	8fc20030 	lw	v0,48(s8)
    60ac:	00000000 	nop
    60b0:	afc2002c 	sw	v0,44(s8)
    60b4:	8fc2002c 	lw	v0,44(s8)
    60b8:	00000000 	nop
    60bc:	1c400029 	bgtz	v0,6164 <_dtoa_r+0x1abc>
    60c0:	00000000 	nop
    60c4:	8fc200e8 	lw	v0,232(s8)
    60c8:	00000000 	nop
    60cc:	28420003 	slti	v0,v0,3
    60d0:	14400024 	bnez	v0,6164 <_dtoa_r+0x1abc>
    60d4:	00000000 	nop
    60d8:	8fc2002c 	lw	v0,44(s8)
    60dc:	00000000 	nop
    60e0:	0440000e 	bltz	v0,611c <_dtoa_r+0x1a74>
    60e4:	00000000 	nop
    60e8:	8fc400d8 	lw	a0,216(s8)
    60ec:	8fc5006c 	lw	a1,108(s8)
    60f0:	24060005 	li	a2,5
    60f4:	00003821 	move	a3,zero
    60f8:	0c00294d 	jal	a534 <__multadd>
    60fc:	00000000 	nop
    6100:	afc2006c 	sw	v0,108(s8)
    6104:	8fc40060 	lw	a0,96(s8)
    6108:	8fc5006c 	lw	a1,108(s8)
    610c:	0c002d84 	jal	b610 <__mcmp>
    6110:	00000000 	nop
    6114:	1c400007 	bgtz	v0,6134 <_dtoa_r+0x1a8c>
    6118:	00000000 	nop
    611c:	8fc200ec 	lw	v0,236(s8)
    6120:	00000000 	nop
    6124:	00021027 	nor	v0,zero,v0
    6128:	afc20038 	sw	v0,56(s8)
    612c:	080019e8 	j	67a0 <_dtoa_r+0x20f8>
    6130:	00000000 	nop
    6134:	8fc20078 	lw	v0,120(s8)
    6138:	00000000 	nop
    613c:	24430001 	addiu	v1,v0,1
    6140:	afc30078 	sw	v1,120(s8)
    6144:	24030031 	li	v1,49
    6148:	a0430000 	sb	v1,0(v0)
    614c:	8fc20038 	lw	v0,56(s8)
    6150:	00000000 	nop
    6154:	24420001 	addiu	v0,v0,1
    6158:	afc20038 	sw	v0,56(s8)
    615c:	080019e8 	j	67a0 <_dtoa_r+0x20f8>
    6160:	00000000 	nop
    6164:	8fc20040 	lw	v0,64(s8)
    6168:	00000000 	nop
    616c:	10400117 	beqz	v0,65cc <_dtoa_r+0x1f24>
    6170:	00000000 	nop
    6174:	8fc20044 	lw	v0,68(s8)
    6178:	00000000 	nop
    617c:	18400007 	blez	v0,619c <_dtoa_r+0x1af4>
    6180:	00000000 	nop
    6184:	8fc400d8 	lw	a0,216(s8)
    6188:	8fc50068 	lw	a1,104(s8)
    618c:	8fc60044 	lw	a2,68(s8)
    6190:	0c002cd2 	jal	b348 <__lshift>
    6194:	00000000 	nop
    6198:	afc20068 	sw	v0,104(s8)
    619c:	8fc20068 	lw	v0,104(s8)
    61a0:	00000000 	nop
    61a4:	afc20064 	sw	v0,100(s8)
    61a8:	8fc20054 	lw	v0,84(s8)
    61ac:	00000000 	nop
    61b0:	1040001f 	beqz	v0,6230 <_dtoa_r+0x1b88>
    61b4:	00000000 	nop
    61b8:	8fc20068 	lw	v0,104(s8)
    61bc:	00000000 	nop
    61c0:	8c420004 	lw	v0,4(v0)
    61c4:	8fc400d8 	lw	a0,216(s8)
    61c8:	00402821 	move	a1,v0
    61cc:	0c0028be 	jal	a2f8 <_Balloc>
    61d0:	00000000 	nop
    61d4:	afc20068 	sw	v0,104(s8)
    61d8:	8fc20068 	lw	v0,104(s8)
    61dc:	00000000 	nop
    61e0:	2444000c 	addiu	a0,v0,12
    61e4:	8fc20064 	lw	v0,100(s8)
    61e8:	00000000 	nop
    61ec:	2443000c 	addiu	v1,v0,12
    61f0:	8fc20064 	lw	v0,100(s8)
    61f4:	00000000 	nop
    61f8:	8c420010 	lw	v0,16(v0)
    61fc:	00000000 	nop
    6200:	24420002 	addiu	v0,v0,2
    6204:	00021080 	sll	v0,v0,0x2
    6208:	00602821 	move	a1,v1
    620c:	00403021 	move	a2,v0
    6210:	0c002724 	jal	9c90 <memcpy>
    6214:	00000000 	nop
    6218:	8fc400d8 	lw	a0,216(s8)
    621c:	8fc50068 	lw	a1,104(s8)
    6220:	24060001 	li	a2,1
    6224:	0c002cd2 	jal	b348 <__lshift>
    6228:	00000000 	nop
    622c:	afc20068 	sw	v0,104(s8)
    6230:	24020001 	li	v0,1
    6234:	afc20024 	sw	v0,36(s8)
    6238:	8fc40060 	lw	a0,96(s8)
    623c:	8fc5006c 	lw	a1,108(s8)
    6240:	0c001058 	jal	4160 <quorem>
    6244:	00000000 	nop
    6248:	24420030 	addiu	v0,v0,48
    624c:	afc20020 	sw	v0,32(s8)
    6250:	8fc40060 	lw	a0,96(s8)
    6254:	8fc50064 	lw	a1,100(s8)
    6258:	0c002d84 	jal	b610 <__mcmp>
    625c:	00000000 	nop
    6260:	afc20034 	sw	v0,52(s8)
    6264:	8fc400d8 	lw	a0,216(s8)
    6268:	8fc5006c 	lw	a1,108(s8)
    626c:	8fc60068 	lw	a2,104(s8)
    6270:	0c002de7 	jal	b79c <__mdiff>
    6274:	00000000 	nop
    6278:	afc20098 	sw	v0,152(s8)
    627c:	8fc20098 	lw	v0,152(s8)
    6280:	00000000 	nop
    6284:	8c42000c 	lw	v0,12(v0)
    6288:	00000000 	nop
    628c:	14400007 	bnez	v0,62ac <_dtoa_r+0x1c04>
    6290:	00000000 	nop
    6294:	8fc40060 	lw	a0,96(s8)
    6298:	8fc50098 	lw	a1,152(s8)
    629c:	0c002d84 	jal	b610 <__mcmp>
    62a0:	00000000 	nop
    62a4:	080018ac 	j	62b0 <_dtoa_r+0x1c08>
    62a8:	00000000 	nop
    62ac:	24020001 	li	v0,1
    62b0:	afc2008c 	sw	v0,140(s8)
    62b4:	8fc400d8 	lw	a0,216(s8)
    62b8:	8fc50098 	lw	a1,152(s8)
    62bc:	0c002926 	jal	a498 <_Bfree>
    62c0:	00000000 	nop
    62c4:	8fc2008c 	lw	v0,140(s8)
    62c8:	00000000 	nop
    62cc:	14400023 	bnez	v0,635c <_dtoa_r+0x1cb4>
    62d0:	00000000 	nop
    62d4:	8fc200e8 	lw	v0,232(s8)
    62d8:	00000000 	nop
    62dc:	1440001f 	bnez	v0,635c <_dtoa_r+0x1cb4>
    62e0:	00000000 	nop
    62e4:	8fc200ac 	lw	v0,172(s8)
    62e8:	00000000 	nop
    62ec:	30420001 	andi	v0,v0,0x1
    62f0:	1440001a 	bnez	v0,635c <_dtoa_r+0x1cb4>
    62f4:	00000000 	nop
    62f8:	8fc30020 	lw	v1,32(s8)
    62fc:	24020039 	li	v0,57
    6300:	14620003 	bne	v1,v0,6310 <_dtoa_r+0x1c68>
    6304:	00000000 	nop
    6308:	08001920 	j	6480 <_dtoa_r+0x1dd8>
    630c:	00000000 	nop
    6310:	8fc20034 	lw	v0,52(s8)
    6314:	00000000 	nop
    6318:	18400005 	blez	v0,6330 <_dtoa_r+0x1c88>
    631c:	00000000 	nop
    6320:	8fc20020 	lw	v0,32(s8)
    6324:	00000000 	nop
    6328:	24420001 	addiu	v0,v0,1
    632c:	afc20020 	sw	v0,32(s8)
    6330:	8fc20078 	lw	v0,120(s8)
    6334:	00000000 	nop
    6338:	24430001 	addiu	v1,v0,1
    633c:	afc30078 	sw	v1,120(s8)
    6340:	8fc30020 	lw	v1,32(s8)
    6344:	00000000 	nop
    6348:	00031e00 	sll	v1,v1,0x18
    634c:	00031e03 	sra	v1,v1,0x18
    6350:	a0430000 	sb	v1,0(v0)
    6354:	080019e8 	j	67a0 <_dtoa_r+0x20f8>
    6358:	00000000 	nop
    635c:	8fc20034 	lw	v0,52(s8)
    6360:	00000000 	nop
    6364:	0440000e 	bltz	v0,63a0 <_dtoa_r+0x1cf8>
    6368:	00000000 	nop
    636c:	8fc20034 	lw	v0,52(s8)
    6370:	00000000 	nop
    6374:	1440003a 	bnez	v0,6460 <_dtoa_r+0x1db8>
    6378:	00000000 	nop
    637c:	8fc200e8 	lw	v0,232(s8)
    6380:	00000000 	nop
    6384:	14400036 	bnez	v0,6460 <_dtoa_r+0x1db8>
    6388:	00000000 	nop
    638c:	8fc200ac 	lw	v0,172(s8)
    6390:	00000000 	nop
    6394:	30420001 	andi	v0,v0,0x1
    6398:	14400031 	bnez	v0,6460 <_dtoa_r+0x1db8>
    639c:	00000000 	nop
    63a0:	8fc2008c 	lw	v0,140(s8)
    63a4:	00000000 	nop
    63a8:	18400022 	blez	v0,6434 <_dtoa_r+0x1d8c>
    63ac:	00000000 	nop
    63b0:	8fc400d8 	lw	a0,216(s8)
    63b4:	8fc50060 	lw	a1,96(s8)
    63b8:	24060001 	li	a2,1
    63bc:	0c002cd2 	jal	b348 <__lshift>
    63c0:	00000000 	nop
    63c4:	afc20060 	sw	v0,96(s8)
    63c8:	8fc40060 	lw	a0,96(s8)
    63cc:	8fc5006c 	lw	a1,108(s8)
    63d0:	0c002d84 	jal	b610 <__mcmp>
    63d4:	00000000 	nop
    63d8:	afc2008c 	sw	v0,140(s8)
    63dc:	8fc2008c 	lw	v0,140(s8)
    63e0:	00000000 	nop
    63e4:	1c40000a 	bgtz	v0,6410 <_dtoa_r+0x1d68>
    63e8:	00000000 	nop
    63ec:	8fc2008c 	lw	v0,140(s8)
    63f0:	00000000 	nop
    63f4:	1440000f 	bnez	v0,6434 <_dtoa_r+0x1d8c>
    63f8:	00000000 	nop
    63fc:	8fc20020 	lw	v0,32(s8)
    6400:	00000000 	nop
    6404:	30420001 	andi	v0,v0,0x1
    6408:	1040000a 	beqz	v0,6434 <_dtoa_r+0x1d8c>
    640c:	00000000 	nop
    6410:	8fc20020 	lw	v0,32(s8)
    6414:	00000000 	nop
    6418:	24430001 	addiu	v1,v0,1
    641c:	afc30020 	sw	v1,32(s8)
    6420:	24030039 	li	v1,57
    6424:	14430003 	bne	v0,v1,6434 <_dtoa_r+0x1d8c>
    6428:	00000000 	nop
    642c:	08001920 	j	6480 <_dtoa_r+0x1dd8>
    6430:	00000000 	nop
    6434:	8fc20078 	lw	v0,120(s8)
    6438:	00000000 	nop
    643c:	24430001 	addiu	v1,v0,1
    6440:	afc30078 	sw	v1,120(s8)
    6444:	8fc30020 	lw	v1,32(s8)
    6448:	00000000 	nop
    644c:	00031e00 	sll	v1,v1,0x18
    6450:	00031e03 	sra	v1,v1,0x18
    6454:	a0430000 	sb	v1,0(v0)
    6458:	080019e8 	j	67a0 <_dtoa_r+0x20f8>
    645c:	00000000 	nop
    6460:	8fc2008c 	lw	v0,140(s8)
    6464:	00000000 	nop
    6468:	1840001b 	blez	v0,64d8 <_dtoa_r+0x1e30>
    646c:	00000000 	nop
    6470:	8fc30020 	lw	v1,32(s8)
    6474:	24020039 	li	v0,57
    6478:	14620009 	bne	v1,v0,64a0 <_dtoa_r+0x1df8>
    647c:	00000000 	nop
    6480:	8fc20078 	lw	v0,120(s8)
    6484:	00000000 	nop
    6488:	24430001 	addiu	v1,v0,1
    648c:	afc30078 	sw	v1,120(s8)
    6490:	24030039 	li	v1,57
    6494:	a0430000 	sb	v1,0(v0)
    6498:	080019b1 	j	66c4 <_dtoa_r+0x201c>
    649c:	00000000 	nop
    64a0:	8fc20078 	lw	v0,120(s8)
    64a4:	00000000 	nop
    64a8:	24430001 	addiu	v1,v0,1
    64ac:	afc30078 	sw	v1,120(s8)
    64b0:	8fc30020 	lw	v1,32(s8)
    64b4:	00000000 	nop
    64b8:	306300ff 	andi	v1,v1,0xff
    64bc:	24630001 	addiu	v1,v1,1
    64c0:	306300ff 	andi	v1,v1,0xff
    64c4:	00031e00 	sll	v1,v1,0x18
    64c8:	00031e03 	sra	v1,v1,0x18
    64cc:	a0430000 	sb	v1,0(v0)
    64d0:	080019e8 	j	67a0 <_dtoa_r+0x20f8>
    64d4:	00000000 	nop
    64d8:	8fc20078 	lw	v0,120(s8)
    64dc:	00000000 	nop
    64e0:	24430001 	addiu	v1,v0,1
    64e4:	afc30078 	sw	v1,120(s8)
    64e8:	8fc30020 	lw	v1,32(s8)
    64ec:	00000000 	nop
    64f0:	00031e00 	sll	v1,v1,0x18
    64f4:	00031e03 	sra	v1,v1,0x18
    64f8:	a0430000 	sb	v1,0(v0)
    64fc:	8fc30024 	lw	v1,36(s8)
    6500:	8fc2002c 	lw	v0,44(s8)
    6504:	00000000 	nop
    6508:	14620004 	bne	v1,v0,651c <_dtoa_r+0x1e74>
    650c:	00000000 	nop
    6510:	00000000 	nop
    6514:	08001999 	j	6664 <_dtoa_r+0x1fbc>
    6518:	00000000 	nop
    651c:	8fc400d8 	lw	a0,216(s8)
    6520:	8fc50060 	lw	a1,96(s8)
    6524:	2406000a 	li	a2,10
    6528:	00003821 	move	a3,zero
    652c:	0c00294d 	jal	a534 <__multadd>
    6530:	00000000 	nop
    6534:	afc20060 	sw	v0,96(s8)
    6538:	8fc30064 	lw	v1,100(s8)
    653c:	8fc20068 	lw	v0,104(s8)
    6540:	00000000 	nop
    6544:	1462000d 	bne	v1,v0,657c <_dtoa_r+0x1ed4>
    6548:	00000000 	nop
    654c:	8fc400d8 	lw	a0,216(s8)
    6550:	8fc50068 	lw	a1,104(s8)
    6554:	2406000a 	li	a2,10
    6558:	00003821 	move	a3,zero
    655c:	0c00294d 	jal	a534 <__multadd>
    6560:	00000000 	nop
    6564:	afc20068 	sw	v0,104(s8)
    6568:	8fc20068 	lw	v0,104(s8)
    656c:	00000000 	nop
    6570:	afc20064 	sw	v0,100(s8)
    6574:	0800196d 	j	65b4 <_dtoa_r+0x1f0c>
    6578:	00000000 	nop
    657c:	8fc400d8 	lw	a0,216(s8)
    6580:	8fc50064 	lw	a1,100(s8)
    6584:	2406000a 	li	a2,10
    6588:	00003821 	move	a3,zero
    658c:	0c00294d 	jal	a534 <__multadd>
    6590:	00000000 	nop
    6594:	afc20064 	sw	v0,100(s8)
    6598:	8fc400d8 	lw	a0,216(s8)
    659c:	8fc50068 	lw	a1,104(s8)
    65a0:	2406000a 	li	a2,10
    65a4:	00003821 	move	a3,zero
    65a8:	0c00294d 	jal	a534 <__multadd>
    65ac:	00000000 	nop
    65b0:	afc20068 	sw	v0,104(s8)
    65b4:	8fc20024 	lw	v0,36(s8)
    65b8:	00000000 	nop
    65bc:	24420001 	addiu	v0,v0,1
    65c0:	afc20024 	sw	v0,36(s8)
    65c4:	0800188e 	j	6238 <_dtoa_r+0x1b90>
    65c8:	00000000 	nop
    65cc:	24020001 	li	v0,1
    65d0:	afc20024 	sw	v0,36(s8)
    65d4:	8fd00078 	lw	s0,120(s8)
    65d8:	00000000 	nop
    65dc:	26020001 	addiu	v0,s0,1
    65e0:	afc20078 	sw	v0,120(s8)
    65e4:	8fc40060 	lw	a0,96(s8)
    65e8:	8fc5006c 	lw	a1,108(s8)
    65ec:	0c001058 	jal	4160 <quorem>
    65f0:	00000000 	nop
    65f4:	24420030 	addiu	v0,v0,48
    65f8:	afc20020 	sw	v0,32(s8)
    65fc:	8fc20020 	lw	v0,32(s8)
    6600:	00000000 	nop
    6604:	00021600 	sll	v0,v0,0x18
    6608:	00021603 	sra	v0,v0,0x18
    660c:	a2020000 	sb	v0,0(s0)
    6610:	8fc30024 	lw	v1,36(s8)
    6614:	8fc2002c 	lw	v0,44(s8)
    6618:	00000000 	nop
    661c:	0062102a 	slt	v0,v1,v0
    6620:	14400003 	bnez	v0,6630 <_dtoa_r+0x1f88>
    6624:	00000000 	nop
    6628:	08001999 	j	6664 <_dtoa_r+0x1fbc>
    662c:	00000000 	nop
    6630:	8fc400d8 	lw	a0,216(s8)
    6634:	8fc50060 	lw	a1,96(s8)
    6638:	2406000a 	li	a2,10
    663c:	00003821 	move	a3,zero
    6640:	0c00294d 	jal	a534 <__multadd>
    6644:	00000000 	nop
    6648:	afc20060 	sw	v0,96(s8)
    664c:	8fc20024 	lw	v0,36(s8)
    6650:	00000000 	nop
    6654:	24420001 	addiu	v0,v0,1
    6658:	afc20024 	sw	v0,36(s8)
    665c:	08001975 	j	65d4 <_dtoa_r+0x1f2c>
    6660:	00000000 	nop
    6664:	8fc400d8 	lw	a0,216(s8)
    6668:	8fc50060 	lw	a1,96(s8)
    666c:	24060001 	li	a2,1
    6670:	0c002cd2 	jal	b348 <__lshift>
    6674:	00000000 	nop
    6678:	afc20060 	sw	v0,96(s8)
    667c:	8fc40060 	lw	a0,96(s8)
    6680:	8fc5006c 	lw	a1,108(s8)
    6684:	0c002d84 	jal	b610 <__mcmp>
    6688:	00000000 	nop
    668c:	afc20034 	sw	v0,52(s8)
    6690:	8fc20034 	lw	v0,52(s8)
    6694:	00000000 	nop
    6698:	1c40000a 	bgtz	v0,66c4 <_dtoa_r+0x201c>
    669c:	00000000 	nop
    66a0:	8fc20034 	lw	v0,52(s8)
    66a4:	00000000 	nop
    66a8:	1440002f 	bnez	v0,6768 <_dtoa_r+0x20c0>
    66ac:	00000000 	nop
    66b0:	8fc20020 	lw	v0,32(s8)
    66b4:	00000000 	nop
    66b8:	30420001 	andi	v0,v0,0x1
    66bc:	1040002a 	beqz	v0,6768 <_dtoa_r+0x20c0>
    66c0:	00000000 	nop
    66c4:	080019c4 	j	6710 <_dtoa_r+0x2068>
    66c8:	00000000 	nop
    66cc:	8fc30078 	lw	v1,120(s8)
    66d0:	8fc20080 	lw	v0,128(s8)
    66d4:	00000000 	nop
    66d8:	1462000d 	bne	v1,v0,6710 <_dtoa_r+0x2068>
    66dc:	00000000 	nop
    66e0:	8fc20038 	lw	v0,56(s8)
    66e4:	00000000 	nop
    66e8:	24420001 	addiu	v0,v0,1
    66ec:	afc20038 	sw	v0,56(s8)
    66f0:	8fc20078 	lw	v0,120(s8)
    66f4:	00000000 	nop
    66f8:	24430001 	addiu	v1,v0,1
    66fc:	afc30078 	sw	v1,120(s8)
    6700:	24030031 	li	v1,49
    6704:	a0430000 	sb	v1,0(v0)
    6708:	080019e8 	j	67a0 <_dtoa_r+0x20f8>
    670c:	00000000 	nop
    6710:	8fc20078 	lw	v0,120(s8)
    6714:	00000000 	nop
    6718:	2442ffff 	addiu	v0,v0,-1
    671c:	afc20078 	sw	v0,120(s8)
    6720:	8fc20078 	lw	v0,120(s8)
    6724:	00000000 	nop
    6728:	80430000 	lb	v1,0(v0)
    672c:	24020039 	li	v0,57
    6730:	1062ffe6 	beq	v1,v0,66cc <_dtoa_r+0x2024>
    6734:	00000000 	nop
    6738:	8fc20078 	lw	v0,120(s8)
    673c:	00000000 	nop
    6740:	24430001 	addiu	v1,v0,1
    6744:	afc30078 	sw	v1,120(s8)
    6748:	80430000 	lb	v1,0(v0)
    674c:	00000000 	nop
    6750:	24630001 	addiu	v1,v1,1
    6754:	00031e00 	sll	v1,v1,0x18
    6758:	00031e03 	sra	v1,v1,0x18
    675c:	a0430000 	sb	v1,0(v0)
    6760:	080019e8 	j	67a0 <_dtoa_r+0x20f8>
    6764:	00000000 	nop
    6768:	8fc20078 	lw	v0,120(s8)
    676c:	00000000 	nop
    6770:	2442ffff 	addiu	v0,v0,-1
    6774:	afc20078 	sw	v0,120(s8)
    6778:	8fc20078 	lw	v0,120(s8)
    677c:	00000000 	nop
    6780:	80430000 	lb	v1,0(v0)
    6784:	24020030 	li	v0,48
    6788:	1062fff7 	beq	v1,v0,6768 <_dtoa_r+0x20c0>
    678c:	00000000 	nop
    6790:	8fc20078 	lw	v0,120(s8)
    6794:	00000000 	nop
    6798:	24420001 	addiu	v0,v0,1
    679c:	afc20078 	sw	v0,120(s8)
    67a0:	8fc400d8 	lw	a0,216(s8)
    67a4:	8fc5006c 	lw	a1,108(s8)
    67a8:	0c002926 	jal	a498 <_Bfree>
    67ac:	00000000 	nop
    67b0:	8fc20068 	lw	v0,104(s8)
    67b4:	00000000 	nop
    67b8:	10400012 	beqz	v0,6804 <_dtoa_r+0x215c>
    67bc:	00000000 	nop
    67c0:	8fc20064 	lw	v0,100(s8)
    67c4:	00000000 	nop
    67c8:	1040000a 	beqz	v0,67f4 <_dtoa_r+0x214c>
    67cc:	00000000 	nop
    67d0:	8fc30064 	lw	v1,100(s8)
    67d4:	8fc20068 	lw	v0,104(s8)
    67d8:	00000000 	nop
    67dc:	10620005 	beq	v1,v0,67f4 <_dtoa_r+0x214c>
    67e0:	00000000 	nop
    67e4:	8fc400d8 	lw	a0,216(s8)
    67e8:	8fc50064 	lw	a1,100(s8)
    67ec:	0c002926 	jal	a498 <_Bfree>
    67f0:	00000000 	nop
    67f4:	8fc400d8 	lw	a0,216(s8)
    67f8:	8fc50068 	lw	a1,104(s8)
    67fc:	0c002926 	jal	a498 <_Bfree>
    6800:	00000000 	nop
    6804:	8fc400d8 	lw	a0,216(s8)
    6808:	8fc50060 	lw	a1,96(s8)
    680c:	0c002926 	jal	a498 <_Bfree>
    6810:	00000000 	nop
    6814:	8fc20078 	lw	v0,120(s8)
    6818:	00000000 	nop
    681c:	a0400000 	sb	zero,0(v0)
    6820:	8fc20038 	lw	v0,56(s8)
    6824:	00000000 	nop
    6828:	24430001 	addiu	v1,v0,1
    682c:	8fc200f0 	lw	v0,240(s8)
    6830:	00000000 	nop
    6834:	ac430000 	sw	v1,0(v0)
    6838:	8fc200f8 	lw	v0,248(s8)
    683c:	00000000 	nop
    6840:	10400005 	beqz	v0,6858 <_dtoa_r+0x21b0>
    6844:	00000000 	nop
    6848:	8fc200f8 	lw	v0,248(s8)
    684c:	8fc30078 	lw	v1,120(s8)
    6850:	00000000 	nop
    6854:	ac430000 	sw	v1,0(v0)
    6858:	8fc20080 	lw	v0,128(s8)
    685c:	03c0e821 	move	sp,s8
    6860:	8fbf00d4 	lw	ra,212(sp)
    6864:	8fbe00d0 	lw	s8,208(sp)
    6868:	8fb300cc 	lw	s3,204(sp)
    686c:	8fb200c8 	lw	s2,200(sp)
    6870:	8fb100c4 	lw	s1,196(sp)
    6874:	8fb000c0 	lw	s0,192(sp)
    6878:	27bd00d8 	addiu	sp,sp,216
    687c:	03e00008 	jr	ra
    6880:	00000000 	nop

00006884 <__sflush_r>:
    6884:	27bdffc8 	addiu	sp,sp,-56
    6888:	afbf0034 	sw	ra,52(sp)
    688c:	afbe0030 	sw	s8,48(sp)
    6890:	afb3002c 	sw	s3,44(sp)
    6894:	afb20028 	sw	s2,40(sp)
    6898:	afb10024 	sw	s1,36(sp)
    689c:	afb00020 	sw	s0,32(sp)
    68a0:	03a0f021 	move	s8,sp
    68a4:	afc40038 	sw	a0,56(s8)
    68a8:	00a08021 	move	s0,a1
    68ac:	8602000c 	lh	v0,12(s0)
    68b0:	00000000 	nop
    68b4:	00409021 	move	s2,v0
    68b8:	32420008 	andi	v0,s2,0x8
    68bc:	144000c9 	bnez	v0,6be4 <__sflush_r+0x360>
    68c0:	00000000 	nop
    68c4:	8602000c 	lh	v0,12(s0)
    68c8:	00000000 	nop
    68cc:	34420800 	ori	v0,v0,0x800
    68d0:	00021400 	sll	v0,v0,0x10
    68d4:	00021403 	sra	v0,v0,0x10
    68d8:	a602000c 	sh	v0,12(s0)
    68dc:	8e020004 	lw	v0,4(s0)
    68e0:	00000000 	nop
    68e4:	1c400005 	bgtz	v0,68fc <__sflush_r+0x78>
    68e8:	00000000 	nop
    68ec:	8e02003c 	lw	v0,60(s0)
    68f0:	00000000 	nop
    68f4:	184000b8 	blez	v0,6bd8 <__sflush_r+0x354>
    68f8:	00000000 	nop
    68fc:	8e020028 	lw	v0,40(s0)
    6900:	00000000 	nop
    6904:	104000b4 	beqz	v0,6bd8 <__sflush_r+0x354>
    6908:	00000000 	nop
    690c:	8fc20038 	lw	v0,56(s8)
    6910:	00000000 	nop
    6914:	8c420000 	lw	v0,0(v0)
    6918:	00000000 	nop
    691c:	afc20018 	sw	v0,24(s8)
    6920:	8fc20038 	lw	v0,56(s8)
    6924:	00000000 	nop
    6928:	ac400000 	sw	zero,0(v0)
    692c:	8602000c 	lh	v0,12(s0)
    6930:	00000000 	nop
    6934:	3042ffff 	andi	v0,v0,0xffff
    6938:	30421000 	andi	v0,v0,0x1000
    693c:	10400006 	beqz	v0,6958 <__sflush_r+0xd4>
    6940:	00000000 	nop
    6944:	8e020050 	lw	v0,80(s0)
    6948:	00000000 	nop
    694c:	afc20010 	sw	v0,16(s8)
    6950:	08001a87 	j	6a1c <__sflush_r+0x198>
    6954:	00000000 	nop
    6958:	8e020028 	lw	v0,40(s0)
    695c:	8e03001c 	lw	v1,28(s0)
    6960:	8fc40038 	lw	a0,56(s8)
    6964:	00602821 	move	a1,v1
    6968:	00003021 	move	a2,zero
    696c:	24070001 	li	a3,1
    6970:	0040f809 	jalr	v0
    6974:	00000000 	nop
    6978:	afc20010 	sw	v0,16(s8)
    697c:	8fc30010 	lw	v1,16(s8)
    6980:	2402ffff 	li	v0,-1
    6984:	14620025 	bne	v1,v0,6a1c <__sflush_r+0x198>
    6988:	00000000 	nop
    698c:	8fc20038 	lw	v0,56(s8)
    6990:	00000000 	nop
    6994:	8c420000 	lw	v0,0(v0)
    6998:	00000000 	nop
    699c:	1040001f 	beqz	v0,6a1c <__sflush_r+0x198>
    69a0:	00000000 	nop
    69a4:	2402ffff 	li	v0,-1
    69a8:	afc20014 	sw	v0,20(s8)
    69ac:	8fc20038 	lw	v0,56(s8)
    69b0:	00000000 	nop
    69b4:	8c430000 	lw	v1,0(v0)
    69b8:	2402001d 	li	v0,29
    69bc:	10620007 	beq	v1,v0,69dc <__sflush_r+0x158>
    69c0:	00000000 	nop
    69c4:	8fc20038 	lw	v0,56(s8)
    69c8:	00000000 	nop
    69cc:	8c430000 	lw	v1,0(v0)
    69d0:	24020016 	li	v0,22
    69d4:	14620008 	bne	v1,v0,69f8 <__sflush_r+0x174>
    69d8:	00000000 	nop
    69dc:	afc00014 	sw	zero,20(s8)
    69e0:	8fc20038 	lw	v0,56(s8)
    69e4:	8fc30018 	lw	v1,24(s8)
    69e8:	00000000 	nop
    69ec:	ac430000 	sw	v1,0(v0)
    69f0:	08001a84 	j	6a10 <__sflush_r+0x18c>
    69f4:	00000000 	nop
    69f8:	8602000c 	lh	v0,12(s0)
    69fc:	00000000 	nop
    6a00:	34420040 	ori	v0,v0,0x40
    6a04:	00021400 	sll	v0,v0,0x10
    6a08:	00021403 	sra	v0,v0,0x10
    6a0c:	a602000c 	sh	v0,12(s0)
    6a10:	8fc20014 	lw	v0,20(s8)
    6a14:	08001b2a 	j	6ca8 <__sflush_r+0x424>
    6a18:	00000000 	nop
    6a1c:	8602000c 	lh	v0,12(s0)
    6a20:	00000000 	nop
    6a24:	3042ffff 	andi	v0,v0,0xffff
    6a28:	30420004 	andi	v0,v0,0x4
    6a2c:	1040000f 	beqz	v0,6a6c <__sflush_r+0x1e8>
    6a30:	00000000 	nop
    6a34:	8e020004 	lw	v0,4(s0)
    6a38:	8fc30010 	lw	v1,16(s8)
    6a3c:	00000000 	nop
    6a40:	00621023 	subu	v0,v1,v0
    6a44:	afc20010 	sw	v0,16(s8)
    6a48:	8e020030 	lw	v0,48(s0)
    6a4c:	00000000 	nop
    6a50:	10400006 	beqz	v0,6a6c <__sflush_r+0x1e8>
    6a54:	00000000 	nop
    6a58:	8e02003c 	lw	v0,60(s0)
    6a5c:	8fc30010 	lw	v1,16(s8)
    6a60:	00000000 	nop
    6a64:	00621023 	subu	v0,v1,v0
    6a68:	afc20010 	sw	v0,16(s8)
    6a6c:	8e020028 	lw	v0,40(s0)
    6a70:	8e03001c 	lw	v1,28(s0)
    6a74:	8fc40038 	lw	a0,56(s8)
    6a78:	00602821 	move	a1,v1
    6a7c:	8fc60010 	lw	a2,16(s8)
    6a80:	00003821 	move	a3,zero
    6a84:	0040f809 	jalr	v0
    6a88:	00000000 	nop
    6a8c:	afc20010 	sw	v0,16(s8)
    6a90:	8fc30010 	lw	v1,16(s8)
    6a94:	2402ffff 	li	v0,-1
    6a98:	14620013 	bne	v1,v0,6ae8 <__sflush_r+0x264>
    6a9c:	00000000 	nop
    6aa0:	8fc20038 	lw	v0,56(s8)
    6aa4:	00000000 	nop
    6aa8:	8c420000 	lw	v0,0(v0)
    6aac:	00000000 	nop
    6ab0:	1040000d 	beqz	v0,6ae8 <__sflush_r+0x264>
    6ab4:	00000000 	nop
    6ab8:	8fc20038 	lw	v0,56(s8)
    6abc:	00000000 	nop
    6ac0:	8c430000 	lw	v1,0(v0)
    6ac4:	2402001d 	li	v0,29
    6ac8:	10620007 	beq	v1,v0,6ae8 <__sflush_r+0x264>
    6acc:	00000000 	nop
    6ad0:	8fc20038 	lw	v0,56(s8)
    6ad4:	00000000 	nop
    6ad8:	8c430000 	lw	v1,0(v0)
    6adc:	24020016 	li	v0,22
    6ae0:	14620034 	bne	v1,v0,6bb4 <__sflush_r+0x330>
    6ae4:	00000000 	nop
    6ae8:	8603000c 	lh	v1,12(s0)
    6aec:	2402f7ff 	li	v0,-2049
    6af0:	00621024 	and	v0,v1,v0
    6af4:	00021400 	sll	v0,v0,0x10
    6af8:	00021403 	sra	v0,v0,0x10
    6afc:	a602000c 	sh	v0,12(s0)
    6b00:	ae000004 	sw	zero,4(s0)
    6b04:	8e020010 	lw	v0,16(s0)
    6b08:	00000000 	nop
    6b0c:	ae020000 	sw	v0,0(s0)
    6b10:	8602000c 	lh	v0,12(s0)
    6b14:	00000000 	nop
    6b18:	3042ffff 	andi	v0,v0,0xffff
    6b1c:	30421000 	andi	v0,v0,0x1000
    6b20:	1040000e 	beqz	v0,6b5c <__sflush_r+0x2d8>
    6b24:	00000000 	nop
    6b28:	8fc30010 	lw	v1,16(s8)
    6b2c:	2402ffff 	li	v0,-1
    6b30:	14620007 	bne	v1,v0,6b50 <__sflush_r+0x2cc>
    6b34:	00000000 	nop
    6b38:	8fc20038 	lw	v0,56(s8)
    6b3c:	00000000 	nop
    6b40:	8c420000 	lw	v0,0(v0)
    6b44:	00000000 	nop
    6b48:	14400004 	bnez	v0,6b5c <__sflush_r+0x2d8>
    6b4c:	00000000 	nop
    6b50:	8fc20010 	lw	v0,16(s8)
    6b54:	00000000 	nop
    6b58:	ae020050 	sw	v0,80(s0)
    6b5c:	8fc20038 	lw	v0,56(s8)
    6b60:	8fc30018 	lw	v1,24(s8)
    6b64:	00000000 	nop
    6b68:	ac430000 	sw	v1,0(v0)
    6b6c:	8e020030 	lw	v0,48(s0)
    6b70:	00000000 	nop
    6b74:	1040000d 	beqz	v0,6bac <__sflush_r+0x328>
    6b78:	00000000 	nop
    6b7c:	8e030030 	lw	v1,48(s0)
    6b80:	26020040 	addiu	v0,s0,64
    6b84:	10620006 	beq	v1,v0,6ba0 <__sflush_r+0x31c>
    6b88:	00000000 	nop
    6b8c:	8e020030 	lw	v0,48(s0)
    6b90:	8fc40038 	lw	a0,56(s8)
    6b94:	00402821 	move	a1,v0
    6b98:	0c001d5a 	jal	7568 <_free_r>
    6b9c:	00000000 	nop
    6ba0:	ae000030 	sw	zero,48(s0)
    6ba4:	08001af6 	j	6bd8 <__sflush_r+0x354>
    6ba8:	00000000 	nop
    6bac:	08001af6 	j	6bd8 <__sflush_r+0x354>
    6bb0:	00000000 	nop
    6bb4:	8602000c 	lh	v0,12(s0)
    6bb8:	00000000 	nop
    6bbc:	34420040 	ori	v0,v0,0x40
    6bc0:	00021400 	sll	v0,v0,0x10
    6bc4:	00021403 	sra	v0,v0,0x10
    6bc8:	a602000c 	sh	v0,12(s0)
    6bcc:	2402ffff 	li	v0,-1
    6bd0:	08001b2a 	j	6ca8 <__sflush_r+0x424>
    6bd4:	00000000 	nop
    6bd8:	00001021 	move	v0,zero
    6bdc:	08001b2a 	j	6ca8 <__sflush_r+0x424>
    6be0:	00000000 	nop
    6be4:	8e110010 	lw	s1,16(s0)
    6be8:	00000000 	nop
    6bec:	16200004 	bnez	s1,6c00 <__sflush_r+0x37c>
    6bf0:	00000000 	nop
    6bf4:	00001021 	move	v0,zero
    6bf8:	08001b2a 	j	6ca8 <__sflush_r+0x424>
    6bfc:	00000000 	nop
    6c00:	8e020000 	lw	v0,0(s0)
    6c04:	00000000 	nop
    6c08:	00401821 	move	v1,v0
    6c0c:	02201021 	move	v0,s1
    6c10:	00629823 	subu	s3,v1,v0
    6c14:	ae110000 	sw	s1,0(s0)
    6c18:	32420003 	andi	v0,s2,0x3
    6c1c:	14400004 	bnez	v0,6c30 <__sflush_r+0x3ac>
    6c20:	00000000 	nop
    6c24:	8e020014 	lw	v0,20(s0)
    6c28:	08001b0d 	j	6c34 <__sflush_r+0x3b0>
    6c2c:	00000000 	nop
    6c30:	00001021 	move	v0,zero
    6c34:	ae020008 	sw	v0,8(s0)
    6c38:	08001b27 	j	6c9c <__sflush_r+0x418>
    6c3c:	00000000 	nop
    6c40:	8e020024 	lw	v0,36(s0)
    6c44:	8e03001c 	lw	v1,28(s0)
    6c48:	8fc40038 	lw	a0,56(s8)
    6c4c:	00602821 	move	a1,v1
    6c50:	02203021 	move	a2,s1
    6c54:	02603821 	move	a3,s3
    6c58:	0040f809 	jalr	v0
    6c5c:	00000000 	nop
    6c60:	00409021 	move	s2,v0
    6c64:	1e40000a 	bgtz	s2,6c90 <__sflush_r+0x40c>
    6c68:	00000000 	nop
    6c6c:	8602000c 	lh	v0,12(s0)
    6c70:	00000000 	nop
    6c74:	34420040 	ori	v0,v0,0x40
    6c78:	00021400 	sll	v0,v0,0x10
    6c7c:	00021403 	sra	v0,v0,0x10
    6c80:	a602000c 	sh	v0,12(s0)
    6c84:	2402ffff 	li	v0,-1
    6c88:	08001b2a 	j	6ca8 <__sflush_r+0x424>
    6c8c:	00000000 	nop
    6c90:	02401021 	move	v0,s2
    6c94:	02228821 	addu	s1,s1,v0
    6c98:	02729823 	subu	s3,s3,s2
    6c9c:	1e60ffe8 	bgtz	s3,6c40 <__sflush_r+0x3bc>
    6ca0:	00000000 	nop
    6ca4:	00001021 	move	v0,zero
    6ca8:	03c0e821 	move	sp,s8
    6cac:	8fbf0034 	lw	ra,52(sp)
    6cb0:	8fbe0030 	lw	s8,48(sp)
    6cb4:	8fb3002c 	lw	s3,44(sp)
    6cb8:	8fb20028 	lw	s2,40(sp)
    6cbc:	8fb10024 	lw	s1,36(sp)
    6cc0:	8fb00020 	lw	s0,32(sp)
    6cc4:	27bd0038 	addiu	sp,sp,56
    6cc8:	03e00008 	jr	ra
    6ccc:	00000000 	nop

00006cd0 <_fflush_r>:
    6cd0:	27bdffd8 	addiu	sp,sp,-40
    6cd4:	afbf0024 	sw	ra,36(sp)
    6cd8:	afbe0020 	sw	s8,32(sp)
    6cdc:	afb0001c 	sw	s0,28(sp)
    6ce0:	03a0f021 	move	s8,sp
    6ce4:	afc40028 	sw	a0,40(s8)
    6ce8:	00a08021 	move	s0,a1
    6cec:	8fc20028 	lw	v0,40(s8)
    6cf0:	00000000 	nop
    6cf4:	1040000a 	beqz	v0,6d20 <_fflush_r+0x50>
    6cf8:	00000000 	nop
    6cfc:	8fc20028 	lw	v0,40(s8)
    6d00:	00000000 	nop
    6d04:	8c420038 	lw	v0,56(v0)
    6d08:	00000000 	nop
    6d0c:	14400004 	bnez	v0,6d20 <_fflush_r+0x50>
    6d10:	00000000 	nop
    6d14:	8fc40028 	lw	a0,40(s8)
    6d18:	0c001cb6 	jal	72d8 <__sinit>
    6d1c:	00000000 	nop
    6d20:	8602000c 	lh	v0,12(s0)
    6d24:	00000000 	nop
    6d28:	14400004 	bnez	v0,6d3c <_fflush_r+0x6c>
    6d2c:	00000000 	nop
    6d30:	00001021 	move	v0,zero
    6d34:	08001b55 	j	6d54 <_fflush_r+0x84>
    6d38:	00000000 	nop
    6d3c:	8fc40028 	lw	a0,40(s8)
    6d40:	02002821 	move	a1,s0
    6d44:	0c001a21 	jal	6884 <__sflush_r>
    6d48:	00000000 	nop
    6d4c:	afc20010 	sw	v0,16(s8)
    6d50:	8fc20010 	lw	v0,16(s8)
    6d54:	03c0e821 	move	sp,s8
    6d58:	8fbf0024 	lw	ra,36(sp)
    6d5c:	8fbe0020 	lw	s8,32(sp)
    6d60:	8fb0001c 	lw	s0,28(sp)
    6d64:	27bd0028 	addiu	sp,sp,40
    6d68:	03e00008 	jr	ra
    6d6c:	00000000 	nop

00006d70 <fflush>:
    6d70:	27bdffe8 	addiu	sp,sp,-24
    6d74:	afbf0014 	sw	ra,20(sp)
    6d78:	afbe0010 	sw	s8,16(sp)
    6d7c:	03a0f021 	move	s8,sp
    6d80:	00801021 	move	v0,a0
    6d84:	1440000a 	bnez	v0,6db0 <fflush+0x40>
    6d88:	00000000 	nop
    6d8c:	8f82806c 	lw	v0,-32660(gp)
    6d90:	00000000 	nop
    6d94:	00402021 	move	a0,v0
    6d98:	3c020000 	lui	v0,0x0
    6d9c:	24456cd0 	addiu	a1,v0,27856
    6da0:	0c002008 	jal	8020 <_fwalk_reent>
    6da4:	00000000 	nop
    6da8:	08001b72 	j	6dc8 <fflush+0x58>
    6dac:	00000000 	nop
    6db0:	8f838068 	lw	v1,-32664(gp)
    6db4:	00000000 	nop
    6db8:	00602021 	move	a0,v1
    6dbc:	00402821 	move	a1,v0
    6dc0:	0c001b34 	jal	6cd0 <_fflush_r>
    6dc4:	00000000 	nop
    6dc8:	03c0e821 	move	sp,s8
    6dcc:	8fbf0014 	lw	ra,20(sp)
    6dd0:	8fbe0010 	lw	s8,16(sp)
    6dd4:	27bd0018 	addiu	sp,sp,24
    6dd8:	03e00008 	jr	ra
    6ddc:	00000000 	nop

00006de0 <std>:
    6de0:	27bdffe8 	addiu	sp,sp,-24
    6de4:	afbf0014 	sw	ra,20(sp)
    6de8:	afbe0010 	sw	s8,16(sp)
    6dec:	03a0f021 	move	s8,sp
    6df0:	afc40018 	sw	a0,24(s8)
    6df4:	afc5001c 	sw	a1,28(s8)
    6df8:	afc60020 	sw	a2,32(s8)
    6dfc:	afc70024 	sw	a3,36(s8)
    6e00:	8fc20018 	lw	v0,24(s8)
    6e04:	00000000 	nop
    6e08:	ac400000 	sw	zero,0(v0)
    6e0c:	8fc20018 	lw	v0,24(s8)
    6e10:	00000000 	nop
    6e14:	ac400004 	sw	zero,4(v0)
    6e18:	8fc20018 	lw	v0,24(s8)
    6e1c:	00000000 	nop
    6e20:	ac400008 	sw	zero,8(v0)
    6e24:	8fc2001c 	lw	v0,28(s8)
    6e28:	00000000 	nop
    6e2c:	00021c00 	sll	v1,v0,0x10
    6e30:	00031c03 	sra	v1,v1,0x10
    6e34:	8fc20018 	lw	v0,24(s8)
    6e38:	00000000 	nop
    6e3c:	a443000c 	sh	v1,12(v0)
    6e40:	8fc20018 	lw	v0,24(s8)
    6e44:	00000000 	nop
    6e48:	ac400064 	sw	zero,100(v0)
    6e4c:	8fc20020 	lw	v0,32(s8)
    6e50:	00000000 	nop
    6e54:	00021c00 	sll	v1,v0,0x10
    6e58:	00031c03 	sra	v1,v1,0x10
    6e5c:	8fc20018 	lw	v0,24(s8)
    6e60:	00000000 	nop
    6e64:	a443000e 	sh	v1,14(v0)
    6e68:	8fc20018 	lw	v0,24(s8)
    6e6c:	00000000 	nop
    6e70:	ac400010 	sw	zero,16(v0)
    6e74:	8fc20018 	lw	v0,24(s8)
    6e78:	00000000 	nop
    6e7c:	ac400014 	sw	zero,20(v0)
    6e80:	8fc20018 	lw	v0,24(s8)
    6e84:	00000000 	nop
    6e88:	ac400018 	sw	zero,24(v0)
    6e8c:	8fc20018 	lw	v0,24(s8)
    6e90:	00000000 	nop
    6e94:	2442005c 	addiu	v0,v0,92
    6e98:	00402021 	move	a0,v0
    6e9c:	00002821 	move	a1,zero
    6ea0:	24060008 	li	a2,8
    6ea4:	0c002816 	jal	a058 <memset>
    6ea8:	00000000 	nop
    6eac:	8fc20018 	lw	v0,24(s8)
    6eb0:	8fc30018 	lw	v1,24(s8)
    6eb4:	00000000 	nop
    6eb8:	ac43001c 	sw	v1,28(v0)
    6ebc:	8fc20018 	lw	v0,24(s8)
    6ec0:	3c030001 	lui	v1,0x1
    6ec4:	2463ca20 	addiu	v1,v1,-13792
    6ec8:	ac430020 	sw	v1,32(v0)
    6ecc:	8fc20018 	lw	v0,24(s8)
    6ed0:	3c030001 	lui	v1,0x1
    6ed4:	2463cb0c 	addiu	v1,v1,-13556
    6ed8:	ac430024 	sw	v1,36(v0)
    6edc:	8fc20018 	lw	v0,24(s8)
    6ee0:	3c030001 	lui	v1,0x1
    6ee4:	2463cbd0 	addiu	v1,v1,-13360
    6ee8:	ac430028 	sw	v1,40(v0)
    6eec:	8fc20018 	lw	v0,24(s8)
    6ef0:	3c030001 	lui	v1,0x1
    6ef4:	2463cc8c 	addiu	v1,v1,-13172
    6ef8:	ac43002c 	sw	v1,44(v0)
    6efc:	03c0e821 	move	sp,s8
    6f00:	8fbf0014 	lw	ra,20(sp)
    6f04:	8fbe0010 	lw	s8,16(sp)
    6f08:	27bd0018 	addiu	sp,sp,24
    6f0c:	03e00008 	jr	ra
    6f10:	00000000 	nop

00006f14 <__sfmoreglue>:
    6f14:	27bdffd8 	addiu	sp,sp,-40
    6f18:	afbf0024 	sw	ra,36(sp)
    6f1c:	afbe0020 	sw	s8,32(sp)
    6f20:	afb0001c 	sw	s0,28(sp)
    6f24:	03a0f021 	move	s8,sp
    6f28:	afc40028 	sw	a0,40(s8)
    6f2c:	00a08021 	move	s0,a1
    6f30:	02002021 	move	a0,s0
    6f34:	00801821 	move	v1,a0
    6f38:	00031080 	sll	v0,v1,0x2
    6f3c:	00401821 	move	v1,v0
    6f40:	00031080 	sll	v0,v1,0x2
    6f44:	00431023 	subu	v0,v0,v1
    6f48:	00441021 	addu	v0,v0,a0
    6f4c:	000210c0 	sll	v0,v0,0x3
    6f50:	2442000c 	addiu	v0,v0,12
    6f54:	8fc40028 	lw	a0,40(s8)
    6f58:	00402821 	move	a1,v0
    6f5c:	0c002291 	jal	8a44 <_malloc_r>
    6f60:	00000000 	nop
    6f64:	afc20010 	sw	v0,16(s8)
    6f68:	8fc20010 	lw	v0,16(s8)
    6f6c:	00000000 	nop
    6f70:	14400004 	bnez	v0,6f84 <__sfmoreglue+0x70>
    6f74:	00000000 	nop
    6f78:	00001021 	move	v0,zero
    6f7c:	08001bfd 	j	6ff4 <__sfmoreglue+0xe0>
    6f80:	00000000 	nop
    6f84:	8fc20010 	lw	v0,16(s8)
    6f88:	00000000 	nop
    6f8c:	2442000c 	addiu	v0,v0,12
    6f90:	afc20014 	sw	v0,20(s8)
    6f94:	8fc20010 	lw	v0,16(s8)
    6f98:	00000000 	nop
    6f9c:	ac400000 	sw	zero,0(v0)
    6fa0:	8fc20010 	lw	v0,16(s8)
    6fa4:	00000000 	nop
    6fa8:	ac500004 	sw	s0,4(v0)
    6fac:	8fc20010 	lw	v0,16(s8)
    6fb0:	8fc30014 	lw	v1,20(s8)
    6fb4:	00000000 	nop
    6fb8:	ac430008 	sw	v1,8(v0)
    6fbc:	02002021 	move	a0,s0
    6fc0:	00801821 	move	v1,a0
    6fc4:	00031080 	sll	v0,v1,0x2
    6fc8:	00401821 	move	v1,v0
    6fcc:	00031080 	sll	v0,v1,0x2
    6fd0:	00431023 	subu	v0,v0,v1
    6fd4:	00441021 	addu	v0,v0,a0
    6fd8:	000210c0 	sll	v0,v0,0x3
    6fdc:	8fc40014 	lw	a0,20(s8)
    6fe0:	00002821 	move	a1,zero
    6fe4:	00403021 	move	a2,v0
    6fe8:	0c002816 	jal	a058 <memset>
    6fec:	00000000 	nop
    6ff0:	8fc20010 	lw	v0,16(s8)
    6ff4:	03c0e821 	move	sp,s8
    6ff8:	8fbf0024 	lw	ra,36(sp)
    6ffc:	8fbe0020 	lw	s8,32(sp)
    7000:	8fb0001c 	lw	s0,28(sp)
    7004:	27bd0028 	addiu	sp,sp,40
    7008:	03e00008 	jr	ra
    700c:	00000000 	nop

00007010 <__sfp>:
    7010:	27bdffd8 	addiu	sp,sp,-40
    7014:	afbf0024 	sw	ra,36(sp)
    7018:	afbe0020 	sw	s8,32(sp)
    701c:	03a0f021 	move	s8,sp
    7020:	afc40028 	sw	a0,40(s8)
    7024:	0c001d00 	jal	7400 <__sfp_lock_acquire>
    7028:	00000000 	nop
    702c:	8f82806c 	lw	v0,-32660(gp)
    7030:	00000000 	nop
    7034:	8c420038 	lw	v0,56(v0)
    7038:	00000000 	nop
    703c:	14400006 	bnez	v0,7058 <__sfp+0x48>
    7040:	00000000 	nop
    7044:	8f82806c 	lw	v0,-32660(gp)
    7048:	00000000 	nop
    704c:	00402021 	move	a0,v0
    7050:	0c001cb6 	jal	72d8 <__sinit>
    7054:	00000000 	nop
    7058:	8f82806c 	lw	v0,-32660(gp)
    705c:	00000000 	nop
    7060:	244202e0 	addiu	v0,v0,736
    7064:	afc20018 	sw	v0,24(s8)
    7068:	8fc20018 	lw	v0,24(s8)
    706c:	00000000 	nop
    7070:	8c420008 	lw	v0,8(v0)
    7074:	00000000 	nop
    7078:	afc20010 	sw	v0,16(s8)
    707c:	8fc20018 	lw	v0,24(s8)
    7080:	00000000 	nop
    7084:	8c420004 	lw	v0,4(v0)
    7088:	00000000 	nop
    708c:	afc20014 	sw	v0,20(s8)
    7090:	08001c65 	j	7194 <__sfp+0x184>
    7094:	00000000 	nop
    7098:	8fc20010 	lw	v0,16(s8)
    709c:	00000000 	nop
    70a0:	8442000c 	lh	v0,12(v0)
    70a4:	00000000 	nop
    70a8:	14400036 	bnez	v0,7184 <__sfp+0x174>
    70ac:	00000000 	nop
    70b0:	00000000 	nop
    70b4:	8fc20010 	lw	v0,16(s8)
    70b8:	2403ffff 	li	v1,-1
    70bc:	a443000e 	sh	v1,14(v0)
    70c0:	8fc20010 	lw	v0,16(s8)
    70c4:	24030001 	li	v1,1
    70c8:	a443000c 	sh	v1,12(v0)
    70cc:	8fc20010 	lw	v0,16(s8)
    70d0:	00000000 	nop
    70d4:	ac400064 	sw	zero,100(v0)
    70d8:	0c001d08 	jal	7420 <__sfp_lock_release>
    70dc:	00000000 	nop
    70e0:	8fc20010 	lw	v0,16(s8)
    70e4:	00000000 	nop
    70e8:	ac400000 	sw	zero,0(v0)
    70ec:	8fc20010 	lw	v0,16(s8)
    70f0:	00000000 	nop
    70f4:	ac400008 	sw	zero,8(v0)
    70f8:	8fc20010 	lw	v0,16(s8)
    70fc:	00000000 	nop
    7100:	ac400004 	sw	zero,4(v0)
    7104:	8fc20010 	lw	v0,16(s8)
    7108:	00000000 	nop
    710c:	ac400010 	sw	zero,16(v0)
    7110:	8fc20010 	lw	v0,16(s8)
    7114:	00000000 	nop
    7118:	ac400014 	sw	zero,20(v0)
    711c:	8fc20010 	lw	v0,16(s8)
    7120:	00000000 	nop
    7124:	ac400018 	sw	zero,24(v0)
    7128:	8fc20010 	lw	v0,16(s8)
    712c:	00000000 	nop
    7130:	2442005c 	addiu	v0,v0,92
    7134:	00402021 	move	a0,v0
    7138:	00002821 	move	a1,zero
    713c:	24060008 	li	a2,8
    7140:	0c002816 	jal	a058 <memset>
    7144:	00000000 	nop
    7148:	8fc20010 	lw	v0,16(s8)
    714c:	00000000 	nop
    7150:	ac400030 	sw	zero,48(v0)
    7154:	8fc20010 	lw	v0,16(s8)
    7158:	00000000 	nop
    715c:	ac400034 	sw	zero,52(v0)
    7160:	8fc20010 	lw	v0,16(s8)
    7164:	00000000 	nop
    7168:	ac400044 	sw	zero,68(v0)
    716c:	8fc20010 	lw	v0,16(s8)
    7170:	00000000 	nop
    7174:	ac400048 	sw	zero,72(v0)
    7178:	8fc20010 	lw	v0,16(s8)
    717c:	08001c91 	j	7244 <__sfp+0x234>
    7180:	00000000 	nop
    7184:	8fc20010 	lw	v0,16(s8)
    7188:	00000000 	nop
    718c:	24420068 	addiu	v0,v0,104
    7190:	afc20010 	sw	v0,16(s8)
    7194:	8fc20014 	lw	v0,20(s8)
    7198:	00000000 	nop
    719c:	2442ffff 	addiu	v0,v0,-1
    71a0:	afc20014 	sw	v0,20(s8)
    71a4:	8fc20014 	lw	v0,20(s8)
    71a8:	00000000 	nop
    71ac:	0441ffba 	bgez	v0,7098 <__sfp+0x88>
    71b0:	00000000 	nop
    71b4:	8fc20018 	lw	v0,24(s8)
    71b8:	00000000 	nop
    71bc:	8c420000 	lw	v0,0(v0)
    71c0:	00000000 	nop
    71c4:	14400018 	bnez	v0,7228 <__sfp+0x218>
    71c8:	00000000 	nop
    71cc:	8fc40028 	lw	a0,40(s8)
    71d0:	24050004 	li	a1,4
    71d4:	0c001bc5 	jal	6f14 <__sfmoreglue>
    71d8:	00000000 	nop
    71dc:	00401821 	move	v1,v0
    71e0:	8fc20018 	lw	v0,24(s8)
    71e4:	00000000 	nop
    71e8:	ac430000 	sw	v1,0(v0)
    71ec:	8fc20018 	lw	v0,24(s8)
    71f0:	00000000 	nop
    71f4:	8c420000 	lw	v0,0(v0)
    71f8:	00000000 	nop
    71fc:	1440000a 	bnez	v0,7228 <__sfp+0x218>
    7200:	00000000 	nop
    7204:	00000000 	nop
    7208:	0c001d08 	jal	7420 <__sfp_lock_release>
    720c:	00000000 	nop
    7210:	8fc20028 	lw	v0,40(s8)
    7214:	2403000c 	li	v1,12
    7218:	ac430000 	sw	v1,0(v0)
    721c:	00001021 	move	v0,zero
    7220:	08001c91 	j	7244 <__sfp+0x234>
    7224:	00000000 	nop
    7228:	8fc20018 	lw	v0,24(s8)
    722c:	00000000 	nop
    7230:	8c420000 	lw	v0,0(v0)
    7234:	00000000 	nop
    7238:	afc20018 	sw	v0,24(s8)
    723c:	08001c1a 	j	7068 <__sfp+0x58>
    7240:	00000000 	nop
    7244:	03c0e821 	move	sp,s8
    7248:	8fbf0024 	lw	ra,36(sp)
    724c:	8fbe0020 	lw	s8,32(sp)
    7250:	27bd0028 	addiu	sp,sp,40
    7254:	03e00008 	jr	ra
    7258:	00000000 	nop

0000725c <_cleanup_r>:
    725c:	27bdffe8 	addiu	sp,sp,-24
    7260:	afbf0014 	sw	ra,20(sp)
    7264:	afbe0010 	sw	s8,16(sp)
    7268:	03a0f021 	move	s8,sp
    726c:	afc40018 	sw	a0,24(s8)
    7270:	8fc40018 	lw	a0,24(s8)
    7274:	3c020001 	lui	v0,0x1
    7278:	2445f680 	addiu	a1,v0,-2432
    727c:	0c001fcb 	jal	7f2c <_fwalk>
    7280:	00000000 	nop
    7284:	03c0e821 	move	sp,s8
    7288:	8fbf0014 	lw	ra,20(sp)
    728c:	8fbe0010 	lw	s8,16(sp)
    7290:	27bd0018 	addiu	sp,sp,24
    7294:	03e00008 	jr	ra
    7298:	00000000 	nop

0000729c <_cleanup>:
    729c:	27bdffe8 	addiu	sp,sp,-24
    72a0:	afbf0014 	sw	ra,20(sp)
    72a4:	afbe0010 	sw	s8,16(sp)
    72a8:	03a0f021 	move	s8,sp
    72ac:	8f82806c 	lw	v0,-32660(gp)
    72b0:	00000000 	nop
    72b4:	00402021 	move	a0,v0
    72b8:	0c001c97 	jal	725c <_cleanup_r>
    72bc:	00000000 	nop
    72c0:	03c0e821 	move	sp,s8
    72c4:	8fbf0014 	lw	ra,20(sp)
    72c8:	8fbe0010 	lw	s8,16(sp)
    72cc:	27bd0018 	addiu	sp,sp,24
    72d0:	03e00008 	jr	ra
    72d4:	00000000 	nop

000072d8 <__sinit>:
    72d8:	27bdffe8 	addiu	sp,sp,-24
    72dc:	afbf0014 	sw	ra,20(sp)
    72e0:	afbe0010 	sw	s8,16(sp)
    72e4:	03a0f021 	move	s8,sp
    72e8:	afc40018 	sw	a0,24(s8)
    72ec:	0c001d10 	jal	7440 <__sinit_lock_acquire>
    72f0:	00000000 	nop
    72f4:	8fc20018 	lw	v0,24(s8)
    72f8:	00000000 	nop
    72fc:	8c420038 	lw	v0,56(v0)
    7300:	00000000 	nop
    7304:	10400005 	beqz	v0,731c <__sinit+0x44>
    7308:	00000000 	nop
    730c:	0c001d18 	jal	7460 <__sinit_lock_release>
    7310:	00000000 	nop
    7314:	08001cfa 	j	73e8 <__sinit+0x110>
    7318:	00000000 	nop
    731c:	8fc20018 	lw	v0,24(s8)
    7320:	3c030000 	lui	v1,0x0
    7324:	2463725c 	addiu	v1,v1,29276
    7328:	ac43003c 	sw	v1,60(v0)
    732c:	8fc20018 	lw	v0,24(s8)
    7330:	24030001 	li	v1,1
    7334:	ac430038 	sw	v1,56(v0)
    7338:	8fc20018 	lw	v0,24(s8)
    733c:	00000000 	nop
    7340:	ac4002e0 	sw	zero,736(v0)
    7344:	8fc20018 	lw	v0,24(s8)
    7348:	24030003 	li	v1,3
    734c:	ac4302e4 	sw	v1,740(v0)
    7350:	8fc20018 	lw	v0,24(s8)
    7354:	00000000 	nop
    7358:	244302ec 	addiu	v1,v0,748
    735c:	8fc20018 	lw	v0,24(s8)
    7360:	00000000 	nop
    7364:	ac4302e8 	sw	v1,744(v0)
    7368:	8fc20018 	lw	v0,24(s8)
    736c:	00000000 	nop
    7370:	8c420004 	lw	v0,4(v0)
    7374:	00000000 	nop
    7378:	00402021 	move	a0,v0
    737c:	24050004 	li	a1,4
    7380:	00003021 	move	a2,zero
    7384:	8fc70018 	lw	a3,24(s8)
    7388:	0c001b78 	jal	6de0 <std>
    738c:	00000000 	nop
    7390:	8fc20018 	lw	v0,24(s8)
    7394:	00000000 	nop
    7398:	8c420008 	lw	v0,8(v0)
    739c:	00000000 	nop
    73a0:	00402021 	move	a0,v0
    73a4:	24050009 	li	a1,9
    73a8:	24060001 	li	a2,1
    73ac:	8fc70018 	lw	a3,24(s8)
    73b0:	0c001b78 	jal	6de0 <std>
    73b4:	00000000 	nop
    73b8:	8fc20018 	lw	v0,24(s8)
    73bc:	00000000 	nop
    73c0:	8c42000c 	lw	v0,12(v0)
    73c4:	00000000 	nop
    73c8:	00402021 	move	a0,v0
    73cc:	24050012 	li	a1,18
    73d0:	24060002 	li	a2,2
    73d4:	8fc70018 	lw	a3,24(s8)
    73d8:	0c001b78 	jal	6de0 <std>
    73dc:	00000000 	nop
    73e0:	0c001d18 	jal	7460 <__sinit_lock_release>
    73e4:	00000000 	nop
    73e8:	03c0e821 	move	sp,s8
    73ec:	8fbf0014 	lw	ra,20(sp)
    73f0:	8fbe0010 	lw	s8,16(sp)
    73f4:	27bd0018 	addiu	sp,sp,24
    73f8:	03e00008 	jr	ra
    73fc:	00000000 	nop

00007400 <__sfp_lock_acquire>:
    7400:	27bdfff8 	addiu	sp,sp,-8
    7404:	afbe0004 	sw	s8,4(sp)
    7408:	03a0f021 	move	s8,sp
    740c:	03c0e821 	move	sp,s8
    7410:	8fbe0004 	lw	s8,4(sp)
    7414:	27bd0008 	addiu	sp,sp,8
    7418:	03e00008 	jr	ra
    741c:	00000000 	nop

00007420 <__sfp_lock_release>:
    7420:	27bdfff8 	addiu	sp,sp,-8
    7424:	afbe0004 	sw	s8,4(sp)
    7428:	03a0f021 	move	s8,sp
    742c:	03c0e821 	move	sp,s8
    7430:	8fbe0004 	lw	s8,4(sp)
    7434:	27bd0008 	addiu	sp,sp,8
    7438:	03e00008 	jr	ra
    743c:	00000000 	nop

00007440 <__sinit_lock_acquire>:
    7440:	27bdfff8 	addiu	sp,sp,-8
    7444:	afbe0004 	sw	s8,4(sp)
    7448:	03a0f021 	move	s8,sp
    744c:	03c0e821 	move	sp,s8
    7450:	8fbe0004 	lw	s8,4(sp)
    7454:	27bd0008 	addiu	sp,sp,8
    7458:	03e00008 	jr	ra
    745c:	00000000 	nop

00007460 <__sinit_lock_release>:
    7460:	27bdfff8 	addiu	sp,sp,-8
    7464:	afbe0004 	sw	s8,4(sp)
    7468:	03a0f021 	move	s8,sp
    746c:	03c0e821 	move	sp,s8
    7470:	8fbe0004 	lw	s8,4(sp)
    7474:	27bd0008 	addiu	sp,sp,8
    7478:	03e00008 	jr	ra
    747c:	00000000 	nop

00007480 <__fp_lock>:
    7480:	27bdfff8 	addiu	sp,sp,-8
    7484:	afbe0004 	sw	s8,4(sp)
    7488:	03a0f021 	move	s8,sp
    748c:	afc40008 	sw	a0,8(s8)
    7490:	00001021 	move	v0,zero
    7494:	03c0e821 	move	sp,s8
    7498:	8fbe0004 	lw	s8,4(sp)
    749c:	27bd0008 	addiu	sp,sp,8
    74a0:	03e00008 	jr	ra
    74a4:	00000000 	nop

000074a8 <__fp_unlock>:
    74a8:	27bdfff8 	addiu	sp,sp,-8
    74ac:	afbe0004 	sw	s8,4(sp)
    74b0:	03a0f021 	move	s8,sp
    74b4:	afc40008 	sw	a0,8(s8)
    74b8:	00001021 	move	v0,zero
    74bc:	03c0e821 	move	sp,s8
    74c0:	8fbe0004 	lw	s8,4(sp)
    74c4:	27bd0008 	addiu	sp,sp,8
    74c8:	03e00008 	jr	ra
    74cc:	00000000 	nop

000074d0 <__fp_lock_all>:
    74d0:	27bdffe8 	addiu	sp,sp,-24
    74d4:	afbf0014 	sw	ra,20(sp)
    74d8:	afbe0010 	sw	s8,16(sp)
    74dc:	03a0f021 	move	s8,sp
    74e0:	0c001d00 	jal	7400 <__sfp_lock_acquire>
    74e4:	00000000 	nop
    74e8:	8f828068 	lw	v0,-32664(gp)
    74ec:	00000000 	nop
    74f0:	00402021 	move	a0,v0
    74f4:	3c020000 	lui	v0,0x0
    74f8:	24457480 	addiu	a1,v0,29824
    74fc:	0c001fcb 	jal	7f2c <_fwalk>
    7500:	00000000 	nop
    7504:	03c0e821 	move	sp,s8
    7508:	8fbf0014 	lw	ra,20(sp)
    750c:	8fbe0010 	lw	s8,16(sp)
    7510:	27bd0018 	addiu	sp,sp,24
    7514:	03e00008 	jr	ra
    7518:	00000000 	nop

0000751c <__fp_unlock_all>:
    751c:	27bdffe8 	addiu	sp,sp,-24
    7520:	afbf0014 	sw	ra,20(sp)
    7524:	afbe0010 	sw	s8,16(sp)
    7528:	03a0f021 	move	s8,sp
    752c:	8f828068 	lw	v0,-32664(gp)
    7530:	00000000 	nop
    7534:	00402021 	move	a0,v0
    7538:	3c020000 	lui	v0,0x0
    753c:	244574a8 	addiu	a1,v0,29864
    7540:	0c001fcb 	jal	7f2c <_fwalk>
    7544:	00000000 	nop
    7548:	0c001d08 	jal	7420 <__sfp_lock_release>
    754c:	00000000 	nop
    7550:	03c0e821 	move	sp,s8
    7554:	8fbf0014 	lw	ra,20(sp)
    7558:	8fbe0010 	lw	s8,16(sp)
    755c:	27bd0018 	addiu	sp,sp,24
    7560:	03e00008 	jr	ra
    7564:	00000000 	nop

00007568 <_free_r>:
    7568:	27bdffc0 	addiu	sp,sp,-64
    756c:	afbf003c 	sw	ra,60(sp)
    7570:	afbe0038 	sw	s8,56(sp)
    7574:	03a0f021 	move	s8,sp
    7578:	afc40040 	sw	a0,64(s8)
    757c:	afc50044 	sw	a1,68(s8)
    7580:	8fc20044 	lw	v0,68(s8)
    7584:	00000000 	nop
    7588:	14400003 	bnez	v0,7598 <_free_r+0x30>
    758c:	00000000 	nop
    7590:	08001f30 	j	7cc0 <_free_r+0x758>
    7594:	00000000 	nop
    7598:	8fc40040 	lw	a0,64(s8)
    759c:	0c0028ac 	jal	a2b0 <__malloc_lock>
    75a0:	00000000 	nop
    75a4:	8fc20044 	lw	v0,68(s8)
    75a8:	00000000 	nop
    75ac:	2442fff8 	addiu	v0,v0,-8
    75b0:	afc20010 	sw	v0,16(s8)
    75b4:	8fc20010 	lw	v0,16(s8)
    75b8:	00000000 	nop
    75bc:	8c420004 	lw	v0,4(v0)
    75c0:	00000000 	nop
    75c4:	afc20024 	sw	v0,36(s8)
    75c8:	8fc30024 	lw	v1,36(s8)
    75cc:	2402fffe 	li	v0,-2
    75d0:	00621024 	and	v0,v1,v0
    75d4:	afc20014 	sw	v0,20(s8)
    75d8:	8fc30010 	lw	v1,16(s8)
    75dc:	8fc20014 	lw	v0,20(s8)
    75e0:	00000000 	nop
    75e4:	00621021 	addu	v0,v1,v0
    75e8:	afc20028 	sw	v0,40(s8)
    75ec:	8fc20028 	lw	v0,40(s8)
    75f0:	00000000 	nop
    75f4:	8c430004 	lw	v1,4(v0)
    75f8:	2402fffc 	li	v0,-4
    75fc:	00621024 	and	v0,v1,v0
    7600:	afc2002c 	sw	v0,44(s8)
    7604:	3c020001 	lui	v0,0x1
    7608:	24426590 	addiu	v0,v0,26000
    760c:	8c430008 	lw	v1,8(v0)
    7610:	8fc20028 	lw	v0,40(s8)
    7614:	00000000 	nop
    7618:	14620049 	bne	v1,v0,7740 <_free_r+0x1d8>
    761c:	00000000 	nop
    7620:	8fc30014 	lw	v1,20(s8)
    7624:	8fc2002c 	lw	v0,44(s8)
    7628:	00000000 	nop
    762c:	00621021 	addu	v0,v1,v0
    7630:	afc20014 	sw	v0,20(s8)
    7634:	8fc20024 	lw	v0,36(s8)
    7638:	00000000 	nop
    763c:	30420001 	andi	v0,v0,0x1
    7640:	14400024 	bnez	v0,76d4 <_free_r+0x16c>
    7644:	00000000 	nop
    7648:	8fc20010 	lw	v0,16(s8)
    764c:	00000000 	nop
    7650:	8c420000 	lw	v0,0(v0)
    7654:	00000000 	nop
    7658:	afc20030 	sw	v0,48(s8)
    765c:	8fc20030 	lw	v0,48(s8)
    7660:	00000000 	nop
    7664:	00021023 	negu	v0,v0
    7668:	8fc30010 	lw	v1,16(s8)
    766c:	00000000 	nop
    7670:	00621021 	addu	v0,v1,v0
    7674:	afc20010 	sw	v0,16(s8)
    7678:	8fc30014 	lw	v1,20(s8)
    767c:	8fc20030 	lw	v0,48(s8)
    7680:	00000000 	nop
    7684:	00621021 	addu	v0,v1,v0
    7688:	afc20014 	sw	v0,20(s8)
    768c:	8fc20010 	lw	v0,16(s8)
    7690:	00000000 	nop
    7694:	8c42000c 	lw	v0,12(v0)
    7698:	00000000 	nop
    769c:	afc20018 	sw	v0,24(s8)
    76a0:	8fc20010 	lw	v0,16(s8)
    76a4:	00000000 	nop
    76a8:	8c420008 	lw	v0,8(v0)
    76ac:	00000000 	nop
    76b0:	afc2001c 	sw	v0,28(s8)
    76b4:	8fc2001c 	lw	v0,28(s8)
    76b8:	8fc30018 	lw	v1,24(s8)
    76bc:	00000000 	nop
    76c0:	ac43000c 	sw	v1,12(v0)
    76c4:	8fc20018 	lw	v0,24(s8)
    76c8:	8fc3001c 	lw	v1,28(s8)
    76cc:	00000000 	nop
    76d0:	ac430008 	sw	v1,8(v0)
    76d4:	8fc20014 	lw	v0,20(s8)
    76d8:	00000000 	nop
    76dc:	34430001 	ori	v1,v0,0x1
    76e0:	8fc20010 	lw	v0,16(s8)
    76e4:	00000000 	nop
    76e8:	ac430004 	sw	v1,4(v0)
    76ec:	3c020001 	lui	v0,0x1
    76f0:	24426590 	addiu	v0,v0,26000
    76f4:	8fc30010 	lw	v1,16(s8)
    76f8:	00000000 	nop
    76fc:	ac430008 	sw	v1,8(v0)
    7700:	8f828074 	lw	v0,-32652(gp)
    7704:	8fc30014 	lw	v1,20(s8)
    7708:	00000000 	nop
    770c:	0062102b 	sltu	v0,v1,v0
    7710:	14400006 	bnez	v0,772c <_free_r+0x1c4>
    7714:	00000000 	nop
    7718:	8f8280bc 	lw	v0,-32580(gp)
    771c:	8fc40040 	lw	a0,64(s8)
    7720:	00402821 	move	a1,v0
    7724:	0c001f36 	jal	7cd8 <_malloc_trim_r>
    7728:	00000000 	nop
    772c:	8fc40040 	lw	a0,64(s8)
    7730:	0c0028b5 	jal	a2d4 <__malloc_unlock>
    7734:	00000000 	nop
    7738:	08001f30 	j	7cc0 <_free_r+0x758>
    773c:	00000000 	nop
    7740:	8fc20028 	lw	v0,40(s8)
    7744:	8fc3002c 	lw	v1,44(s8)
    7748:	00000000 	nop
    774c:	ac430004 	sw	v1,4(v0)
    7750:	afc00020 	sw	zero,32(s8)
    7754:	8fc20024 	lw	v0,36(s8)
    7758:	00000000 	nop
    775c:	30420001 	andi	v0,v0,0x1
    7760:	1440002f 	bnez	v0,7820 <_free_r+0x2b8>
    7764:	00000000 	nop
    7768:	8fc20010 	lw	v0,16(s8)
    776c:	00000000 	nop
    7770:	8c420000 	lw	v0,0(v0)
    7774:	00000000 	nop
    7778:	afc20030 	sw	v0,48(s8)
    777c:	8fc20030 	lw	v0,48(s8)
    7780:	00000000 	nop
    7784:	00021023 	negu	v0,v0
    7788:	8fc30010 	lw	v1,16(s8)
    778c:	00000000 	nop
    7790:	00621021 	addu	v0,v1,v0
    7794:	afc20010 	sw	v0,16(s8)
    7798:	8fc30014 	lw	v1,20(s8)
    779c:	8fc20030 	lw	v0,48(s8)
    77a0:	00000000 	nop
    77a4:	00621021 	addu	v0,v1,v0
    77a8:	afc20014 	sw	v0,20(s8)
    77ac:	8fc20010 	lw	v0,16(s8)
    77b0:	00000000 	nop
    77b4:	8c430008 	lw	v1,8(v0)
    77b8:	3c020001 	lui	v0,0x1
    77bc:	24426598 	addiu	v0,v0,26008
    77c0:	14620005 	bne	v1,v0,77d8 <_free_r+0x270>
    77c4:	00000000 	nop
    77c8:	24020001 	li	v0,1
    77cc:	afc20020 	sw	v0,32(s8)
    77d0:	08001e08 	j	7820 <_free_r+0x2b8>
    77d4:	00000000 	nop
    77d8:	8fc20010 	lw	v0,16(s8)
    77dc:	00000000 	nop
    77e0:	8c42000c 	lw	v0,12(v0)
    77e4:	00000000 	nop
    77e8:	afc20018 	sw	v0,24(s8)
    77ec:	8fc20010 	lw	v0,16(s8)
    77f0:	00000000 	nop
    77f4:	8c420008 	lw	v0,8(v0)
    77f8:	00000000 	nop
    77fc:	afc2001c 	sw	v0,28(s8)
    7800:	8fc2001c 	lw	v0,28(s8)
    7804:	8fc30018 	lw	v1,24(s8)
    7808:	00000000 	nop
    780c:	ac43000c 	sw	v1,12(v0)
    7810:	8fc20018 	lw	v0,24(s8)
    7814:	8fc3001c 	lw	v1,28(s8)
    7818:	00000000 	nop
    781c:	ac430008 	sw	v1,8(v0)
    7820:	8fc30028 	lw	v1,40(s8)
    7824:	8fc2002c 	lw	v0,44(s8)
    7828:	00000000 	nop
    782c:	00621021 	addu	v0,v1,v0
    7830:	8c420004 	lw	v0,4(v0)
    7834:	00000000 	nop
    7838:	30420001 	andi	v0,v0,0x1
    783c:	1440003b 	bnez	v0,792c <_free_r+0x3c4>
    7840:	00000000 	nop
    7844:	8fc30014 	lw	v1,20(s8)
    7848:	8fc2002c 	lw	v0,44(s8)
    784c:	00000000 	nop
    7850:	00621021 	addu	v0,v1,v0
    7854:	afc20014 	sw	v0,20(s8)
    7858:	8fc20020 	lw	v0,32(s8)
    785c:	00000000 	nop
    7860:	14400020 	bnez	v0,78e4 <_free_r+0x37c>
    7864:	00000000 	nop
    7868:	8fc20028 	lw	v0,40(s8)
    786c:	00000000 	nop
    7870:	8c430008 	lw	v1,8(v0)
    7874:	3c020001 	lui	v0,0x1
    7878:	24426598 	addiu	v0,v0,26008
    787c:	14620019 	bne	v1,v0,78e4 <_free_r+0x37c>
    7880:	00000000 	nop
    7884:	24020001 	li	v0,1
    7888:	afc20020 	sw	v0,32(s8)
    788c:	3c020001 	lui	v0,0x1
    7890:	24436598 	addiu	v1,v0,26008
    7894:	3c020001 	lui	v0,0x1
    7898:	24426598 	addiu	v0,v0,26008
    789c:	8fc40010 	lw	a0,16(s8)
    78a0:	00000000 	nop
    78a4:	ac44000c 	sw	a0,12(v0)
    78a8:	8c42000c 	lw	v0,12(v0)
    78ac:	00000000 	nop
    78b0:	ac620008 	sw	v0,8(v1)
    78b4:	8fc20010 	lw	v0,16(s8)
    78b8:	3c030001 	lui	v1,0x1
    78bc:	24636598 	addiu	v1,v1,26008
    78c0:	ac43000c 	sw	v1,12(v0)
    78c4:	8fc20010 	lw	v0,16(s8)
    78c8:	00000000 	nop
    78cc:	8c43000c 	lw	v1,12(v0)
    78d0:	8fc20010 	lw	v0,16(s8)
    78d4:	00000000 	nop
    78d8:	ac430008 	sw	v1,8(v0)
    78dc:	08001e4b 	j	792c <_free_r+0x3c4>
    78e0:	00000000 	nop
    78e4:	8fc20028 	lw	v0,40(s8)
    78e8:	00000000 	nop
    78ec:	8c42000c 	lw	v0,12(v0)
    78f0:	00000000 	nop
    78f4:	afc20018 	sw	v0,24(s8)
    78f8:	8fc20028 	lw	v0,40(s8)
    78fc:	00000000 	nop
    7900:	8c420008 	lw	v0,8(v0)
    7904:	00000000 	nop
    7908:	afc2001c 	sw	v0,28(s8)
    790c:	8fc2001c 	lw	v0,28(s8)
    7910:	8fc30018 	lw	v1,24(s8)
    7914:	00000000 	nop
    7918:	ac43000c 	sw	v1,12(v0)
    791c:	8fc20018 	lw	v0,24(s8)
    7920:	8fc3001c 	lw	v1,28(s8)
    7924:	00000000 	nop
    7928:	ac430008 	sw	v1,8(v0)
    792c:	8fc20014 	lw	v0,20(s8)
    7930:	00000000 	nop
    7934:	34430001 	ori	v1,v0,0x1
    7938:	8fc20010 	lw	v0,16(s8)
    793c:	00000000 	nop
    7940:	ac430004 	sw	v1,4(v0)
    7944:	8fc30010 	lw	v1,16(s8)
    7948:	8fc20014 	lw	v0,20(s8)
    794c:	00000000 	nop
    7950:	00621021 	addu	v0,v1,v0
    7954:	8fc30014 	lw	v1,20(s8)
    7958:	00000000 	nop
    795c:	ac430000 	sw	v1,0(v0)
    7960:	8fc20020 	lw	v0,32(s8)
    7964:	00000000 	nop
    7968:	144000d2 	bnez	v0,7cb4 <_free_r+0x74c>
    796c:	00000000 	nop
    7970:	8fc20014 	lw	v0,20(s8)
    7974:	00000000 	nop
    7978:	2c420200 	sltiu	v0,v0,512
    797c:	10400035 	beqz	v0,7a54 <_free_r+0x4ec>
    7980:	00000000 	nop
    7984:	8fc20014 	lw	v0,20(s8)
    7988:	00000000 	nop
    798c:	000210c2 	srl	v0,v0,0x3
    7990:	afc20034 	sw	v0,52(s8)
    7994:	3c020001 	lui	v0,0x1
    7998:	24436590 	addiu	v1,v0,26000
    799c:	3c020001 	lui	v0,0x1
    79a0:	24426590 	addiu	v0,v0,26000
    79a4:	8c440004 	lw	a0,4(v0)
    79a8:	8fc20034 	lw	v0,52(s8)
    79ac:	00000000 	nop
    79b0:	04410002 	bgez	v0,79bc <_free_r+0x454>
    79b4:	00000000 	nop
    79b8:	24420003 	addiu	v0,v0,3
    79bc:	00021083 	sra	v0,v0,0x2
    79c0:	24050001 	li	a1,1
    79c4:	00451004 	sllv	v0,a1,v0
    79c8:	00821025 	or	v0,a0,v0
    79cc:	ac620004 	sw	v0,4(v1)
    79d0:	8fc20034 	lw	v0,52(s8)
    79d4:	00000000 	nop
    79d8:	00021040 	sll	v0,v0,0x1
    79dc:	00021880 	sll	v1,v0,0x2
    79e0:	3c020001 	lui	v0,0x1
    79e4:	24426590 	addiu	v0,v0,26000
    79e8:	00621021 	addu	v0,v1,v0
    79ec:	afc20018 	sw	v0,24(s8)
    79f0:	8fc20018 	lw	v0,24(s8)
    79f4:	00000000 	nop
    79f8:	8c420008 	lw	v0,8(v0)
    79fc:	00000000 	nop
    7a00:	afc2001c 	sw	v0,28(s8)
    7a04:	8fc20010 	lw	v0,16(s8)
    7a08:	8fc30018 	lw	v1,24(s8)
    7a0c:	00000000 	nop
    7a10:	ac43000c 	sw	v1,12(v0)
    7a14:	8fc20010 	lw	v0,16(s8)
    7a18:	8fc3001c 	lw	v1,28(s8)
    7a1c:	00000000 	nop
    7a20:	ac430008 	sw	v1,8(v0)
    7a24:	8fc20018 	lw	v0,24(s8)
    7a28:	8fc30010 	lw	v1,16(s8)
    7a2c:	00000000 	nop
    7a30:	ac430008 	sw	v1,8(v0)
    7a34:	8fc20018 	lw	v0,24(s8)
    7a38:	00000000 	nop
    7a3c:	8c430008 	lw	v1,8(v0)
    7a40:	8fc2001c 	lw	v0,28(s8)
    7a44:	00000000 	nop
    7a48:	ac43000c 	sw	v1,12(v0)
    7a4c:	08001f2d 	j	7cb4 <_free_r+0x74c>
    7a50:	00000000 	nop
    7a54:	8fc20014 	lw	v0,20(s8)
    7a58:	00000000 	nop
    7a5c:	00021242 	srl	v0,v0,0x9
    7a60:	14400006 	bnez	v0,7a7c <_free_r+0x514>
    7a64:	00000000 	nop
    7a68:	8fc20014 	lw	v0,20(s8)
    7a6c:	00000000 	nop
    7a70:	000210c2 	srl	v0,v0,0x3
    7a74:	08001edc 	j	7b70 <_free_r+0x608>
    7a78:	00000000 	nop
    7a7c:	8fc20014 	lw	v0,20(s8)
    7a80:	00000000 	nop
    7a84:	00021242 	srl	v0,v0,0x9
    7a88:	2c420005 	sltiu	v0,v0,5
    7a8c:	10400007 	beqz	v0,7aac <_free_r+0x544>
    7a90:	00000000 	nop
    7a94:	8fc20014 	lw	v0,20(s8)
    7a98:	00000000 	nop
    7a9c:	00021182 	srl	v0,v0,0x6
    7aa0:	24420038 	addiu	v0,v0,56
    7aa4:	08001edc 	j	7b70 <_free_r+0x608>
    7aa8:	00000000 	nop
    7aac:	8fc20014 	lw	v0,20(s8)
    7ab0:	00000000 	nop
    7ab4:	00021242 	srl	v0,v0,0x9
    7ab8:	2c420015 	sltiu	v0,v0,21
    7abc:	10400007 	beqz	v0,7adc <_free_r+0x574>
    7ac0:	00000000 	nop
    7ac4:	8fc20014 	lw	v0,20(s8)
    7ac8:	00000000 	nop
    7acc:	00021242 	srl	v0,v0,0x9
    7ad0:	2442005b 	addiu	v0,v0,91
    7ad4:	08001edc 	j	7b70 <_free_r+0x608>
    7ad8:	00000000 	nop
    7adc:	8fc20014 	lw	v0,20(s8)
    7ae0:	00000000 	nop
    7ae4:	00021242 	srl	v0,v0,0x9
    7ae8:	2c420055 	sltiu	v0,v0,85
    7aec:	10400007 	beqz	v0,7b0c <_free_r+0x5a4>
    7af0:	00000000 	nop
    7af4:	8fc20014 	lw	v0,20(s8)
    7af8:	00000000 	nop
    7afc:	00021302 	srl	v0,v0,0xc
    7b00:	2442006e 	addiu	v0,v0,110
    7b04:	08001edc 	j	7b70 <_free_r+0x608>
    7b08:	00000000 	nop
    7b0c:	8fc20014 	lw	v0,20(s8)
    7b10:	00000000 	nop
    7b14:	00021242 	srl	v0,v0,0x9
    7b18:	2c420155 	sltiu	v0,v0,341
    7b1c:	10400007 	beqz	v0,7b3c <_free_r+0x5d4>
    7b20:	00000000 	nop
    7b24:	8fc20014 	lw	v0,20(s8)
    7b28:	00000000 	nop
    7b2c:	000213c2 	srl	v0,v0,0xf
    7b30:	24420077 	addiu	v0,v0,119
    7b34:	08001edc 	j	7b70 <_free_r+0x608>
    7b38:	00000000 	nop
    7b3c:	8fc20014 	lw	v0,20(s8)
    7b40:	00000000 	nop
    7b44:	00021242 	srl	v0,v0,0x9
    7b48:	2c420555 	sltiu	v0,v0,1365
    7b4c:	10400007 	beqz	v0,7b6c <_free_r+0x604>
    7b50:	00000000 	nop
    7b54:	8fc20014 	lw	v0,20(s8)
    7b58:	00000000 	nop
    7b5c:	00021482 	srl	v0,v0,0x12
    7b60:	2442007c 	addiu	v0,v0,124
    7b64:	08001edc 	j	7b70 <_free_r+0x608>
    7b68:	00000000 	nop
    7b6c:	2402007e 	li	v0,126
    7b70:	afc20034 	sw	v0,52(s8)
    7b74:	8fc20034 	lw	v0,52(s8)
    7b78:	00000000 	nop
    7b7c:	00021040 	sll	v0,v0,0x1
    7b80:	00021880 	sll	v1,v0,0x2
    7b84:	3c020001 	lui	v0,0x1
    7b88:	24426590 	addiu	v0,v0,26000
    7b8c:	00621021 	addu	v0,v1,v0
    7b90:	afc20018 	sw	v0,24(s8)
    7b94:	8fc20018 	lw	v0,24(s8)
    7b98:	00000000 	nop
    7b9c:	8c420008 	lw	v0,8(v0)
    7ba0:	00000000 	nop
    7ba4:	afc2001c 	sw	v0,28(s8)
    7ba8:	8fc3001c 	lw	v1,28(s8)
    7bac:	8fc20018 	lw	v0,24(s8)
    7bb0:	00000000 	nop
    7bb4:	14620012 	bne	v1,v0,7c00 <_free_r+0x698>
    7bb8:	00000000 	nop
    7bbc:	3c020001 	lui	v0,0x1
    7bc0:	24436590 	addiu	v1,v0,26000
    7bc4:	3c020001 	lui	v0,0x1
    7bc8:	24426590 	addiu	v0,v0,26000
    7bcc:	8c440004 	lw	a0,4(v0)
    7bd0:	8fc20034 	lw	v0,52(s8)
    7bd4:	00000000 	nop
    7bd8:	04410002 	bgez	v0,7be4 <_free_r+0x67c>
    7bdc:	00000000 	nop
    7be0:	24420003 	addiu	v0,v0,3
    7be4:	00021083 	sra	v0,v0,0x2
    7be8:	24050001 	li	a1,1
    7bec:	00451004 	sllv	v0,a1,v0
    7bf0:	00821025 	or	v0,a0,v0
    7bf4:	ac620004 	sw	v0,4(v1)
    7bf8:	08001f1b 	j	7c6c <_free_r+0x704>
    7bfc:	00000000 	nop
    7c00:	08001f07 	j	7c1c <_free_r+0x6b4>
    7c04:	00000000 	nop
    7c08:	8fc2001c 	lw	v0,28(s8)
    7c0c:	00000000 	nop
    7c10:	8c420008 	lw	v0,8(v0)
    7c14:	00000000 	nop
    7c18:	afc2001c 	sw	v0,28(s8)
    7c1c:	8fc3001c 	lw	v1,28(s8)
    7c20:	8fc20018 	lw	v0,24(s8)
    7c24:	00000000 	nop
    7c28:	1062000b 	beq	v1,v0,7c58 <_free_r+0x6f0>
    7c2c:	00000000 	nop
    7c30:	8fc2001c 	lw	v0,28(s8)
    7c34:	00000000 	nop
    7c38:	8c430004 	lw	v1,4(v0)
    7c3c:	2402fffc 	li	v0,-4
    7c40:	00621824 	and	v1,v1,v0
    7c44:	8fc20014 	lw	v0,20(s8)
    7c48:	00000000 	nop
    7c4c:	0043102b 	sltu	v0,v0,v1
    7c50:	1440ffed 	bnez	v0,7c08 <_free_r+0x6a0>
    7c54:	00000000 	nop
    7c58:	8fc2001c 	lw	v0,28(s8)
    7c5c:	00000000 	nop
    7c60:	8c42000c 	lw	v0,12(v0)
    7c64:	00000000 	nop
    7c68:	afc20018 	sw	v0,24(s8)
    7c6c:	8fc20010 	lw	v0,16(s8)
    7c70:	8fc30018 	lw	v1,24(s8)
    7c74:	00000000 	nop
    7c78:	ac43000c 	sw	v1,12(v0)
    7c7c:	8fc20010 	lw	v0,16(s8)
    7c80:	8fc3001c 	lw	v1,28(s8)
    7c84:	00000000 	nop
    7c88:	ac430008 	sw	v1,8(v0)
    7c8c:	8fc20018 	lw	v0,24(s8)
    7c90:	8fc30010 	lw	v1,16(s8)
    7c94:	00000000 	nop
    7c98:	ac430008 	sw	v1,8(v0)
    7c9c:	8fc20018 	lw	v0,24(s8)
    7ca0:	00000000 	nop
    7ca4:	8c430008 	lw	v1,8(v0)
    7ca8:	8fc2001c 	lw	v0,28(s8)
    7cac:	00000000 	nop
    7cb0:	ac43000c 	sw	v1,12(v0)
    7cb4:	8fc40040 	lw	a0,64(s8)
    7cb8:	0c0028b5 	jal	a2d4 <__malloc_unlock>
    7cbc:	00000000 	nop
    7cc0:	03c0e821 	move	sp,s8
    7cc4:	8fbf003c 	lw	ra,60(sp)
    7cc8:	8fbe0038 	lw	s8,56(sp)
    7ccc:	27bd0040 	addiu	sp,sp,64
    7cd0:	03e00008 	jr	ra
    7cd4:	00000000 	nop

00007cd8 <_malloc_trim_r>:
    7cd8:	27bdffd0 	addiu	sp,sp,-48
    7cdc:	afbf002c 	sw	ra,44(sp)
    7ce0:	afbe0028 	sw	s8,40(sp)
    7ce4:	03a0f021 	move	s8,sp
    7ce8:	afc40030 	sw	a0,48(s8)
    7cec:	afc50034 	sw	a1,52(s8)
    7cf0:	24021000 	li	v0,4096
    7cf4:	afc20010 	sw	v0,16(s8)
    7cf8:	8fc40030 	lw	a0,48(s8)
    7cfc:	0c0028ac 	jal	a2b0 <__malloc_lock>
    7d00:	00000000 	nop
    7d04:	3c020001 	lui	v0,0x1
    7d08:	24426590 	addiu	v0,v0,26000
    7d0c:	8c420008 	lw	v0,8(v0)
    7d10:	00000000 	nop
    7d14:	8c420004 	lw	v0,4(v0)
    7d18:	00000000 	nop
    7d1c:	00401821 	move	v1,v0
    7d20:	2402fffc 	li	v0,-4
    7d24:	00621024 	and	v0,v1,v0
    7d28:	afc20014 	sw	v0,20(s8)
    7d2c:	8fc30014 	lw	v1,20(s8)
    7d30:	8fc20034 	lw	v0,52(s8)
    7d34:	00000000 	nop
    7d38:	00621823 	subu	v1,v1,v0
    7d3c:	8fc20010 	lw	v0,16(s8)
    7d40:	00000000 	nop
    7d44:	00621021 	addu	v0,v1,v0
    7d48:	2443ffef 	addiu	v1,v0,-17
    7d4c:	8fc20010 	lw	v0,16(s8)
    7d50:	00000000 	nop
    7d54:	14400002 	bnez	v0,7d60 <_malloc_trim_r+0x88>
    7d58:	0062001b 	divu	zero,v1,v0
    7d5c:	0007000d 	break	0x7
    7d60:	00001810 	mfhi	v1
    7d64:	00001012 	mflo	v0
    7d68:	2443ffff 	addiu	v1,v0,-1
    7d6c:	8fc20010 	lw	v0,16(s8)
    7d70:	00000000 	nop
    7d74:	00620018 	mult	v1,v0
    7d78:	00001012 	mflo	v0
    7d7c:	afc20018 	sw	v0,24(s8)
    7d80:	8fc30010 	lw	v1,16(s8)
    7d84:	8fc20018 	lw	v0,24(s8)
    7d88:	00000000 	nop
    7d8c:	0043102a 	slt	v0,v0,v1
    7d90:	10400007 	beqz	v0,7db0 <_malloc_trim_r+0xd8>
    7d94:	00000000 	nop
    7d98:	8fc40030 	lw	a0,48(s8)
    7d9c:	0c0028b5 	jal	a2d4 <__malloc_unlock>
    7da0:	00000000 	nop
    7da4:	00001021 	move	v0,zero
    7da8:	08001fc5 	j	7f14 <_malloc_trim_r+0x23c>
    7dac:	00000000 	nop
    7db0:	8fc40030 	lw	a0,48(s8)
    7db4:	00002821 	move	a1,zero
    7db8:	0c00326a 	jal	c9a8 <_sbrk_r>
    7dbc:	00000000 	nop
    7dc0:	afc2001c 	sw	v0,28(s8)
    7dc4:	3c020001 	lui	v0,0x1
    7dc8:	24426590 	addiu	v0,v0,26000
    7dcc:	8c430008 	lw	v1,8(v0)
    7dd0:	8fc20014 	lw	v0,20(s8)
    7dd4:	00000000 	nop
    7dd8:	00621821 	addu	v1,v1,v0
    7ddc:	8fc2001c 	lw	v0,28(s8)
    7de0:	00000000 	nop
    7de4:	10620007 	beq	v1,v0,7e04 <_malloc_trim_r+0x12c>
    7de8:	00000000 	nop
    7dec:	8fc40030 	lw	a0,48(s8)
    7df0:	0c0028b5 	jal	a2d4 <__malloc_unlock>
    7df4:	00000000 	nop
    7df8:	00001021 	move	v0,zero
    7dfc:	08001fc5 	j	7f14 <_malloc_trim_r+0x23c>
    7e00:	00000000 	nop
    7e04:	8fc20018 	lw	v0,24(s8)
    7e08:	00000000 	nop
    7e0c:	00021023 	negu	v0,v0
    7e10:	8fc40030 	lw	a0,48(s8)
    7e14:	00402821 	move	a1,v0
    7e18:	0c00326a 	jal	c9a8 <_sbrk_r>
    7e1c:	00000000 	nop
    7e20:	afc20020 	sw	v0,32(s8)
    7e24:	8fc30020 	lw	v1,32(s8)
    7e28:	2402ffff 	li	v0,-1
    7e2c:	14620025 	bne	v1,v0,7ec4 <_malloc_trim_r+0x1ec>
    7e30:	00000000 	nop
    7e34:	8fc40030 	lw	a0,48(s8)
    7e38:	00002821 	move	a1,zero
    7e3c:	0c00326a 	jal	c9a8 <_sbrk_r>
    7e40:	00000000 	nop
    7e44:	afc2001c 	sw	v0,28(s8)
    7e48:	8fc3001c 	lw	v1,28(s8)
    7e4c:	3c020001 	lui	v0,0x1
    7e50:	24426590 	addiu	v0,v0,26000
    7e54:	8c420008 	lw	v0,8(v0)
    7e58:	00000000 	nop
    7e5c:	00621023 	subu	v0,v1,v0
    7e60:	afc20014 	sw	v0,20(s8)
    7e64:	8fc20014 	lw	v0,20(s8)
    7e68:	00000000 	nop
    7e6c:	28420010 	slti	v0,v0,16
    7e70:	1440000e 	bnez	v0,7eac <_malloc_trim_r+0x1d4>
    7e74:	00000000 	nop
    7e78:	8fc3001c 	lw	v1,28(s8)
    7e7c:	8f828078 	lw	v0,-32648(gp)
    7e80:	00000000 	nop
    7e84:	00621823 	subu	v1,v1,v0
    7e88:	3c020001 	lui	v0,0x1
    7e8c:	ac436a60 	sw	v1,27232(v0)
    7e90:	3c020001 	lui	v0,0x1
    7e94:	24426590 	addiu	v0,v0,26000
    7e98:	8c420008 	lw	v0,8(v0)
    7e9c:	8fc30014 	lw	v1,20(s8)
    7ea0:	00000000 	nop
    7ea4:	34630001 	ori	v1,v1,0x1
    7ea8:	ac430004 	sw	v1,4(v0)
    7eac:	8fc40030 	lw	a0,48(s8)
    7eb0:	0c0028b5 	jal	a2d4 <__malloc_unlock>
    7eb4:	00000000 	nop
    7eb8:	00001021 	move	v0,zero
    7ebc:	08001fc5 	j	7f14 <_malloc_trim_r+0x23c>
    7ec0:	00000000 	nop
    7ec4:	3c020001 	lui	v0,0x1
    7ec8:	24426590 	addiu	v0,v0,26000
    7ecc:	8c420008 	lw	v0,8(v0)
    7ed0:	8fc40014 	lw	a0,20(s8)
    7ed4:	8fc30018 	lw	v1,24(s8)
    7ed8:	00000000 	nop
    7edc:	00831823 	subu	v1,a0,v1
    7ee0:	34630001 	ori	v1,v1,0x1
    7ee4:	ac430004 	sw	v1,4(v0)
    7ee8:	3c020001 	lui	v0,0x1
    7eec:	8c436a60 	lw	v1,27232(v0)
    7ef0:	8fc20018 	lw	v0,24(s8)
    7ef4:	00000000 	nop
    7ef8:	00621823 	subu	v1,v1,v0
    7efc:	3c020001 	lui	v0,0x1
    7f00:	ac436a60 	sw	v1,27232(v0)
    7f04:	8fc40030 	lw	a0,48(s8)
    7f08:	0c0028b5 	jal	a2d4 <__malloc_unlock>
    7f0c:	00000000 	nop
    7f10:	24020001 	li	v0,1
    7f14:	03c0e821 	move	sp,s8
    7f18:	8fbf002c 	lw	ra,44(sp)
    7f1c:	8fbe0028 	lw	s8,40(sp)
    7f20:	27bd0030 	addiu	sp,sp,48
    7f24:	03e00008 	jr	ra
    7f28:	00000000 	nop

00007f2c <_fwalk>:
    7f2c:	27bdffd0 	addiu	sp,sp,-48
    7f30:	afbf002c 	sw	ra,44(sp)
    7f34:	afbe0028 	sw	s8,40(sp)
    7f38:	afb40024 	sw	s4,36(sp)
    7f3c:	afb30020 	sw	s3,32(sp)
    7f40:	afb2001c 	sw	s2,28(sp)
    7f44:	afb10018 	sw	s1,24(sp)
    7f48:	afb00014 	sw	s0,20(sp)
    7f4c:	03a0f021 	move	s8,sp
    7f50:	afc40030 	sw	a0,48(s8)
    7f54:	00a0a021 	move	s4,a1
    7f58:	00009021 	move	s2,zero
    7f5c:	8fc20030 	lw	v0,48(s8)
    7f60:	00000000 	nop
    7f64:	245102e0 	addiu	s1,v0,736
    7f68:	08001ffa 	j	7fe8 <_fwalk+0xbc>
    7f6c:	00000000 	nop
    7f70:	8e300008 	lw	s0,8(s1)
    7f74:	8e330004 	lw	s3,4(s1)
    7f78:	08001ff5 	j	7fd4 <_fwalk+0xa8>
    7f7c:	00000000 	nop
    7f80:	8602000c 	lh	v0,12(s0)
    7f84:	00000000 	nop
    7f88:	10400011 	beqz	v0,7fd0 <_fwalk+0xa4>
    7f8c:	00000000 	nop
    7f90:	8602000c 	lh	v0,12(s0)
    7f94:	00000000 	nop
    7f98:	1040000d 	beqz	v0,7fd0 <_fwalk+0xa4>
    7f9c:	00000000 	nop
    7fa0:	8603000c 	lh	v1,12(s0)
    7fa4:	24020001 	li	v0,1
    7fa8:	10620009 	beq	v1,v0,7fd0 <_fwalk+0xa4>
    7fac:	00000000 	nop
    7fb0:	8603000e 	lh	v1,14(s0)
    7fb4:	2402ffff 	li	v0,-1
    7fb8:	10620005 	beq	v1,v0,7fd0 <_fwalk+0xa4>
    7fbc:	00000000 	nop
    7fc0:	02002021 	move	a0,s0
    7fc4:	0280f809 	jalr	s4
    7fc8:	00000000 	nop
    7fcc:	02429025 	or	s2,s2,v0
    7fd0:	26100068 	addiu	s0,s0,104
    7fd4:	2673ffff 	addiu	s3,s3,-1
    7fd8:	0661ffe9 	bgez	s3,7f80 <_fwalk+0x54>
    7fdc:	00000000 	nop
    7fe0:	8e310000 	lw	s1,0(s1)
    7fe4:	00000000 	nop
    7fe8:	1620ffe1 	bnez	s1,7f70 <_fwalk+0x44>
    7fec:	00000000 	nop
    7ff0:	02401021 	move	v0,s2
    7ff4:	03c0e821 	move	sp,s8
    7ff8:	8fbf002c 	lw	ra,44(sp)
    7ffc:	8fbe0028 	lw	s8,40(sp)
    8000:	8fb40024 	lw	s4,36(sp)
    8004:	8fb30020 	lw	s3,32(sp)
    8008:	8fb2001c 	lw	s2,28(sp)
    800c:	8fb10018 	lw	s1,24(sp)
    8010:	8fb00014 	lw	s0,20(sp)
    8014:	27bd0030 	addiu	sp,sp,48
    8018:	03e00008 	jr	ra
    801c:	00000000 	nop

00008020 <_fwalk_reent>:
    8020:	27bdffd0 	addiu	sp,sp,-48
    8024:	afbf002c 	sw	ra,44(sp)
    8028:	afbe0028 	sw	s8,40(sp)
    802c:	afb40024 	sw	s4,36(sp)
    8030:	afb30020 	sw	s3,32(sp)
    8034:	afb2001c 	sw	s2,28(sp)
    8038:	afb10018 	sw	s1,24(sp)
    803c:	afb00014 	sw	s0,20(sp)
    8040:	03a0f021 	move	s8,sp
    8044:	afc40030 	sw	a0,48(s8)
    8048:	00a0a021 	move	s4,a1
    804c:	00009021 	move	s2,zero
    8050:	8fc20030 	lw	v0,48(s8)
    8054:	00000000 	nop
    8058:	245102e0 	addiu	s1,v0,736
    805c:	08002038 	j	80e0 <_fwalk_reent+0xc0>
    8060:	00000000 	nop
    8064:	8e300008 	lw	s0,8(s1)
    8068:	8e330004 	lw	s3,4(s1)
    806c:	08002033 	j	80cc <_fwalk_reent+0xac>
    8070:	00000000 	nop
    8074:	8602000c 	lh	v0,12(s0)
    8078:	00000000 	nop
    807c:	10400012 	beqz	v0,80c8 <_fwalk_reent+0xa8>
    8080:	00000000 	nop
    8084:	8602000c 	lh	v0,12(s0)
    8088:	00000000 	nop
    808c:	1040000e 	beqz	v0,80c8 <_fwalk_reent+0xa8>
    8090:	00000000 	nop
    8094:	8603000c 	lh	v1,12(s0)
    8098:	24020001 	li	v0,1
    809c:	1062000a 	beq	v1,v0,80c8 <_fwalk_reent+0xa8>
    80a0:	00000000 	nop
    80a4:	8603000e 	lh	v1,14(s0)
    80a8:	2402ffff 	li	v0,-1
    80ac:	10620006 	beq	v1,v0,80c8 <_fwalk_reent+0xa8>
    80b0:	00000000 	nop
    80b4:	8fc40030 	lw	a0,48(s8)
    80b8:	02002821 	move	a1,s0
    80bc:	0280f809 	jalr	s4
    80c0:	00000000 	nop
    80c4:	02429025 	or	s2,s2,v0
    80c8:	26100068 	addiu	s0,s0,104
    80cc:	2673ffff 	addiu	s3,s3,-1
    80d0:	0661ffe8 	bgez	s3,8074 <_fwalk_reent+0x54>
    80d4:	00000000 	nop
    80d8:	8e310000 	lw	s1,0(s1)
    80dc:	00000000 	nop
    80e0:	1620ffe0 	bnez	s1,8064 <_fwalk_reent+0x44>
    80e4:	00000000 	nop
    80e8:	02401021 	move	v0,s2
    80ec:	03c0e821 	move	sp,s8
    80f0:	8fbf002c 	lw	ra,44(sp)
    80f4:	8fbe0028 	lw	s8,40(sp)
    80f8:	8fb40024 	lw	s4,36(sp)
    80fc:	8fb30020 	lw	s3,32(sp)
    8100:	8fb2001c 	lw	s2,28(sp)
    8104:	8fb10018 	lw	s1,24(sp)
    8108:	8fb00014 	lw	s0,20(sp)
    810c:	27bd0030 	addiu	sp,sp,48
    8110:	03e00008 	jr	ra
    8114:	00000000 	nop

00008118 <_setlocale_r>:
    8118:	27bdffe8 	addiu	sp,sp,-24
    811c:	afbf0014 	sw	ra,20(sp)
    8120:	afbe0010 	sw	s8,16(sp)
    8124:	03a0f021 	move	s8,sp
    8128:	afc40018 	sw	a0,24(s8)
    812c:	afc5001c 	sw	a1,28(s8)
    8130:	afc60020 	sw	a2,32(s8)
    8134:	8fc20020 	lw	v0,32(s8)
    8138:	00000000 	nop
    813c:	10400019 	beqz	v0,81a4 <_setlocale_r+0x8c>
    8140:	00000000 	nop
    8144:	8fc40020 	lw	a0,32(s8)
    8148:	3c020001 	lui	v0,0x1
    814c:	24454c80 	addiu	a1,v0,19584
    8150:	0c003339 	jal	cce4 <strcmp>
    8154:	00000000 	nop
    8158:	10400012 	beqz	v0,81a4 <_setlocale_r+0x8c>
    815c:	00000000 	nop
    8160:	8fc40020 	lw	a0,32(s8)
    8164:	3c020001 	lui	v0,0x1
    8168:	24454c88 	addiu	a1,v0,19592
    816c:	0c003339 	jal	cce4 <strcmp>
    8170:	00000000 	nop
    8174:	1040000b 	beqz	v0,81a4 <_setlocale_r+0x8c>
    8178:	00000000 	nop
    817c:	8fc40020 	lw	a0,32(s8)
    8180:	3c020001 	lui	v0,0x1
    8184:	24454c7c 	addiu	a1,v0,19580
    8188:	0c003339 	jal	cce4 <strcmp>
    818c:	00000000 	nop
    8190:	10400004 	beqz	v0,81a4 <_setlocale_r+0x8c>
    8194:	00000000 	nop
    8198:	00001021 	move	v0,zero
    819c:	0800206b 	j	81ac <_setlocale_r+0x94>
    81a0:	00000000 	nop
    81a4:	3c020001 	lui	v0,0x1
    81a8:	24424c88 	addiu	v0,v0,19592
    81ac:	03c0e821 	move	sp,s8
    81b0:	8fbf0014 	lw	ra,20(sp)
    81b4:	8fbe0010 	lw	s8,16(sp)
    81b8:	27bd0018 	addiu	sp,sp,24
    81bc:	03e00008 	jr	ra
    81c0:	00000000 	nop

000081c4 <__locale_charset>:
    81c4:	27bdfff8 	addiu	sp,sp,-8
    81c8:	afbe0004 	sw	s8,4(sp)
    81cc:	03a0f021 	move	s8,sp
    81d0:	3c020001 	lui	v0,0x1
    81d4:	24426550 	addiu	v0,v0,25936
    81d8:	03c0e821 	move	sp,s8
    81dc:	8fbe0004 	lw	s8,4(sp)
    81e0:	27bd0008 	addiu	sp,sp,8
    81e4:	03e00008 	jr	ra
    81e8:	00000000 	nop

000081ec <__locale_mb_cur_max>:
    81ec:	27bdfff8 	addiu	sp,sp,-8
    81f0:	afbe0004 	sw	s8,4(sp)
    81f4:	03a0f021 	move	s8,sp
    81f8:	8f828070 	lw	v0,-32656(gp)
    81fc:	03c0e821 	move	sp,s8
    8200:	8fbe0004 	lw	s8,4(sp)
    8204:	27bd0008 	addiu	sp,sp,8
    8208:	03e00008 	jr	ra
    820c:	00000000 	nop

00008210 <__locale_msgcharset>:
    8210:	27bdfff8 	addiu	sp,sp,-8
    8214:	afbe0004 	sw	s8,4(sp)
    8218:	03a0f021 	move	s8,sp
    821c:	3c020001 	lui	v0,0x1
    8220:	24426570 	addiu	v0,v0,25968
    8224:	03c0e821 	move	sp,s8
    8228:	8fbe0004 	lw	s8,4(sp)
    822c:	27bd0008 	addiu	sp,sp,8
    8230:	03e00008 	jr	ra
    8234:	00000000 	nop

00008238 <__locale_cjk_lang>:
    8238:	27bdfff8 	addiu	sp,sp,-8
    823c:	afbe0004 	sw	s8,4(sp)
    8240:	03a0f021 	move	s8,sp
    8244:	8f8280b8 	lw	v0,-32584(gp)
    8248:	03c0e821 	move	sp,s8
    824c:	8fbe0004 	lw	s8,4(sp)
    8250:	27bd0008 	addiu	sp,sp,8
    8254:	03e00008 	jr	ra
    8258:	00000000 	nop

0000825c <_localeconv_r>:
    825c:	27bdfff8 	addiu	sp,sp,-8
    8260:	afbe0004 	sw	s8,4(sp)
    8264:	03a0f021 	move	s8,sp
    8268:	afc40008 	sw	a0,8(s8)
    826c:	3c020001 	lui	v0,0x1
    8270:	24426518 	addiu	v0,v0,25880
    8274:	03c0e821 	move	sp,s8
    8278:	8fbe0004 	lw	s8,4(sp)
    827c:	27bd0008 	addiu	sp,sp,8
    8280:	03e00008 	jr	ra
    8284:	00000000 	nop

00008288 <setlocale>:
    8288:	27bdffe8 	addiu	sp,sp,-24
    828c:	afbf0014 	sw	ra,20(sp)
    8290:	afbe0010 	sw	s8,16(sp)
    8294:	03a0f021 	move	s8,sp
    8298:	afc40018 	sw	a0,24(s8)
    829c:	afc5001c 	sw	a1,28(s8)
    82a0:	8f828068 	lw	v0,-32664(gp)
    82a4:	00000000 	nop
    82a8:	00402021 	move	a0,v0
    82ac:	8fc50018 	lw	a1,24(s8)
    82b0:	8fc6001c 	lw	a2,28(s8)
    82b4:	0c002046 	jal	8118 <_setlocale_r>
    82b8:	00000000 	nop
    82bc:	03c0e821 	move	sp,s8
    82c0:	8fbf0014 	lw	ra,20(sp)
    82c4:	8fbe0010 	lw	s8,16(sp)
    82c8:	27bd0018 	addiu	sp,sp,24
    82cc:	03e00008 	jr	ra
    82d0:	00000000 	nop

000082d4 <localeconv>:
    82d4:	27bdffe8 	addiu	sp,sp,-24
    82d8:	afbf0014 	sw	ra,20(sp)
    82dc:	afbe0010 	sw	s8,16(sp)
    82e0:	03a0f021 	move	s8,sp
    82e4:	8f828068 	lw	v0,-32664(gp)
    82e8:	00000000 	nop
    82ec:	00402021 	move	a0,v0
    82f0:	0c002097 	jal	825c <_localeconv_r>
    82f4:	00000000 	nop
    82f8:	03c0e821 	move	sp,s8
    82fc:	8fbf0014 	lw	ra,20(sp)
    8300:	8fbe0010 	lw	s8,16(sp)
    8304:	27bd0018 	addiu	sp,sp,24
    8308:	03e00008 	jr	ra
    830c:	00000000 	nop

00008310 <__smakebuf_r>:
    8310:	27bdff98 	addiu	sp,sp,-104
    8314:	afbf0064 	sw	ra,100(sp)
    8318:	afbe0060 	sw	s8,96(sp)
    831c:	afb3005c 	sw	s3,92(sp)
    8320:	afb20058 	sw	s2,88(sp)
    8324:	afb10054 	sw	s1,84(sp)
    8328:	afb00050 	sw	s0,80(sp)
    832c:	03a0f021 	move	s8,sp
    8330:	afc40068 	sw	a0,104(s8)
    8334:	00a08021 	move	s0,a1
    8338:	8602000c 	lh	v0,12(s0)
    833c:	00000000 	nop
    8340:	3042ffff 	andi	v0,v0,0xffff
    8344:	30420002 	andi	v0,v0,0x2
    8348:	1040000a 	beqz	v0,8374 <__smakebuf_r+0x64>
    834c:	00000000 	nop
    8350:	26020043 	addiu	v0,s0,67
    8354:	ae020000 	sw	v0,0(s0)
    8358:	8e020000 	lw	v0,0(s0)
    835c:	00000000 	nop
    8360:	ae020010 	sw	v0,16(s0)
    8364:	24020001 	li	v0,1
    8368:	ae020014 	sw	v0,20(s0)
    836c:	0800215b 	j	856c <__smakebuf_r+0x25c>
    8370:	00000000 	nop
    8374:	8602000e 	lh	v0,14(s0)
    8378:	00000000 	nop
    837c:	0440000a 	bltz	v0,83a8 <__smakebuf_r+0x98>
    8380:	00000000 	nop
    8384:	8602000e 	lh	v0,14(s0)
    8388:	8fc40068 	lw	a0,104(s8)
    838c:	00402821 	move	a1,v0
    8390:	27c20010 	addiu	v0,s8,16
    8394:	00403021 	move	a2,v0
    8398:	0c003ebf 	jal	fafc <_fstat_r>
    839c:	00000000 	nop
    83a0:	04410014 	bgez	v0,83f4 <__smakebuf_r+0xe4>
    83a4:	00000000 	nop
    83a8:	00009021 	move	s2,zero
    83ac:	8602000c 	lh	v0,12(s0)
    83b0:	00000000 	nop
    83b4:	3042ffff 	andi	v0,v0,0xffff
    83b8:	30420080 	andi	v0,v0,0x80
    83bc:	10400004 	beqz	v0,83d0 <__smakebuf_r+0xc0>
    83c0:	00000000 	nop
    83c4:	24110040 	li	s1,64
    83c8:	080020f5 	j	83d4 <__smakebuf_r+0xc4>
    83cc:	00000000 	nop
    83d0:	24110400 	li	s1,1024
    83d4:	8602000c 	lh	v0,12(s0)
    83d8:	00000000 	nop
    83dc:	34420800 	ori	v0,v0,0x800
    83e0:	00021400 	sll	v0,v0,0x10
    83e4:	00021403 	sra	v0,v0,0x10
    83e8:	a602000c 	sh	v0,12(s0)
    83ec:	08002120 	j	8480 <__smakebuf_r+0x170>
    83f0:	00000000 	nop
    83f4:	8fc20014 	lw	v0,20(s8)
    83f8:	00000000 	nop
    83fc:	3042f000 	andi	v0,v0,0xf000
    8400:	38422000 	xori	v0,v0,0x2000
    8404:	2c420001 	sltiu	v0,v0,1
    8408:	304200ff 	andi	v0,v0,0xff
    840c:	00409021 	move	s2,v0
    8410:	24110400 	li	s1,1024
    8414:	8fc20014 	lw	v0,20(s8)
    8418:	00000000 	nop
    841c:	3043f000 	andi	v1,v0,0xf000
    8420:	34028000 	li	v0,0x8000
    8424:	14620010 	bne	v1,v0,8468 <__smakebuf_r+0x158>
    8428:	00000000 	nop
    842c:	8e030028 	lw	v1,40(s0)
    8430:	3c020001 	lui	v0,0x1
    8434:	2442cbd0 	addiu	v0,v0,-13360
    8438:	1462000b 	bne	v1,v0,8468 <__smakebuf_r+0x158>
    843c:	00000000 	nop
    8440:	8602000c 	lh	v0,12(s0)
    8444:	00000000 	nop
    8448:	34420400 	ori	v0,v0,0x400
    844c:	00021400 	sll	v0,v0,0x10
    8450:	00021403 	sra	v0,v0,0x10
    8454:	a602000c 	sh	v0,12(s0)
    8458:	24020400 	li	v0,1024
    845c:	ae02004c 	sw	v0,76(s0)
    8460:	08002120 	j	8480 <__smakebuf_r+0x170>
    8464:	00000000 	nop
    8468:	8602000c 	lh	v0,12(s0)
    846c:	00000000 	nop
    8470:	34420800 	ori	v0,v0,0x800
    8474:	00021400 	sll	v0,v0,0x10
    8478:	00021403 	sra	v0,v0,0x10
    847c:	a602000c 	sh	v0,12(s0)
    8480:	8fc40068 	lw	a0,104(s8)
    8484:	02202821 	move	a1,s1
    8488:	0c002291 	jal	8a44 <_malloc_r>
    848c:	00000000 	nop
    8490:	00409821 	move	s3,v0
    8494:	16600016 	bnez	s3,84f0 <__smakebuf_r+0x1e0>
    8498:	00000000 	nop
    849c:	8602000c 	lh	v0,12(s0)
    84a0:	00000000 	nop
    84a4:	3042ffff 	andi	v0,v0,0xffff
    84a8:	30420200 	andi	v0,v0,0x200
    84ac:	1440002f 	bnez	v0,856c <__smakebuf_r+0x25c>
    84b0:	00000000 	nop
    84b4:	8602000c 	lh	v0,12(s0)
    84b8:	00000000 	nop
    84bc:	34420002 	ori	v0,v0,0x2
    84c0:	00021400 	sll	v0,v0,0x10
    84c4:	00021403 	sra	v0,v0,0x10
    84c8:	a602000c 	sh	v0,12(s0)
    84cc:	26020043 	addiu	v0,s0,67
    84d0:	ae020000 	sw	v0,0(s0)
    84d4:	8e020000 	lw	v0,0(s0)
    84d8:	00000000 	nop
    84dc:	ae020010 	sw	v0,16(s0)
    84e0:	24020001 	li	v0,1
    84e4:	ae020014 	sw	v0,20(s0)
    84e8:	0800215b 	j	856c <__smakebuf_r+0x25c>
    84ec:	00000000 	nop
    84f0:	8fc20068 	lw	v0,104(s8)
    84f4:	3c030000 	lui	v1,0x0
    84f8:	2463725c 	addiu	v1,v1,29276
    84fc:	ac43003c 	sw	v1,60(v0)
    8500:	8602000c 	lh	v0,12(s0)
    8504:	00000000 	nop
    8508:	34420080 	ori	v0,v0,0x80
    850c:	00021400 	sll	v0,v0,0x10
    8510:	00021403 	sra	v0,v0,0x10
    8514:	a602000c 	sh	v0,12(s0)
    8518:	ae130000 	sw	s3,0(s0)
    851c:	8e020000 	lw	v0,0(s0)
    8520:	00000000 	nop
    8524:	ae020010 	sw	v0,16(s0)
    8528:	02201021 	move	v0,s1
    852c:	ae020014 	sw	v0,20(s0)
    8530:	1240000e 	beqz	s2,856c <__smakebuf_r+0x25c>
    8534:	00000000 	nop
    8538:	8602000e 	lh	v0,14(s0)
    853c:	8fc40068 	lw	a0,104(s8)
    8540:	00402821 	move	a1,v0
    8544:	0c0040cc 	jal	10330 <_isatty_r>
    8548:	00000000 	nop
    854c:	10400007 	beqz	v0,856c <__smakebuf_r+0x25c>
    8550:	00000000 	nop
    8554:	8602000c 	lh	v0,12(s0)
    8558:	00000000 	nop
    855c:	34420001 	ori	v0,v0,0x1
    8560:	00021400 	sll	v0,v0,0x10
    8564:	00021403 	sra	v0,v0,0x10
    8568:	a602000c 	sh	v0,12(s0)
    856c:	03c0e821 	move	sp,s8
    8570:	8fbf0064 	lw	ra,100(sp)
    8574:	8fbe0060 	lw	s8,96(sp)
    8578:	8fb3005c 	lw	s3,92(sp)
    857c:	8fb20058 	lw	s2,88(sp)
    8580:	8fb10054 	lw	s1,84(sp)
    8584:	8fb00050 	lw	s0,80(sp)
    8588:	27bd0068 	addiu	sp,sp,104
    858c:	03e00008 	jr	ra
    8590:	00000000 	nop

00008594 <malloc_extend_top>:
    8594:	27bdffb8 	addiu	sp,sp,-72
    8598:	afbf0044 	sw	ra,68(sp)
    859c:	afbe0040 	sw	s8,64(sp)
    85a0:	03a0f021 	move	s8,sp
    85a4:	afc40048 	sw	a0,72(s8)
    85a8:	afc5004c 	sw	a1,76(s8)
    85ac:	afc00020 	sw	zero,32(s8)
    85b0:	3c020001 	lui	v0,0x1
    85b4:	24426590 	addiu	v0,v0,26000
    85b8:	8c420008 	lw	v0,8(v0)
    85bc:	00000000 	nop
    85c0:	afc20024 	sw	v0,36(s8)
    85c4:	8fc20024 	lw	v0,36(s8)
    85c8:	00000000 	nop
    85cc:	8c430004 	lw	v1,4(v0)
    85d0:	2402fffc 	li	v0,-4
    85d4:	00621024 	and	v0,v1,v0
    85d8:	afc20028 	sw	v0,40(s8)
    85dc:	8fc30024 	lw	v1,36(s8)
    85e0:	8fc20028 	lw	v0,40(s8)
    85e4:	00000000 	nop
    85e8:	00621021 	addu	v0,v1,v0
    85ec:	afc2002c 	sw	v0,44(s8)
    85f0:	8f8380bc 	lw	v1,-32580(gp)
    85f4:	8fc2004c 	lw	v0,76(s8)
    85f8:	00000000 	nop
    85fc:	00621021 	addu	v0,v1,v0
    8600:	24420010 	addiu	v0,v0,16
    8604:	afc2001c 	sw	v0,28(s8)
    8608:	24021000 	li	v0,4096
    860c:	afc20030 	sw	v0,48(s8)
    8610:	8f838078 	lw	v1,-32648(gp)
    8614:	2402ffff 	li	v0,-1
    8618:	1062000b 	beq	v1,v0,8648 <malloc_extend_top+0xb4>
    861c:	00000000 	nop
    8620:	8fc30030 	lw	v1,48(s8)
    8624:	8fc2001c 	lw	v0,28(s8)
    8628:	00000000 	nop
    862c:	00621021 	addu	v0,v1,v0
    8630:	2443ffff 	addiu	v1,v0,-1
    8634:	8fc20030 	lw	v0,48(s8)
    8638:	00000000 	nop
    863c:	00021023 	negu	v0,v0
    8640:	00621024 	and	v0,v1,v0
    8644:	afc2001c 	sw	v0,28(s8)
    8648:	8fc2001c 	lw	v0,28(s8)
    864c:	8fc40048 	lw	a0,72(s8)
    8650:	00402821 	move	a1,v0
    8654:	0c00326a 	jal	c9a8 <_sbrk_r>
    8658:	00000000 	nop
    865c:	afc20010 	sw	v0,16(s8)
    8660:	8fc30010 	lw	v1,16(s8)
    8664:	2402ffff 	li	v0,-1
    8668:	1062000c 	beq	v1,v0,869c <malloc_extend_top+0x108>
    866c:	00000000 	nop
    8670:	8fc30010 	lw	v1,16(s8)
    8674:	8fc2002c 	lw	v0,44(s8)
    8678:	00000000 	nop
    867c:	0062102b 	sltu	v0,v1,v0
    8680:	10400008 	beqz	v0,86a4 <malloc_extend_top+0x110>
    8684:	00000000 	nop
    8688:	8fc30024 	lw	v1,36(s8)
    868c:	3c020001 	lui	v0,0x1
    8690:	24426590 	addiu	v0,v0,26000
    8694:	10620003 	beq	v1,v0,86a4 <malloc_extend_top+0x110>
    8698:	00000000 	nop
    869c:	0800228b 	j	8a2c <malloc_extend_top+0x498>
    86a0:	00000000 	nop
    86a4:	3c020001 	lui	v0,0x1
    86a8:	8c426a60 	lw	v0,27232(v0)
    86ac:	00000000 	nop
    86b0:	00401821 	move	v1,v0
    86b4:	8fc2001c 	lw	v0,28(s8)
    86b8:	00000000 	nop
    86bc:	00621021 	addu	v0,v1,v0
    86c0:	00401821 	move	v1,v0
    86c4:	3c020001 	lui	v0,0x1
    86c8:	ac436a60 	sw	v1,27232(v0)
    86cc:	8fc30010 	lw	v1,16(s8)
    86d0:	8fc2002c 	lw	v0,44(s8)
    86d4:	00000000 	nop
    86d8:	14620017 	bne	v1,v0,8738 <malloc_extend_top+0x1a4>
    86dc:	00000000 	nop
    86e0:	8fc20030 	lw	v0,48(s8)
    86e4:	00000000 	nop
    86e8:	2443ffff 	addiu	v1,v0,-1
    86ec:	8fc2002c 	lw	v0,44(s8)
    86f0:	00000000 	nop
    86f4:	00621024 	and	v0,v1,v0
    86f8:	1440000f 	bnez	v0,8738 <malloc_extend_top+0x1a4>
    86fc:	00000000 	nop
    8700:	8fc3001c 	lw	v1,28(s8)
    8704:	8fc20028 	lw	v0,40(s8)
    8708:	00000000 	nop
    870c:	00621021 	addu	v0,v1,v0
    8710:	afc20034 	sw	v0,52(s8)
    8714:	3c020001 	lui	v0,0x1
    8718:	24426590 	addiu	v0,v0,26000
    871c:	8c420008 	lw	v0,8(v0)
    8720:	8fc30034 	lw	v1,52(s8)
    8724:	00000000 	nop
    8728:	34630001 	ori	v1,v1,0x1
    872c:	ac430004 	sw	v1,4(v0)
    8730:	08002271 	j	89c4 <malloc_extend_top+0x430>
    8734:	00000000 	nop
    8738:	8f838078 	lw	v1,-32648(gp)
    873c:	2402ffff 	li	v0,-1
    8740:	14620006 	bne	v1,v0,875c <malloc_extend_top+0x1c8>
    8744:	00000000 	nop
    8748:	8fc20010 	lw	v0,16(s8)
    874c:	00000000 	nop
    8750:	af828078 	sw	v0,-32648(gp)
    8754:	080021e0 	j	8780 <malloc_extend_top+0x1ec>
    8758:	00000000 	nop
    875c:	3c020001 	lui	v0,0x1
    8760:	8c436a60 	lw	v1,27232(v0)
    8764:	8fc40010 	lw	a0,16(s8)
    8768:	8fc2002c 	lw	v0,44(s8)
    876c:	00000000 	nop
    8770:	00821023 	subu	v0,a0,v0
    8774:	00621821 	addu	v1,v1,v0
    8778:	3c020001 	lui	v0,0x1
    877c:	ac436a60 	sw	v1,27232(v0)
    8780:	8fc20010 	lw	v0,16(s8)
    8784:	00000000 	nop
    8788:	24420008 	addiu	v0,v0,8
    878c:	30420007 	andi	v0,v0,0x7
    8790:	afc20038 	sw	v0,56(s8)
    8794:	8fc20038 	lw	v0,56(s8)
    8798:	00000000 	nop
    879c:	1040000d 	beqz	v0,87d4 <malloc_extend_top+0x240>
    87a0:	00000000 	nop
    87a4:	24030008 	li	v1,8
    87a8:	8fc20038 	lw	v0,56(s8)
    87ac:	00000000 	nop
    87b0:	00621023 	subu	v0,v1,v0
    87b4:	afc20014 	sw	v0,20(s8)
    87b8:	8fc30010 	lw	v1,16(s8)
    87bc:	8fc20014 	lw	v0,20(s8)
    87c0:	00000000 	nop
    87c4:	00621021 	addu	v0,v1,v0
    87c8:	afc20010 	sw	v0,16(s8)
    87cc:	080021f6 	j	87d8 <malloc_extend_top+0x244>
    87d0:	00000000 	nop
    87d4:	afc00014 	sw	zero,20(s8)
    87d8:	8fc30010 	lw	v1,16(s8)
    87dc:	8fc2001c 	lw	v0,28(s8)
    87e0:	00000000 	nop
    87e4:	00621021 	addu	v0,v1,v0
    87e8:	00401821 	move	v1,v0
    87ec:	8fc20030 	lw	v0,48(s8)
    87f0:	00000000 	nop
    87f4:	2442ffff 	addiu	v0,v0,-1
    87f8:	00621024 	and	v0,v1,v0
    87fc:	8fc30030 	lw	v1,48(s8)
    8800:	00000000 	nop
    8804:	00621023 	subu	v0,v1,v0
    8808:	8fc30014 	lw	v1,20(s8)
    880c:	00000000 	nop
    8810:	00621021 	addu	v0,v1,v0
    8814:	afc20014 	sw	v0,20(s8)
    8818:	8fc20014 	lw	v0,20(s8)
    881c:	8fc40048 	lw	a0,72(s8)
    8820:	00402821 	move	a1,v0
    8824:	0c00326a 	jal	c9a8 <_sbrk_r>
    8828:	00000000 	nop
    882c:	afc20018 	sw	v0,24(s8)
    8830:	8fc30018 	lw	v1,24(s8)
    8834:	2402ffff 	li	v0,-1
    8838:	14620007 	bne	v1,v0,8858 <malloc_extend_top+0x2c4>
    883c:	00000000 	nop
    8840:	afc00014 	sw	zero,20(s8)
    8844:	24020001 	li	v0,1
    8848:	afc20020 	sw	v0,32(s8)
    884c:	8fc20010 	lw	v0,16(s8)
    8850:	00000000 	nop
    8854:	afc20018 	sw	v0,24(s8)
    8858:	3c020001 	lui	v0,0x1
    885c:	8c426a60 	lw	v0,27232(v0)
    8860:	00000000 	nop
    8864:	00401821 	move	v1,v0
    8868:	8fc20014 	lw	v0,20(s8)
    886c:	00000000 	nop
    8870:	00621021 	addu	v0,v1,v0
    8874:	00401821 	move	v1,v0
    8878:	3c020001 	lui	v0,0x1
    887c:	ac436a60 	sw	v1,27232(v0)
    8880:	3c020001 	lui	v0,0x1
    8884:	24426590 	addiu	v0,v0,26000
    8888:	8fc30010 	lw	v1,16(s8)
    888c:	00000000 	nop
    8890:	ac430008 	sw	v1,8(v0)
    8894:	8fc30018 	lw	v1,24(s8)
    8898:	8fc20010 	lw	v0,16(s8)
    889c:	00000000 	nop
    88a0:	00621023 	subu	v0,v1,v0
    88a4:	00401821 	move	v1,v0
    88a8:	8fc20014 	lw	v0,20(s8)
    88ac:	00000000 	nop
    88b0:	00621021 	addu	v0,v1,v0
    88b4:	afc20034 	sw	v0,52(s8)
    88b8:	3c020001 	lui	v0,0x1
    88bc:	24426590 	addiu	v0,v0,26000
    88c0:	8c420008 	lw	v0,8(v0)
    88c4:	8fc30034 	lw	v1,52(s8)
    88c8:	00000000 	nop
    88cc:	34630001 	ori	v1,v1,0x1
    88d0:	ac430004 	sw	v1,4(v0)
    88d4:	8fc30024 	lw	v1,36(s8)
    88d8:	3c020001 	lui	v0,0x1
    88dc:	24426590 	addiu	v0,v0,26000
    88e0:	10620038 	beq	v1,v0,89c4 <malloc_extend_top+0x430>
    88e4:	00000000 	nop
    88e8:	8fc20028 	lw	v0,40(s8)
    88ec:	00000000 	nop
    88f0:	2c420010 	sltiu	v0,v0,16
    88f4:	10400008 	beqz	v0,8918 <malloc_extend_top+0x384>
    88f8:	00000000 	nop
    88fc:	3c020001 	lui	v0,0x1
    8900:	24426590 	addiu	v0,v0,26000
    8904:	8c420008 	lw	v0,8(v0)
    8908:	24030001 	li	v1,1
    890c:	ac430004 	sw	v1,4(v0)
    8910:	0800228b 	j	8a2c <malloc_extend_top+0x498>
    8914:	00000000 	nop
    8918:	8fc20028 	lw	v0,40(s8)
    891c:	00000000 	nop
    8920:	2443fff4 	addiu	v1,v0,-12
    8924:	2402fff8 	li	v0,-8
    8928:	00621024 	and	v0,v1,v0
    892c:	afc20028 	sw	v0,40(s8)
    8930:	8fc20024 	lw	v0,36(s8)
    8934:	00000000 	nop
    8938:	8c420004 	lw	v0,4(v0)
    893c:	00000000 	nop
    8940:	30430001 	andi	v1,v0,0x1
    8944:	8fc20028 	lw	v0,40(s8)
    8948:	00000000 	nop
    894c:	00621825 	or	v1,v1,v0
    8950:	8fc20024 	lw	v0,36(s8)
    8954:	00000000 	nop
    8958:	ac430004 	sw	v1,4(v0)
    895c:	8fc30024 	lw	v1,36(s8)
    8960:	8fc20028 	lw	v0,40(s8)
    8964:	00000000 	nop
    8968:	00621021 	addu	v0,v1,v0
    896c:	24030005 	li	v1,5
    8970:	ac430004 	sw	v1,4(v0)
    8974:	8fc20028 	lw	v0,40(s8)
    8978:	00000000 	nop
    897c:	24420004 	addiu	v0,v0,4
    8980:	8fc30024 	lw	v1,36(s8)
    8984:	00000000 	nop
    8988:	00621021 	addu	v0,v1,v0
    898c:	24030005 	li	v1,5
    8990:	ac430004 	sw	v1,4(v0)
    8994:	8fc20028 	lw	v0,40(s8)
    8998:	00000000 	nop
    899c:	2c420010 	sltiu	v0,v0,16
    89a0:	14400008 	bnez	v0,89c4 <malloc_extend_top+0x430>
    89a4:	00000000 	nop
    89a8:	8fc20024 	lw	v0,36(s8)
    89ac:	00000000 	nop
    89b0:	24420008 	addiu	v0,v0,8
    89b4:	8fc40048 	lw	a0,72(s8)
    89b8:	00402821 	move	a1,v0
    89bc:	0c001d5a 	jal	7568 <_free_r>
    89c0:	00000000 	nop
    89c4:	3c020001 	lui	v0,0x1
    89c8:	8c426a60 	lw	v0,27232(v0)
    89cc:	00000000 	nop
    89d0:	00401821 	move	v1,v0
    89d4:	8f8280c0 	lw	v0,-32576(gp)
    89d8:	00000000 	nop
    89dc:	0043102b 	sltu	v0,v0,v1
    89e0:	10400005 	beqz	v0,89f8 <malloc_extend_top+0x464>
    89e4:	00000000 	nop
    89e8:	3c020001 	lui	v0,0x1
    89ec:	8c426a60 	lw	v0,27232(v0)
    89f0:	00000000 	nop
    89f4:	af8280c0 	sw	v0,-32576(gp)
    89f8:	3c020001 	lui	v0,0x1
    89fc:	8c426a60 	lw	v0,27232(v0)
    8a00:	00000000 	nop
    8a04:	00401821 	move	v1,v0
    8a08:	8f8280c4 	lw	v0,-32572(gp)
    8a0c:	00000000 	nop
    8a10:	0043102b 	sltu	v0,v0,v1
    8a14:	10400005 	beqz	v0,8a2c <malloc_extend_top+0x498>
    8a18:	00000000 	nop
    8a1c:	3c020001 	lui	v0,0x1
    8a20:	8c426a60 	lw	v0,27232(v0)
    8a24:	00000000 	nop
    8a28:	af8280c4 	sw	v0,-32572(gp)
    8a2c:	03c0e821 	move	sp,s8
    8a30:	8fbf0044 	lw	ra,68(sp)
    8a34:	8fbe0040 	lw	s8,64(sp)
    8a38:	27bd0048 	addiu	sp,sp,72
    8a3c:	03e00008 	jr	ra
    8a40:	00000000 	nop

00008a44 <_malloc_r>:
    8a44:	27bdffb0 	addiu	sp,sp,-80
    8a48:	afbf004c 	sw	ra,76(sp)
    8a4c:	afbe0048 	sw	s8,72(sp)
    8a50:	03a0f021 	move	s8,sp
    8a54:	afc40050 	sw	a0,80(s8)
    8a58:	afc50054 	sw	a1,84(s8)
    8a5c:	8fc20054 	lw	v0,84(s8)
    8a60:	00000000 	nop
    8a64:	2442000b 	addiu	v0,v0,11
    8a68:	2c420017 	sltiu	v0,v0,23
    8a6c:	14400008 	bnez	v0,8a90 <_malloc_r+0x4c>
    8a70:	00000000 	nop
    8a74:	8fc20054 	lw	v0,84(s8)
    8a78:	00000000 	nop
    8a7c:	2443000b 	addiu	v1,v0,11
    8a80:	2402fff8 	li	v0,-8
    8a84:	00621024 	and	v0,v1,v0
    8a88:	080022a5 	j	8a94 <_malloc_r+0x50>
    8a8c:	00000000 	nop
    8a90:	24020010 	li	v0,16
    8a94:	afc20034 	sw	v0,52(s8)
    8a98:	8fc20034 	lw	v0,52(s8)
    8a9c:	00000000 	nop
    8aa0:	04400007 	bltz	v0,8ac0 <_malloc_r+0x7c>
    8aa4:	00000000 	nop
    8aa8:	8fc30034 	lw	v1,52(s8)
    8aac:	8fc20054 	lw	v0,84(s8)
    8ab0:	00000000 	nop
    8ab4:	0062102b 	sltu	v0,v1,v0
    8ab8:	10400007 	beqz	v0,8ad8 <_malloc_r+0x94>
    8abc:	00000000 	nop
    8ac0:	8fc20050 	lw	v0,80(s8)
    8ac4:	2403000c 	li	v1,12
    8ac8:	ac430000 	sw	v1,0(v0)
    8acc:	00001021 	move	v0,zero
    8ad0:	08002681 	j	9a04 <_malloc_r+0xfc0>
    8ad4:	00000000 	nop
    8ad8:	8fc40050 	lw	a0,80(s8)
    8adc:	0c0028ac 	jal	a2b0 <__malloc_lock>
    8ae0:	00000000 	nop
    8ae4:	8fc20034 	lw	v0,52(s8)
    8ae8:	00000000 	nop
    8aec:	2c4201f8 	sltiu	v0,v0,504
    8af0:	10400057 	beqz	v0,8c50 <_malloc_r+0x20c>
    8af4:	00000000 	nop
    8af8:	8fc20034 	lw	v0,52(s8)
    8afc:	00000000 	nop
    8b00:	000210c2 	srl	v0,v0,0x3
    8b04:	afc20014 	sw	v0,20(s8)
    8b08:	8fc20014 	lw	v0,20(s8)
    8b0c:	00000000 	nop
    8b10:	00021040 	sll	v0,v0,0x1
    8b14:	00021880 	sll	v1,v0,0x2
    8b18:	3c020001 	lui	v0,0x1
    8b1c:	24426590 	addiu	v0,v0,26000
    8b20:	00621021 	addu	v0,v1,v0
    8b24:	afc20030 	sw	v0,48(s8)
    8b28:	8fc20030 	lw	v0,48(s8)
    8b2c:	00000000 	nop
    8b30:	8c42000c 	lw	v0,12(v0)
    8b34:	00000000 	nop
    8b38:	afc20010 	sw	v0,16(s8)
    8b3c:	8fc30010 	lw	v1,16(s8)
    8b40:	8fc20030 	lw	v0,48(s8)
    8b44:	00000000 	nop
    8b48:	1462000a 	bne	v1,v0,8b74 <_malloc_r+0x130>
    8b4c:	00000000 	nop
    8b50:	8fc20030 	lw	v0,48(s8)
    8b54:	00000000 	nop
    8b58:	24420008 	addiu	v0,v0,8
    8b5c:	afc20030 	sw	v0,48(s8)
    8b60:	8fc20030 	lw	v0,48(s8)
    8b64:	00000000 	nop
    8b68:	8c42000c 	lw	v0,12(v0)
    8b6c:	00000000 	nop
    8b70:	afc20010 	sw	v0,16(s8)
    8b74:	8fc30010 	lw	v1,16(s8)
    8b78:	8fc20030 	lw	v0,48(s8)
    8b7c:	00000000 	nop
    8b80:	1062002d 	beq	v1,v0,8c38 <_malloc_r+0x1f4>
    8b84:	00000000 	nop
    8b88:	8fc20010 	lw	v0,16(s8)
    8b8c:	00000000 	nop
    8b90:	8c430004 	lw	v1,4(v0)
    8b94:	2402fffc 	li	v0,-4
    8b98:	00621024 	and	v0,v1,v0
    8b9c:	afc20038 	sw	v0,56(s8)
    8ba0:	8fc20010 	lw	v0,16(s8)
    8ba4:	00000000 	nop
    8ba8:	8c42000c 	lw	v0,12(v0)
    8bac:	00000000 	nop
    8bb0:	afc2002c 	sw	v0,44(s8)
    8bb4:	8fc20010 	lw	v0,16(s8)
    8bb8:	00000000 	nop
    8bbc:	8c420008 	lw	v0,8(v0)
    8bc0:	00000000 	nop
    8bc4:	afc20028 	sw	v0,40(s8)
    8bc8:	8fc20028 	lw	v0,40(s8)
    8bcc:	8fc3002c 	lw	v1,44(s8)
    8bd0:	00000000 	nop
    8bd4:	ac43000c 	sw	v1,12(v0)
    8bd8:	8fc2002c 	lw	v0,44(s8)
    8bdc:	8fc30028 	lw	v1,40(s8)
    8be0:	00000000 	nop
    8be4:	ac430008 	sw	v1,8(v0)
    8be8:	8fc30010 	lw	v1,16(s8)
    8bec:	8fc20038 	lw	v0,56(s8)
    8bf0:	00000000 	nop
    8bf4:	00621021 	addu	v0,v1,v0
    8bf8:	8fc40010 	lw	a0,16(s8)
    8bfc:	8fc30038 	lw	v1,56(s8)
    8c00:	00000000 	nop
    8c04:	00831821 	addu	v1,a0,v1
    8c08:	8c630004 	lw	v1,4(v1)
    8c0c:	00000000 	nop
    8c10:	34630001 	ori	v1,v1,0x1
    8c14:	ac430004 	sw	v1,4(v0)
    8c18:	8fc40050 	lw	a0,80(s8)
    8c1c:	0c0028b5 	jal	a2d4 <__malloc_unlock>
    8c20:	00000000 	nop
    8c24:	8fc20010 	lw	v0,16(s8)
    8c28:	00000000 	nop
    8c2c:	24420008 	addiu	v0,v0,8
    8c30:	08002681 	j	9a04 <_malloc_r+0xfc0>
    8c34:	00000000 	nop
    8c38:	8fc20014 	lw	v0,20(s8)
    8c3c:	00000000 	nop
    8c40:	24420002 	addiu	v0,v0,2
    8c44:	afc20014 	sw	v0,20(s8)
    8c48:	080023b9 	j	8ee4 <_malloc_r+0x4a0>
    8c4c:	00000000 	nop
    8c50:	8fc20034 	lw	v0,52(s8)
    8c54:	00000000 	nop
    8c58:	00021242 	srl	v0,v0,0x9
    8c5c:	14400006 	bnez	v0,8c78 <_malloc_r+0x234>
    8c60:	00000000 	nop
    8c64:	8fc20034 	lw	v0,52(s8)
    8c68:	00000000 	nop
    8c6c:	000210c2 	srl	v0,v0,0x3
    8c70:	0800235b 	j	8d6c <_malloc_r+0x328>
    8c74:	00000000 	nop
    8c78:	8fc20034 	lw	v0,52(s8)
    8c7c:	00000000 	nop
    8c80:	00021242 	srl	v0,v0,0x9
    8c84:	2c420005 	sltiu	v0,v0,5
    8c88:	10400007 	beqz	v0,8ca8 <_malloc_r+0x264>
    8c8c:	00000000 	nop
    8c90:	8fc20034 	lw	v0,52(s8)
    8c94:	00000000 	nop
    8c98:	00021182 	srl	v0,v0,0x6
    8c9c:	24420038 	addiu	v0,v0,56
    8ca0:	0800235b 	j	8d6c <_malloc_r+0x328>
    8ca4:	00000000 	nop
    8ca8:	8fc20034 	lw	v0,52(s8)
    8cac:	00000000 	nop
    8cb0:	00021242 	srl	v0,v0,0x9
    8cb4:	2c420015 	sltiu	v0,v0,21
    8cb8:	10400007 	beqz	v0,8cd8 <_malloc_r+0x294>
    8cbc:	00000000 	nop
    8cc0:	8fc20034 	lw	v0,52(s8)
    8cc4:	00000000 	nop
    8cc8:	00021242 	srl	v0,v0,0x9
    8ccc:	2442005b 	addiu	v0,v0,91
    8cd0:	0800235b 	j	8d6c <_malloc_r+0x328>
    8cd4:	00000000 	nop
    8cd8:	8fc20034 	lw	v0,52(s8)
    8cdc:	00000000 	nop
    8ce0:	00021242 	srl	v0,v0,0x9
    8ce4:	2c420055 	sltiu	v0,v0,85
    8ce8:	10400007 	beqz	v0,8d08 <_malloc_r+0x2c4>
    8cec:	00000000 	nop
    8cf0:	8fc20034 	lw	v0,52(s8)
    8cf4:	00000000 	nop
    8cf8:	00021302 	srl	v0,v0,0xc
    8cfc:	2442006e 	addiu	v0,v0,110
    8d00:	0800235b 	j	8d6c <_malloc_r+0x328>
    8d04:	00000000 	nop
    8d08:	8fc20034 	lw	v0,52(s8)
    8d0c:	00000000 	nop
    8d10:	00021242 	srl	v0,v0,0x9
    8d14:	2c420155 	sltiu	v0,v0,341
    8d18:	10400007 	beqz	v0,8d38 <_malloc_r+0x2f4>
    8d1c:	00000000 	nop
    8d20:	8fc20034 	lw	v0,52(s8)
    8d24:	00000000 	nop
    8d28:	000213c2 	srl	v0,v0,0xf
    8d2c:	24420077 	addiu	v0,v0,119
    8d30:	0800235b 	j	8d6c <_malloc_r+0x328>
    8d34:	00000000 	nop
    8d38:	8fc20034 	lw	v0,52(s8)
    8d3c:	00000000 	nop
    8d40:	00021242 	srl	v0,v0,0x9
    8d44:	2c420555 	sltiu	v0,v0,1365
    8d48:	10400007 	beqz	v0,8d68 <_malloc_r+0x324>
    8d4c:	00000000 	nop
    8d50:	8fc20034 	lw	v0,52(s8)
    8d54:	00000000 	nop
    8d58:	00021482 	srl	v0,v0,0x12
    8d5c:	2442007c 	addiu	v0,v0,124
    8d60:	0800235b 	j	8d6c <_malloc_r+0x328>
    8d64:	00000000 	nop
    8d68:	2402007e 	li	v0,126
    8d6c:	afc20014 	sw	v0,20(s8)
    8d70:	8fc20014 	lw	v0,20(s8)
    8d74:	00000000 	nop
    8d78:	00021040 	sll	v0,v0,0x1
    8d7c:	00021880 	sll	v1,v0,0x2
    8d80:	3c020001 	lui	v0,0x1
    8d84:	24426590 	addiu	v0,v0,26000
    8d88:	00621021 	addu	v0,v1,v0
    8d8c:	afc20018 	sw	v0,24(s8)
    8d90:	8fc20018 	lw	v0,24(s8)
    8d94:	00000000 	nop
    8d98:	8c42000c 	lw	v0,12(v0)
    8d9c:	00000000 	nop
    8da0:	afc20010 	sw	v0,16(s8)
    8da4:	080023b0 	j	8ec0 <_malloc_r+0x47c>
    8da8:	00000000 	nop
    8dac:	8fc20010 	lw	v0,16(s8)
    8db0:	00000000 	nop
    8db4:	8c430004 	lw	v1,4(v0)
    8db8:	2402fffc 	li	v0,-4
    8dbc:	00621024 	and	v0,v1,v0
    8dc0:	afc20038 	sw	v0,56(s8)
    8dc4:	8fc30038 	lw	v1,56(s8)
    8dc8:	8fc20034 	lw	v0,52(s8)
    8dcc:	00000000 	nop
    8dd0:	00621023 	subu	v0,v1,v0
    8dd4:	afc2001c 	sw	v0,28(s8)
    8dd8:	8fc2001c 	lw	v0,28(s8)
    8ddc:	00000000 	nop
    8de0:	28420010 	slti	v0,v0,16
    8de4:	14400007 	bnez	v0,8e04 <_malloc_r+0x3c0>
    8de8:	00000000 	nop
    8dec:	8fc20014 	lw	v0,20(s8)
    8df0:	00000000 	nop
    8df4:	2442ffff 	addiu	v0,v0,-1
    8df8:	afc20014 	sw	v0,20(s8)
    8dfc:	080023b5 	j	8ed4 <_malloc_r+0x490>
    8e00:	00000000 	nop
    8e04:	8fc2001c 	lw	v0,28(s8)
    8e08:	00000000 	nop
    8e0c:	04400027 	bltz	v0,8eac <_malloc_r+0x468>
    8e10:	00000000 	nop
    8e14:	8fc20010 	lw	v0,16(s8)
    8e18:	00000000 	nop
    8e1c:	8c42000c 	lw	v0,12(v0)
    8e20:	00000000 	nop
    8e24:	afc2002c 	sw	v0,44(s8)
    8e28:	8fc20010 	lw	v0,16(s8)
    8e2c:	00000000 	nop
    8e30:	8c420008 	lw	v0,8(v0)
    8e34:	00000000 	nop
    8e38:	afc20028 	sw	v0,40(s8)
    8e3c:	8fc20028 	lw	v0,40(s8)
    8e40:	8fc3002c 	lw	v1,44(s8)
    8e44:	00000000 	nop
    8e48:	ac43000c 	sw	v1,12(v0)
    8e4c:	8fc2002c 	lw	v0,44(s8)
    8e50:	8fc30028 	lw	v1,40(s8)
    8e54:	00000000 	nop
    8e58:	ac430008 	sw	v1,8(v0)
    8e5c:	8fc30010 	lw	v1,16(s8)
    8e60:	8fc20038 	lw	v0,56(s8)
    8e64:	00000000 	nop
    8e68:	00621021 	addu	v0,v1,v0
    8e6c:	8fc40010 	lw	a0,16(s8)
    8e70:	8fc30038 	lw	v1,56(s8)
    8e74:	00000000 	nop
    8e78:	00831821 	addu	v1,a0,v1
    8e7c:	8c630004 	lw	v1,4(v1)
    8e80:	00000000 	nop
    8e84:	34630001 	ori	v1,v1,0x1
    8e88:	ac430004 	sw	v1,4(v0)
    8e8c:	8fc40050 	lw	a0,80(s8)
    8e90:	0c0028b5 	jal	a2d4 <__malloc_unlock>
    8e94:	00000000 	nop
    8e98:	8fc20010 	lw	v0,16(s8)
    8e9c:	00000000 	nop
    8ea0:	24420008 	addiu	v0,v0,8
    8ea4:	08002681 	j	9a04 <_malloc_r+0xfc0>
    8ea8:	00000000 	nop
    8eac:	8fc20010 	lw	v0,16(s8)
    8eb0:	00000000 	nop
    8eb4:	8c42000c 	lw	v0,12(v0)
    8eb8:	00000000 	nop
    8ebc:	afc20010 	sw	v0,16(s8)
    8ec0:	8fc30010 	lw	v1,16(s8)
    8ec4:	8fc20018 	lw	v0,24(s8)
    8ec8:	00000000 	nop
    8ecc:	1462ffb7 	bne	v1,v0,8dac <_malloc_r+0x368>
    8ed0:	00000000 	nop
    8ed4:	8fc20014 	lw	v0,20(s8)
    8ed8:	00000000 	nop
    8edc:	24420001 	addiu	v0,v0,1
    8ee0:	afc20014 	sw	v0,20(s8)
    8ee4:	3c020001 	lui	v0,0x1
    8ee8:	24426598 	addiu	v0,v0,26008
    8eec:	8c420008 	lw	v0,8(v0)
    8ef0:	00000000 	nop
    8ef4:	afc20010 	sw	v0,16(s8)
    8ef8:	8fc30010 	lw	v1,16(s8)
    8efc:	3c020001 	lui	v0,0x1
    8f00:	24426598 	addiu	v0,v0,26008
    8f04:	10620139 	beq	v1,v0,93ec <_malloc_r+0x9a8>
    8f08:	00000000 	nop
    8f0c:	8fc20010 	lw	v0,16(s8)
    8f10:	00000000 	nop
    8f14:	8c430004 	lw	v1,4(v0)
    8f18:	2402fffc 	li	v0,-4
    8f1c:	00621024 	and	v0,v1,v0
    8f20:	afc20038 	sw	v0,56(s8)
    8f24:	8fc30038 	lw	v1,56(s8)
    8f28:	8fc20034 	lw	v0,52(s8)
    8f2c:	00000000 	nop
    8f30:	00621023 	subu	v0,v1,v0
    8f34:	afc2001c 	sw	v0,28(s8)
    8f38:	8fc2001c 	lw	v0,28(s8)
    8f3c:	00000000 	nop
    8f40:	28420010 	slti	v0,v0,16
    8f44:	14400036 	bnez	v0,9020 <_malloc_r+0x5dc>
    8f48:	00000000 	nop
    8f4c:	8fc30010 	lw	v1,16(s8)
    8f50:	8fc20034 	lw	v0,52(s8)
    8f54:	00000000 	nop
    8f58:	00621021 	addu	v0,v1,v0
    8f5c:	afc2003c 	sw	v0,60(s8)
    8f60:	8fc20034 	lw	v0,52(s8)
    8f64:	00000000 	nop
    8f68:	34430001 	ori	v1,v0,0x1
    8f6c:	8fc20010 	lw	v0,16(s8)
    8f70:	00000000 	nop
    8f74:	ac430004 	sw	v1,4(v0)
    8f78:	3c020001 	lui	v0,0x1
    8f7c:	24436598 	addiu	v1,v0,26008
    8f80:	3c020001 	lui	v0,0x1
    8f84:	24426598 	addiu	v0,v0,26008
    8f88:	8fc4003c 	lw	a0,60(s8)
    8f8c:	00000000 	nop
    8f90:	ac44000c 	sw	a0,12(v0)
    8f94:	8c42000c 	lw	v0,12(v0)
    8f98:	00000000 	nop
    8f9c:	ac620008 	sw	v0,8(v1)
    8fa0:	8fc2003c 	lw	v0,60(s8)
    8fa4:	3c030001 	lui	v1,0x1
    8fa8:	24636598 	addiu	v1,v1,26008
    8fac:	ac43000c 	sw	v1,12(v0)
    8fb0:	8fc2003c 	lw	v0,60(s8)
    8fb4:	00000000 	nop
    8fb8:	8c43000c 	lw	v1,12(v0)
    8fbc:	8fc2003c 	lw	v0,60(s8)
    8fc0:	00000000 	nop
    8fc4:	ac430008 	sw	v1,8(v0)
    8fc8:	8fc2001c 	lw	v0,28(s8)
    8fcc:	00000000 	nop
    8fd0:	34420001 	ori	v0,v0,0x1
    8fd4:	00401821 	move	v1,v0
    8fd8:	8fc2003c 	lw	v0,60(s8)
    8fdc:	00000000 	nop
    8fe0:	ac430004 	sw	v1,4(v0)
    8fe4:	8fc2001c 	lw	v0,28(s8)
    8fe8:	8fc3003c 	lw	v1,60(s8)
    8fec:	00000000 	nop
    8ff0:	00621021 	addu	v0,v1,v0
    8ff4:	8fc3001c 	lw	v1,28(s8)
    8ff8:	00000000 	nop
    8ffc:	ac430000 	sw	v1,0(v0)
    9000:	8fc40050 	lw	a0,80(s8)
    9004:	0c0028b5 	jal	a2d4 <__malloc_unlock>
    9008:	00000000 	nop
    900c:	8fc20010 	lw	v0,16(s8)
    9010:	00000000 	nop
    9014:	24420008 	addiu	v0,v0,8
    9018:	08002681 	j	9a04 <_malloc_r+0xfc0>
    901c:	00000000 	nop
    9020:	3c020001 	lui	v0,0x1
    9024:	24436598 	addiu	v1,v0,26008
    9028:	3c020001 	lui	v0,0x1
    902c:	24426598 	addiu	v0,v0,26008
    9030:	3c040001 	lui	a0,0x1
    9034:	24846598 	addiu	a0,a0,26008
    9038:	ac44000c 	sw	a0,12(v0)
    903c:	8c42000c 	lw	v0,12(v0)
    9040:	00000000 	nop
    9044:	ac620008 	sw	v0,8(v1)
    9048:	8fc2001c 	lw	v0,28(s8)
    904c:	00000000 	nop
    9050:	04400015 	bltz	v0,90a8 <_malloc_r+0x664>
    9054:	00000000 	nop
    9058:	8fc30010 	lw	v1,16(s8)
    905c:	8fc20038 	lw	v0,56(s8)
    9060:	00000000 	nop
    9064:	00621021 	addu	v0,v1,v0
    9068:	8fc40010 	lw	a0,16(s8)
    906c:	8fc30038 	lw	v1,56(s8)
    9070:	00000000 	nop
    9074:	00831821 	addu	v1,a0,v1
    9078:	8c630004 	lw	v1,4(v1)
    907c:	00000000 	nop
    9080:	34630001 	ori	v1,v1,0x1
    9084:	ac430004 	sw	v1,4(v0)
    9088:	8fc40050 	lw	a0,80(s8)
    908c:	0c0028b5 	jal	a2d4 <__malloc_unlock>
    9090:	00000000 	nop
    9094:	8fc20010 	lw	v0,16(s8)
    9098:	00000000 	nop
    909c:	24420008 	addiu	v0,v0,8
    90a0:	08002681 	j	9a04 <_malloc_r+0xfc0>
    90a4:	00000000 	nop
    90a8:	8fc20038 	lw	v0,56(s8)
    90ac:	00000000 	nop
    90b0:	2c420200 	sltiu	v0,v0,512
    90b4:	10400035 	beqz	v0,918c <_malloc_r+0x748>
    90b8:	00000000 	nop
    90bc:	8fc20038 	lw	v0,56(s8)
    90c0:	00000000 	nop
    90c4:	000210c2 	srl	v0,v0,0x3
    90c8:	afc20040 	sw	v0,64(s8)
    90cc:	3c020001 	lui	v0,0x1
    90d0:	24436590 	addiu	v1,v0,26000
    90d4:	3c020001 	lui	v0,0x1
    90d8:	24426590 	addiu	v0,v0,26000
    90dc:	8c440004 	lw	a0,4(v0)
    90e0:	8fc20040 	lw	v0,64(s8)
    90e4:	00000000 	nop
    90e8:	04410002 	bgez	v0,90f4 <_malloc_r+0x6b0>
    90ec:	00000000 	nop
    90f0:	24420003 	addiu	v0,v0,3
    90f4:	00021083 	sra	v0,v0,0x2
    90f8:	24050001 	li	a1,1
    90fc:	00451004 	sllv	v0,a1,v0
    9100:	00821025 	or	v0,a0,v0
    9104:	ac620004 	sw	v0,4(v1)
    9108:	8fc20040 	lw	v0,64(s8)
    910c:	00000000 	nop
    9110:	00021040 	sll	v0,v0,0x1
    9114:	00021880 	sll	v1,v0,0x2
    9118:	3c020001 	lui	v0,0x1
    911c:	24426590 	addiu	v0,v0,26000
    9120:	00621021 	addu	v0,v1,v0
    9124:	afc2002c 	sw	v0,44(s8)
    9128:	8fc2002c 	lw	v0,44(s8)
    912c:	00000000 	nop
    9130:	8c420008 	lw	v0,8(v0)
    9134:	00000000 	nop
    9138:	afc20028 	sw	v0,40(s8)
    913c:	8fc20010 	lw	v0,16(s8)
    9140:	8fc3002c 	lw	v1,44(s8)
    9144:	00000000 	nop
    9148:	ac43000c 	sw	v1,12(v0)
    914c:	8fc20010 	lw	v0,16(s8)
    9150:	8fc30028 	lw	v1,40(s8)
    9154:	00000000 	nop
    9158:	ac430008 	sw	v1,8(v0)
    915c:	8fc2002c 	lw	v0,44(s8)
    9160:	8fc30010 	lw	v1,16(s8)
    9164:	00000000 	nop
    9168:	ac430008 	sw	v1,8(v0)
    916c:	8fc2002c 	lw	v0,44(s8)
    9170:	00000000 	nop
    9174:	8c430008 	lw	v1,8(v0)
    9178:	8fc20028 	lw	v0,40(s8)
    917c:	00000000 	nop
    9180:	ac43000c 	sw	v1,12(v0)
    9184:	080024fb 	j	93ec <_malloc_r+0x9a8>
    9188:	00000000 	nop
    918c:	8fc20038 	lw	v0,56(s8)
    9190:	00000000 	nop
    9194:	00021242 	srl	v0,v0,0x9
    9198:	14400006 	bnez	v0,91b4 <_malloc_r+0x770>
    919c:	00000000 	nop
    91a0:	8fc20038 	lw	v0,56(s8)
    91a4:	00000000 	nop
    91a8:	000210c2 	srl	v0,v0,0x3
    91ac:	080024aa 	j	92a8 <_malloc_r+0x864>
    91b0:	00000000 	nop
    91b4:	8fc20038 	lw	v0,56(s8)
    91b8:	00000000 	nop
    91bc:	00021242 	srl	v0,v0,0x9
    91c0:	2c420005 	sltiu	v0,v0,5
    91c4:	10400007 	beqz	v0,91e4 <_malloc_r+0x7a0>
    91c8:	00000000 	nop
    91cc:	8fc20038 	lw	v0,56(s8)
    91d0:	00000000 	nop
    91d4:	00021182 	srl	v0,v0,0x6
    91d8:	24420038 	addiu	v0,v0,56
    91dc:	080024aa 	j	92a8 <_malloc_r+0x864>
    91e0:	00000000 	nop
    91e4:	8fc20038 	lw	v0,56(s8)
    91e8:	00000000 	nop
    91ec:	00021242 	srl	v0,v0,0x9
    91f0:	2c420015 	sltiu	v0,v0,21
    91f4:	10400007 	beqz	v0,9214 <_malloc_r+0x7d0>
    91f8:	00000000 	nop
    91fc:	8fc20038 	lw	v0,56(s8)
    9200:	00000000 	nop
    9204:	00021242 	srl	v0,v0,0x9
    9208:	2442005b 	addiu	v0,v0,91
    920c:	080024aa 	j	92a8 <_malloc_r+0x864>
    9210:	00000000 	nop
    9214:	8fc20038 	lw	v0,56(s8)
    9218:	00000000 	nop
    921c:	00021242 	srl	v0,v0,0x9
    9220:	2c420055 	sltiu	v0,v0,85
    9224:	10400007 	beqz	v0,9244 <_malloc_r+0x800>
    9228:	00000000 	nop
    922c:	8fc20038 	lw	v0,56(s8)
    9230:	00000000 	nop
    9234:	00021302 	srl	v0,v0,0xc
    9238:	2442006e 	addiu	v0,v0,110
    923c:	080024aa 	j	92a8 <_malloc_r+0x864>
    9240:	00000000 	nop
    9244:	8fc20038 	lw	v0,56(s8)
    9248:	00000000 	nop
    924c:	00021242 	srl	v0,v0,0x9
    9250:	2c420155 	sltiu	v0,v0,341
    9254:	10400007 	beqz	v0,9274 <_malloc_r+0x830>
    9258:	00000000 	nop
    925c:	8fc20038 	lw	v0,56(s8)
    9260:	00000000 	nop
    9264:	000213c2 	srl	v0,v0,0xf
    9268:	24420077 	addiu	v0,v0,119
    926c:	080024aa 	j	92a8 <_malloc_r+0x864>
    9270:	00000000 	nop
    9274:	8fc20038 	lw	v0,56(s8)
    9278:	00000000 	nop
    927c:	00021242 	srl	v0,v0,0x9
    9280:	2c420555 	sltiu	v0,v0,1365
    9284:	10400007 	beqz	v0,92a4 <_malloc_r+0x860>
    9288:	00000000 	nop
    928c:	8fc20038 	lw	v0,56(s8)
    9290:	00000000 	nop
    9294:	00021482 	srl	v0,v0,0x12
    9298:	2442007c 	addiu	v0,v0,124
    929c:	080024aa 	j	92a8 <_malloc_r+0x864>
    92a0:	00000000 	nop
    92a4:	2402007e 	li	v0,126
    92a8:	afc20040 	sw	v0,64(s8)
    92ac:	8fc20040 	lw	v0,64(s8)
    92b0:	00000000 	nop
    92b4:	00021040 	sll	v0,v0,0x1
    92b8:	00021880 	sll	v1,v0,0x2
    92bc:	3c020001 	lui	v0,0x1
    92c0:	24426590 	addiu	v0,v0,26000
    92c4:	00621021 	addu	v0,v1,v0
    92c8:	afc2002c 	sw	v0,44(s8)
    92cc:	8fc2002c 	lw	v0,44(s8)
    92d0:	00000000 	nop
    92d4:	8c420008 	lw	v0,8(v0)
    92d8:	00000000 	nop
    92dc:	afc20028 	sw	v0,40(s8)
    92e0:	8fc30028 	lw	v1,40(s8)
    92e4:	8fc2002c 	lw	v0,44(s8)
    92e8:	00000000 	nop
    92ec:	14620012 	bne	v1,v0,9338 <_malloc_r+0x8f4>
    92f0:	00000000 	nop
    92f4:	3c020001 	lui	v0,0x1
    92f8:	24436590 	addiu	v1,v0,26000
    92fc:	3c020001 	lui	v0,0x1
    9300:	24426590 	addiu	v0,v0,26000
    9304:	8c440004 	lw	a0,4(v0)
    9308:	8fc20040 	lw	v0,64(s8)
    930c:	00000000 	nop
    9310:	04410002 	bgez	v0,931c <_malloc_r+0x8d8>
    9314:	00000000 	nop
    9318:	24420003 	addiu	v0,v0,3
    931c:	00021083 	sra	v0,v0,0x2
    9320:	24050001 	li	a1,1
    9324:	00451004 	sllv	v0,a1,v0
    9328:	00821025 	or	v0,a0,v0
    932c:	ac620004 	sw	v0,4(v1)
    9330:	080024e9 	j	93a4 <_malloc_r+0x960>
    9334:	00000000 	nop
    9338:	080024d5 	j	9354 <_malloc_r+0x910>
    933c:	00000000 	nop
    9340:	8fc20028 	lw	v0,40(s8)
    9344:	00000000 	nop
    9348:	8c420008 	lw	v0,8(v0)
    934c:	00000000 	nop
    9350:	afc20028 	sw	v0,40(s8)
    9354:	8fc30028 	lw	v1,40(s8)
    9358:	8fc2002c 	lw	v0,44(s8)
    935c:	00000000 	nop
    9360:	1062000b 	beq	v1,v0,9390 <_malloc_r+0x94c>
    9364:	00000000 	nop
    9368:	8fc20028 	lw	v0,40(s8)
    936c:	00000000 	nop
    9370:	8c430004 	lw	v1,4(v0)
    9374:	2402fffc 	li	v0,-4
    9378:	00621824 	and	v1,v1,v0
    937c:	8fc20038 	lw	v0,56(s8)
    9380:	00000000 	nop
    9384:	0043102b 	sltu	v0,v0,v1
    9388:	1440ffed 	bnez	v0,9340 <_malloc_r+0x8fc>
    938c:	00000000 	nop
    9390:	8fc20028 	lw	v0,40(s8)
    9394:	00000000 	nop
    9398:	8c42000c 	lw	v0,12(v0)
    939c:	00000000 	nop
    93a0:	afc2002c 	sw	v0,44(s8)
    93a4:	8fc20010 	lw	v0,16(s8)
    93a8:	8fc3002c 	lw	v1,44(s8)
    93ac:	00000000 	nop
    93b0:	ac43000c 	sw	v1,12(v0)
    93b4:	8fc20010 	lw	v0,16(s8)
    93b8:	8fc30028 	lw	v1,40(s8)
    93bc:	00000000 	nop
    93c0:	ac430008 	sw	v1,8(v0)
    93c4:	8fc2002c 	lw	v0,44(s8)
    93c8:	8fc30010 	lw	v1,16(s8)
    93cc:	00000000 	nop
    93d0:	ac430008 	sw	v1,8(v0)
    93d4:	8fc2002c 	lw	v0,44(s8)
    93d8:	00000000 	nop
    93dc:	8c430008 	lw	v1,8(v0)
    93e0:	8fc20028 	lw	v0,40(s8)
    93e4:	00000000 	nop
    93e8:	ac43000c 	sw	v1,12(v0)
    93ec:	8fc20014 	lw	v0,20(s8)
    93f0:	00000000 	nop
    93f4:	04410002 	bgez	v0,9400 <_malloc_r+0x9bc>
    93f8:	00000000 	nop
    93fc:	24420003 	addiu	v0,v0,3
    9400:	00021083 	sra	v0,v0,0x2
    9404:	24030001 	li	v1,1
    9408:	00431004 	sllv	v0,v1,v0
    940c:	afc20020 	sw	v0,32(s8)
    9410:	3c020001 	lui	v0,0x1
    9414:	24426590 	addiu	v0,v0,26000
    9418:	8c420004 	lw	v0,4(v0)
    941c:	8fc30020 	lw	v1,32(s8)
    9420:	00000000 	nop
    9424:	0043102b 	sltu	v0,v0,v1
    9428:	14400115 	bnez	v0,9880 <_malloc_r+0xe3c>
    942c:	00000000 	nop
    9430:	3c020001 	lui	v0,0x1
    9434:	24426590 	addiu	v0,v0,26000
    9438:	8c430004 	lw	v1,4(v0)
    943c:	8fc20020 	lw	v0,32(s8)
    9440:	00000000 	nop
    9444:	00621024 	and	v0,v1,v0
    9448:	1440001c 	bnez	v0,94bc <_malloc_r+0xa78>
    944c:	00000000 	nop
    9450:	8fc30014 	lw	v1,20(s8)
    9454:	2402fffc 	li	v0,-4
    9458:	00621024 	and	v0,v1,v0
    945c:	24420004 	addiu	v0,v0,4
    9460:	afc20014 	sw	v0,20(s8)
    9464:	8fc20020 	lw	v0,32(s8)
    9468:	00000000 	nop
    946c:	00021040 	sll	v0,v0,0x1
    9470:	afc20020 	sw	v0,32(s8)
    9474:	08002527 	j	949c <_malloc_r+0xa58>
    9478:	00000000 	nop
    947c:	8fc20014 	lw	v0,20(s8)
    9480:	00000000 	nop
    9484:	24420004 	addiu	v0,v0,4
    9488:	afc20014 	sw	v0,20(s8)
    948c:	8fc20020 	lw	v0,32(s8)
    9490:	00000000 	nop
    9494:	00021040 	sll	v0,v0,0x1
    9498:	afc20020 	sw	v0,32(s8)
    949c:	3c020001 	lui	v0,0x1
    94a0:	24426590 	addiu	v0,v0,26000
    94a4:	8c430004 	lw	v1,4(v0)
    94a8:	8fc20020 	lw	v0,32(s8)
    94ac:	00000000 	nop
    94b0:	00621024 	and	v0,v1,v0
    94b4:	1040fff1 	beqz	v0,947c <_malloc_r+0xa38>
    94b8:	00000000 	nop
    94bc:	8fc20014 	lw	v0,20(s8)
    94c0:	00000000 	nop
    94c4:	afc20024 	sw	v0,36(s8)
    94c8:	8fc20014 	lw	v0,20(s8)
    94cc:	00000000 	nop
    94d0:	00021040 	sll	v0,v0,0x1
    94d4:	00021880 	sll	v1,v0,0x2
    94d8:	3c020001 	lui	v0,0x1
    94dc:	24426590 	addiu	v0,v0,26000
    94e0:	00621021 	addu	v0,v1,v0
    94e4:	afc20018 	sw	v0,24(s8)
    94e8:	8fc20018 	lw	v0,24(s8)
    94ec:	00000000 	nop
    94f0:	afc20030 	sw	v0,48(s8)
    94f4:	8fc20018 	lw	v0,24(s8)
    94f8:	00000000 	nop
    94fc:	8c42000c 	lw	v0,12(v0)
    9500:	00000000 	nop
    9504:	afc20010 	sw	v0,16(s8)
    9508:	080025ca 	j	9728 <_malloc_r+0xce4>
    950c:	00000000 	nop
    9510:	8fc20010 	lw	v0,16(s8)
    9514:	00000000 	nop
    9518:	8c430004 	lw	v1,4(v0)
    951c:	2402fffc 	li	v0,-4
    9520:	00621024 	and	v0,v1,v0
    9524:	afc20038 	sw	v0,56(s8)
    9528:	8fc30038 	lw	v1,56(s8)
    952c:	8fc20034 	lw	v0,52(s8)
    9530:	00000000 	nop
    9534:	00621023 	subu	v0,v1,v0
    9538:	afc2001c 	sw	v0,28(s8)
    953c:	8fc2001c 	lw	v0,28(s8)
    9540:	00000000 	nop
    9544:	28420010 	slti	v0,v0,16
    9548:	14400048 	bnez	v0,966c <_malloc_r+0xc28>
    954c:	00000000 	nop
    9550:	8fc30010 	lw	v1,16(s8)
    9554:	8fc20034 	lw	v0,52(s8)
    9558:	00000000 	nop
    955c:	00621021 	addu	v0,v1,v0
    9560:	afc2003c 	sw	v0,60(s8)
    9564:	8fc20034 	lw	v0,52(s8)
    9568:	00000000 	nop
    956c:	34430001 	ori	v1,v0,0x1
    9570:	8fc20010 	lw	v0,16(s8)
    9574:	00000000 	nop
    9578:	ac430004 	sw	v1,4(v0)
    957c:	8fc20010 	lw	v0,16(s8)
    9580:	00000000 	nop
    9584:	8c42000c 	lw	v0,12(v0)
    9588:	00000000 	nop
    958c:	afc2002c 	sw	v0,44(s8)
    9590:	8fc20010 	lw	v0,16(s8)
    9594:	00000000 	nop
    9598:	8c420008 	lw	v0,8(v0)
    959c:	00000000 	nop
    95a0:	afc20028 	sw	v0,40(s8)
    95a4:	8fc20028 	lw	v0,40(s8)
    95a8:	8fc3002c 	lw	v1,44(s8)
    95ac:	00000000 	nop
    95b0:	ac43000c 	sw	v1,12(v0)
    95b4:	8fc2002c 	lw	v0,44(s8)
    95b8:	8fc30028 	lw	v1,40(s8)
    95bc:	00000000 	nop
    95c0:	ac430008 	sw	v1,8(v0)
    95c4:	3c020001 	lui	v0,0x1
    95c8:	24436598 	addiu	v1,v0,26008
    95cc:	3c020001 	lui	v0,0x1
    95d0:	24426598 	addiu	v0,v0,26008
    95d4:	8fc4003c 	lw	a0,60(s8)
    95d8:	00000000 	nop
    95dc:	ac44000c 	sw	a0,12(v0)
    95e0:	8c42000c 	lw	v0,12(v0)
    95e4:	00000000 	nop
    95e8:	ac620008 	sw	v0,8(v1)
    95ec:	8fc2003c 	lw	v0,60(s8)
    95f0:	3c030001 	lui	v1,0x1
    95f4:	24636598 	addiu	v1,v1,26008
    95f8:	ac43000c 	sw	v1,12(v0)
    95fc:	8fc2003c 	lw	v0,60(s8)
    9600:	00000000 	nop
    9604:	8c43000c 	lw	v1,12(v0)
    9608:	8fc2003c 	lw	v0,60(s8)
    960c:	00000000 	nop
    9610:	ac430008 	sw	v1,8(v0)
    9614:	8fc2001c 	lw	v0,28(s8)
    9618:	00000000 	nop
    961c:	34420001 	ori	v0,v0,0x1
    9620:	00401821 	move	v1,v0
    9624:	8fc2003c 	lw	v0,60(s8)
    9628:	00000000 	nop
    962c:	ac430004 	sw	v1,4(v0)
    9630:	8fc2001c 	lw	v0,28(s8)
    9634:	8fc3003c 	lw	v1,60(s8)
    9638:	00000000 	nop
    963c:	00621021 	addu	v0,v1,v0
    9640:	8fc3001c 	lw	v1,28(s8)
    9644:	00000000 	nop
    9648:	ac430000 	sw	v1,0(v0)
    964c:	8fc40050 	lw	a0,80(s8)
    9650:	0c0028b5 	jal	a2d4 <__malloc_unlock>
    9654:	00000000 	nop
    9658:	8fc20010 	lw	v0,16(s8)
    965c:	00000000 	nop
    9660:	24420008 	addiu	v0,v0,8
    9664:	08002681 	j	9a04 <_malloc_r+0xfc0>
    9668:	00000000 	nop
    966c:	8fc2001c 	lw	v0,28(s8)
    9670:	00000000 	nop
    9674:	04400027 	bltz	v0,9714 <_malloc_r+0xcd0>
    9678:	00000000 	nop
    967c:	8fc30010 	lw	v1,16(s8)
    9680:	8fc20038 	lw	v0,56(s8)
    9684:	00000000 	nop
    9688:	00621021 	addu	v0,v1,v0
    968c:	8fc40010 	lw	a0,16(s8)
    9690:	8fc30038 	lw	v1,56(s8)
    9694:	00000000 	nop
    9698:	00831821 	addu	v1,a0,v1
    969c:	8c630004 	lw	v1,4(v1)
    96a0:	00000000 	nop
    96a4:	34630001 	ori	v1,v1,0x1
    96a8:	ac430004 	sw	v1,4(v0)
    96ac:	8fc20010 	lw	v0,16(s8)
    96b0:	00000000 	nop
    96b4:	8c42000c 	lw	v0,12(v0)
    96b8:	00000000 	nop
    96bc:	afc2002c 	sw	v0,44(s8)
    96c0:	8fc20010 	lw	v0,16(s8)
    96c4:	00000000 	nop
    96c8:	8c420008 	lw	v0,8(v0)
    96cc:	00000000 	nop
    96d0:	afc20028 	sw	v0,40(s8)
    96d4:	8fc20028 	lw	v0,40(s8)
    96d8:	8fc3002c 	lw	v1,44(s8)
    96dc:	00000000 	nop
    96e0:	ac43000c 	sw	v1,12(v0)
    96e4:	8fc2002c 	lw	v0,44(s8)
    96e8:	8fc30028 	lw	v1,40(s8)
    96ec:	00000000 	nop
    96f0:	ac430008 	sw	v1,8(v0)
    96f4:	8fc40050 	lw	a0,80(s8)
    96f8:	0c0028b5 	jal	a2d4 <__malloc_unlock>
    96fc:	00000000 	nop
    9700:	8fc20010 	lw	v0,16(s8)
    9704:	00000000 	nop
    9708:	24420008 	addiu	v0,v0,8
    970c:	08002681 	j	9a04 <_malloc_r+0xfc0>
    9710:	00000000 	nop
    9714:	8fc20010 	lw	v0,16(s8)
    9718:	00000000 	nop
    971c:	8c42000c 	lw	v0,12(v0)
    9720:	00000000 	nop
    9724:	afc20010 	sw	v0,16(s8)
    9728:	8fc30010 	lw	v1,16(s8)
    972c:	8fc20018 	lw	v0,24(s8)
    9730:	00000000 	nop
    9734:	1462ff76 	bne	v1,v0,9510 <_malloc_r+0xacc>
    9738:	00000000 	nop
    973c:	8fc20018 	lw	v0,24(s8)
    9740:	00000000 	nop
    9744:	24420008 	addiu	v0,v0,8
    9748:	afc20018 	sw	v0,24(s8)
    974c:	8fc20014 	lw	v0,20(s8)
    9750:	00000000 	nop
    9754:	24420001 	addiu	v0,v0,1
    9758:	afc20014 	sw	v0,20(s8)
    975c:	8fc20014 	lw	v0,20(s8)
    9760:	00000000 	nop
    9764:	30420003 	andi	v0,v0,0x3
    9768:	1440ff62 	bnez	v0,94f4 <_malloc_r+0xab0>
    976c:	00000000 	nop
    9770:	8fc20024 	lw	v0,36(s8)
    9774:	00000000 	nop
    9778:	30420003 	andi	v0,v0,0x3
    977c:	1440000d 	bnez	v0,97b4 <_malloc_r+0xd70>
    9780:	00000000 	nop
    9784:	3c020001 	lui	v0,0x1
    9788:	24426590 	addiu	v0,v0,26000
    978c:	3c030001 	lui	v1,0x1
    9790:	24636590 	addiu	v1,v1,26000
    9794:	8c640004 	lw	a0,4(v1)
    9798:	8fc30020 	lw	v1,32(s8)
    979c:	00000000 	nop
    97a0:	00031827 	nor	v1,zero,v1
    97a4:	00831824 	and	v1,a0,v1
    97a8:	ac430004 	sw	v1,4(v0)
    97ac:	080025fc 	j	97f0 <_malloc_r+0xdac>
    97b0:	00000000 	nop
    97b4:	8fc20024 	lw	v0,36(s8)
    97b8:	00000000 	nop
    97bc:	2442ffff 	addiu	v0,v0,-1
    97c0:	afc20024 	sw	v0,36(s8)
    97c4:	8fc20030 	lw	v0,48(s8)
    97c8:	00000000 	nop
    97cc:	2442fff8 	addiu	v0,v0,-8
    97d0:	afc20030 	sw	v0,48(s8)
    97d4:	8fc20030 	lw	v0,48(s8)
    97d8:	00000000 	nop
    97dc:	8c430008 	lw	v1,8(v0)
    97e0:	8fc20030 	lw	v0,48(s8)
    97e4:	00000000 	nop
    97e8:	1062ffe1 	beq	v1,v0,9770 <_malloc_r+0xd2c>
    97ec:	00000000 	nop
    97f0:	8fc20020 	lw	v0,32(s8)
    97f4:	00000000 	nop
    97f8:	00021040 	sll	v0,v0,0x1
    97fc:	afc20020 	sw	v0,32(s8)
    9800:	3c020001 	lui	v0,0x1
    9804:	24426590 	addiu	v0,v0,26000
    9808:	8c420004 	lw	v0,4(v0)
    980c:	8fc30020 	lw	v1,32(s8)
    9810:	00000000 	nop
    9814:	0043102b 	sltu	v0,v0,v1
    9818:	14400019 	bnez	v0,9880 <_malloc_r+0xe3c>
    981c:	00000000 	nop
    9820:	8fc20020 	lw	v0,32(s8)
    9824:	00000000 	nop
    9828:	10400015 	beqz	v0,9880 <_malloc_r+0xe3c>
    982c:	00000000 	nop
    9830:	08002616 	j	9858 <_malloc_r+0xe14>
    9834:	00000000 	nop
    9838:	8fc20014 	lw	v0,20(s8)
    983c:	00000000 	nop
    9840:	24420004 	addiu	v0,v0,4
    9844:	afc20014 	sw	v0,20(s8)
    9848:	8fc20020 	lw	v0,32(s8)
    984c:	00000000 	nop
    9850:	00021040 	sll	v0,v0,0x1
    9854:	afc20020 	sw	v0,32(s8)
    9858:	3c020001 	lui	v0,0x1
    985c:	24426590 	addiu	v0,v0,26000
    9860:	8c430004 	lw	v1,4(v0)
    9864:	8fc20020 	lw	v0,32(s8)
    9868:	00000000 	nop
    986c:	00621024 	and	v0,v1,v0
    9870:	1040fff1 	beqz	v0,9838 <_malloc_r+0xdf4>
    9874:	00000000 	nop
    9878:	0800252f 	j	94bc <_malloc_r+0xa78>
    987c:	00000000 	nop
    9880:	3c020001 	lui	v0,0x1
    9884:	24426590 	addiu	v0,v0,26000
    9888:	8c420008 	lw	v0,8(v0)
    988c:	00000000 	nop
    9890:	8c430004 	lw	v1,4(v0)
    9894:	2402fffc 	li	v0,-4
    9898:	00621824 	and	v1,v1,v0
    989c:	8fc20034 	lw	v0,52(s8)
    98a0:	00000000 	nop
    98a4:	00621023 	subu	v0,v1,v0
    98a8:	afc2001c 	sw	v0,28(s8)
    98ac:	3c020001 	lui	v0,0x1
    98b0:	24426590 	addiu	v0,v0,26000
    98b4:	8c420008 	lw	v0,8(v0)
    98b8:	00000000 	nop
    98bc:	8c430004 	lw	v1,4(v0)
    98c0:	2402fffc 	li	v0,-4
    98c4:	00621824 	and	v1,v1,v0
    98c8:	8fc20034 	lw	v0,52(s8)
    98cc:	00000000 	nop
    98d0:	0062102b 	sltu	v0,v1,v0
    98d4:	14400006 	bnez	v0,98f0 <_malloc_r+0xeac>
    98d8:	00000000 	nop
    98dc:	8fc2001c 	lw	v0,28(s8)
    98e0:	00000000 	nop
    98e4:	28420010 	slti	v0,v0,16
    98e8:	10400027 	beqz	v0,9988 <_malloc_r+0xf44>
    98ec:	00000000 	nop
    98f0:	8fc40050 	lw	a0,80(s8)
    98f4:	8fc50034 	lw	a1,52(s8)
    98f8:	0c002165 	jal	8594 <malloc_extend_top>
    98fc:	00000000 	nop
    9900:	3c020001 	lui	v0,0x1
    9904:	24426590 	addiu	v0,v0,26000
    9908:	8c420008 	lw	v0,8(v0)
    990c:	00000000 	nop
    9910:	8c430004 	lw	v1,4(v0)
    9914:	2402fffc 	li	v0,-4
    9918:	00621824 	and	v1,v1,v0
    991c:	8fc20034 	lw	v0,52(s8)
    9920:	00000000 	nop
    9924:	00621023 	subu	v0,v1,v0
    9928:	afc2001c 	sw	v0,28(s8)
    992c:	3c020001 	lui	v0,0x1
    9930:	24426590 	addiu	v0,v0,26000
    9934:	8c420008 	lw	v0,8(v0)
    9938:	00000000 	nop
    993c:	8c430004 	lw	v1,4(v0)
    9940:	2402fffc 	li	v0,-4
    9944:	00621824 	and	v1,v1,v0
    9948:	8fc20034 	lw	v0,52(s8)
    994c:	00000000 	nop
    9950:	0062102b 	sltu	v0,v1,v0
    9954:	14400006 	bnez	v0,9970 <_malloc_r+0xf2c>
    9958:	00000000 	nop
    995c:	8fc2001c 	lw	v0,28(s8)
    9960:	00000000 	nop
    9964:	28420010 	slti	v0,v0,16
    9968:	10400007 	beqz	v0,9988 <_malloc_r+0xf44>
    996c:	00000000 	nop
    9970:	8fc40050 	lw	a0,80(s8)
    9974:	0c0028b5 	jal	a2d4 <__malloc_unlock>
    9978:	00000000 	nop
    997c:	00001021 	move	v0,zero
    9980:	08002681 	j	9a04 <_malloc_r+0xfc0>
    9984:	00000000 	nop
    9988:	3c020001 	lui	v0,0x1
    998c:	24426590 	addiu	v0,v0,26000
    9990:	8c420008 	lw	v0,8(v0)
    9994:	00000000 	nop
    9998:	afc20010 	sw	v0,16(s8)
    999c:	8fc20034 	lw	v0,52(s8)
    99a0:	00000000 	nop
    99a4:	34430001 	ori	v1,v0,0x1
    99a8:	8fc20010 	lw	v0,16(s8)
    99ac:	00000000 	nop
    99b0:	ac430004 	sw	v1,4(v0)
    99b4:	3c020001 	lui	v0,0x1
    99b8:	24426590 	addiu	v0,v0,26000
    99bc:	8fc40010 	lw	a0,16(s8)
    99c0:	8fc30034 	lw	v1,52(s8)
    99c4:	00000000 	nop
    99c8:	00831821 	addu	v1,a0,v1
    99cc:	ac430008 	sw	v1,8(v0)
    99d0:	3c020001 	lui	v0,0x1
    99d4:	24426590 	addiu	v0,v0,26000
    99d8:	8c420008 	lw	v0,8(v0)
    99dc:	8fc3001c 	lw	v1,28(s8)
    99e0:	00000000 	nop
    99e4:	34630001 	ori	v1,v1,0x1
    99e8:	ac430004 	sw	v1,4(v0)
    99ec:	8fc40050 	lw	a0,80(s8)
    99f0:	0c0028b5 	jal	a2d4 <__malloc_unlock>
    99f4:	00000000 	nop
    99f8:	8fc20010 	lw	v0,16(s8)
    99fc:	00000000 	nop
    9a00:	24420008 	addiu	v0,v0,8
    9a04:	03c0e821 	move	sp,s8
    9a08:	8fbf004c 	lw	ra,76(sp)
    9a0c:	8fbe0048 	lw	s8,72(sp)
    9a10:	27bd0050 	addiu	sp,sp,80
    9a14:	03e00008 	jr	ra
    9a18:	00000000 	nop

00009a1c <memchr>:
    9a1c:	27bdffe0 	addiu	sp,sp,-32
    9a20:	afbe001c 	sw	s8,28(sp)
    9a24:	03a0f021 	move	s8,sp
    9a28:	afc40020 	sw	a0,32(s8)
    9a2c:	afc50024 	sw	a1,36(s8)
    9a30:	afc60028 	sw	a2,40(s8)
    9a34:	8fc20020 	lw	v0,32(s8)
    9a38:	00000000 	nop
    9a3c:	afc20000 	sw	v0,0(s8)
    9a40:	8fc20024 	lw	v0,36(s8)
    9a44:	00000000 	nop
    9a48:	a3c20010 	sb	v0,16(s8)
    9a4c:	080026ac 	j	9ab0 <memchr+0x94>
    9a50:	00000000 	nop
    9a54:	8fc20028 	lw	v0,40(s8)
    9a58:	00000000 	nop
    9a5c:	2443ffff 	addiu	v1,v0,-1
    9a60:	afc30028 	sw	v1,40(s8)
    9a64:	14400004 	bnez	v0,9a78 <memchr+0x5c>
    9a68:	00000000 	nop
    9a6c:	00001021 	move	v0,zero
    9a70:	0800271f 	j	9c7c <memchr+0x260>
    9a74:	00000000 	nop
    9a78:	8fc20000 	lw	v0,0(s8)
    9a7c:	00000000 	nop
    9a80:	90420000 	lbu	v0,0(v0)
    9a84:	93c30010 	lbu	v1,16(s8)
    9a88:	00000000 	nop
    9a8c:	14620004 	bne	v1,v0,9aa0 <memchr+0x84>
    9a90:	00000000 	nop
    9a94:	8fc20000 	lw	v0,0(s8)
    9a98:	0800271f 	j	9c7c <memchr+0x260>
    9a9c:	00000000 	nop
    9aa0:	8fc20000 	lw	v0,0(s8)
    9aa4:	00000000 	nop
    9aa8:	24420001 	addiu	v0,v0,1
    9aac:	afc20000 	sw	v0,0(s8)
    9ab0:	8fc20000 	lw	v0,0(s8)
    9ab4:	00000000 	nop
    9ab8:	30420003 	andi	v0,v0,0x3
    9abc:	1440ffe5 	bnez	v0,9a54 <memchr+0x38>
    9ac0:	00000000 	nop
    9ac4:	8fc20028 	lw	v0,40(s8)
    9ac8:	00000000 	nop
    9acc:	2c420004 	sltiu	v0,v0,4
    9ad0:	14400053 	bnez	v0,9c20 <memchr+0x204>
    9ad4:	00000000 	nop
    9ad8:	8fc20000 	lw	v0,0(s8)
    9adc:	00000000 	nop
    9ae0:	afc20004 	sw	v0,4(s8)
    9ae4:	93c20010 	lbu	v0,16(s8)
    9ae8:	00000000 	nop
    9aec:	00021a00 	sll	v1,v0,0x8
    9af0:	93c20010 	lbu	v0,16(s8)
    9af4:	00000000 	nop
    9af8:	00621025 	or	v0,v1,v0
    9afc:	afc20008 	sw	v0,8(s8)
    9b00:	8fc20008 	lw	v0,8(s8)
    9b04:	00000000 	nop
    9b08:	00021400 	sll	v0,v0,0x10
    9b0c:	8fc30008 	lw	v1,8(s8)
    9b10:	00000000 	nop
    9b14:	00621025 	or	v0,v1,v0
    9b18:	afc20008 	sw	v0,8(s8)
    9b1c:	24020020 	li	v0,32
    9b20:	afc2000c 	sw	v0,12(s8)
    9b24:	080026d7 	j	9b5c <memchr+0x140>
    9b28:	00000000 	nop
    9b2c:	8fc30008 	lw	v1,8(s8)
    9b30:	8fc2000c 	lw	v0,12(s8)
    9b34:	00000000 	nop
    9b38:	00431004 	sllv	v0,v1,v0
    9b3c:	8fc30008 	lw	v1,8(s8)
    9b40:	00000000 	nop
    9b44:	00621025 	or	v0,v1,v0
    9b48:	afc20008 	sw	v0,8(s8)
    9b4c:	8fc2000c 	lw	v0,12(s8)
    9b50:	00000000 	nop
    9b54:	00021040 	sll	v0,v0,0x1
    9b58:	afc2000c 	sw	v0,12(s8)
    9b5c:	8fc2000c 	lw	v0,12(s8)
    9b60:	00000000 	nop
    9b64:	2c420020 	sltiu	v0,v0,32
    9b68:	1440fff0 	bnez	v0,9b2c <memchr+0x110>
    9b6c:	00000000 	nop
    9b70:	080026fe 	j	9bf8 <memchr+0x1dc>
    9b74:	00000000 	nop
    9b78:	8fc20004 	lw	v0,4(s8)
    9b7c:	00000000 	nop
    9b80:	8c430000 	lw	v1,0(v0)
    9b84:	8fc20008 	lw	v0,8(s8)
    9b88:	00000000 	nop
    9b8c:	00621826 	xor	v1,v1,v0
    9b90:	3c02fefe 	lui	v0,0xfefe
    9b94:	3442feff 	ori	v0,v0,0xfeff
    9b98:	00621821 	addu	v1,v1,v0
    9b9c:	8fc20004 	lw	v0,4(s8)
    9ba0:	00000000 	nop
    9ba4:	8c440000 	lw	a0,0(v0)
    9ba8:	8fc20008 	lw	v0,8(s8)
    9bac:	00000000 	nop
    9bb0:	00821026 	xor	v0,a0,v0
    9bb4:	00021027 	nor	v0,zero,v0
    9bb8:	00621824 	and	v1,v1,v0
    9bbc:	3c028080 	lui	v0,0x8080
    9bc0:	34428080 	ori	v0,v0,0x8080
    9bc4:	00621024 	and	v0,v1,v0
    9bc8:	10400003 	beqz	v0,9bd8 <memchr+0x1bc>
    9bcc:	00000000 	nop
    9bd0:	08002703 	j	9c0c <memchr+0x1f0>
    9bd4:	00000000 	nop
    9bd8:	8fc20028 	lw	v0,40(s8)
    9bdc:	00000000 	nop
    9be0:	2442fffc 	addiu	v0,v0,-4
    9be4:	afc20028 	sw	v0,40(s8)
    9be8:	8fc20004 	lw	v0,4(s8)
    9bec:	00000000 	nop
    9bf0:	24420004 	addiu	v0,v0,4
    9bf4:	afc20004 	sw	v0,4(s8)
    9bf8:	8fc20028 	lw	v0,40(s8)
    9bfc:	00000000 	nop
    9c00:	2c420004 	sltiu	v0,v0,4
    9c04:	1040ffdc 	beqz	v0,9b78 <memchr+0x15c>
    9c08:	00000000 	nop
    9c0c:	8fc20004 	lw	v0,4(s8)
    9c10:	00000000 	nop
    9c14:	afc20000 	sw	v0,0(s8)
    9c18:	08002718 	j	9c60 <memchr+0x244>
    9c1c:	00000000 	nop
    9c20:	08002718 	j	9c60 <memchr+0x244>
    9c24:	00000000 	nop
    9c28:	8fc20000 	lw	v0,0(s8)
    9c2c:	00000000 	nop
    9c30:	90420000 	lbu	v0,0(v0)
    9c34:	93c30010 	lbu	v1,16(s8)
    9c38:	00000000 	nop
    9c3c:	14620004 	bne	v1,v0,9c50 <memchr+0x234>
    9c40:	00000000 	nop
    9c44:	8fc20000 	lw	v0,0(s8)
    9c48:	0800271f 	j	9c7c <memchr+0x260>
    9c4c:	00000000 	nop
    9c50:	8fc20000 	lw	v0,0(s8)
    9c54:	00000000 	nop
    9c58:	24420001 	addiu	v0,v0,1
    9c5c:	afc20000 	sw	v0,0(s8)
    9c60:	8fc20028 	lw	v0,40(s8)
    9c64:	00000000 	nop
    9c68:	2443ffff 	addiu	v1,v0,-1
    9c6c:	afc30028 	sw	v1,40(s8)
    9c70:	1440ffed 	bnez	v0,9c28 <memchr+0x20c>
    9c74:	00000000 	nop
    9c78:	00001021 	move	v0,zero
    9c7c:	03c0e821 	move	sp,s8
    9c80:	8fbe001c 	lw	s8,28(sp)
    9c84:	27bd0020 	addiu	sp,sp,32
    9c88:	03e00008 	jr	ra
    9c8c:	00000000 	nop

00009c90 <memcpy>:
    9c90:	27bdffc0 	addiu	sp,sp,-64
    9c94:	afbe003c 	sw	s8,60(sp)
    9c98:	03a0f021 	move	s8,sp
    9c9c:	afc40040 	sw	a0,64(s8)
    9ca0:	afc50044 	sw	a1,68(s8)
    9ca4:	afc60048 	sw	a2,72(s8)
    9ca8:	8fc20040 	lw	v0,64(s8)
    9cac:	00000000 	nop
    9cb0:	afc20000 	sw	v0,0(s8)
    9cb4:	8fc20044 	lw	v0,68(s8)
    9cb8:	00000000 	nop
    9cbc:	afc20004 	sw	v0,4(s8)
    9cc0:	8fc20048 	lw	v0,72(s8)
    9cc4:	00000000 	nop
    9cc8:	afc20010 	sw	v0,16(s8)
    9ccc:	8fc30004 	lw	v1,4(s8)
    9cd0:	8fc20000 	lw	v0,0(s8)
    9cd4:	00000000 	nop
    9cd8:	00621025 	or	v0,v1,v0
    9cdc:	30420003 	andi	v0,v0,0x3
    9ce0:	14400086 	bnez	v0,9efc <memcpy+0x26c>
    9ce4:	00000000 	nop
    9ce8:	8fc20010 	lw	v0,16(s8)
    9cec:	00000000 	nop
    9cf0:	00021102 	srl	v0,v0,0x4
    9cf4:	afc20014 	sw	v0,20(s8)
    9cf8:	8fc20010 	lw	v0,16(s8)
    9cfc:	00000000 	nop
    9d00:	3042000f 	andi	v0,v0,0xf
    9d04:	afc20010 	sw	v0,16(s8)
    9d08:	8fc20000 	lw	v0,0(s8)
    9d0c:	00000000 	nop
    9d10:	afc20008 	sw	v0,8(s8)
    9d14:	8fc20004 	lw	v0,4(s8)
    9d18:	00000000 	nop
    9d1c:	afc2000c 	sw	v0,12(s8)
    9d20:	08002780 	j	9e00 <memcpy+0x170>
    9d24:	00000000 	nop
    9d28:	8fc2000c 	lw	v0,12(s8)
    9d2c:	00000000 	nop
    9d30:	8c420000 	lw	v0,0(v0)
    9d34:	00000000 	nop
    9d38:	afc20020 	sw	v0,32(s8)
    9d3c:	8fc2000c 	lw	v0,12(s8)
    9d40:	00000000 	nop
    9d44:	8c420004 	lw	v0,4(v0)
    9d48:	00000000 	nop
    9d4c:	afc20024 	sw	v0,36(s8)
    9d50:	8fc2000c 	lw	v0,12(s8)
    9d54:	00000000 	nop
    9d58:	8c420008 	lw	v0,8(v0)
    9d5c:	00000000 	nop
    9d60:	afc20028 	sw	v0,40(s8)
    9d64:	8fc2000c 	lw	v0,12(s8)
    9d68:	00000000 	nop
    9d6c:	8c42000c 	lw	v0,12(v0)
    9d70:	00000000 	nop
    9d74:	afc2002c 	sw	v0,44(s8)
    9d78:	8fc20008 	lw	v0,8(s8)
    9d7c:	8fc30020 	lw	v1,32(s8)
    9d80:	00000000 	nop
    9d84:	ac430000 	sw	v1,0(v0)
    9d88:	8fc20008 	lw	v0,8(s8)
    9d8c:	00000000 	nop
    9d90:	24420004 	addiu	v0,v0,4
    9d94:	8fc30024 	lw	v1,36(s8)
    9d98:	00000000 	nop
    9d9c:	ac430000 	sw	v1,0(v0)
    9da0:	8fc20008 	lw	v0,8(s8)
    9da4:	00000000 	nop
    9da8:	24420008 	addiu	v0,v0,8
    9dac:	8fc30028 	lw	v1,40(s8)
    9db0:	00000000 	nop
    9db4:	ac430000 	sw	v1,0(v0)
    9db8:	8fc20008 	lw	v0,8(s8)
    9dbc:	00000000 	nop
    9dc0:	2442000c 	addiu	v0,v0,12
    9dc4:	8fc3002c 	lw	v1,44(s8)
    9dc8:	00000000 	nop
    9dcc:	ac430000 	sw	v1,0(v0)
    9dd0:	8fc2000c 	lw	v0,12(s8)
    9dd4:	00000000 	nop
    9dd8:	24420010 	addiu	v0,v0,16
    9ddc:	afc2000c 	sw	v0,12(s8)
    9de0:	8fc20008 	lw	v0,8(s8)
    9de4:	00000000 	nop
    9de8:	24420010 	addiu	v0,v0,16
    9dec:	afc20008 	sw	v0,8(s8)
    9df0:	8fc20014 	lw	v0,20(s8)
    9df4:	00000000 	nop
    9df8:	2442ffff 	addiu	v0,v0,-1
    9dfc:	afc20014 	sw	v0,20(s8)
    9e00:	8fc20014 	lw	v0,20(s8)
    9e04:	00000000 	nop
    9e08:	1440ffc7 	bnez	v0,9d28 <memcpy+0x98>
    9e0c:	00000000 	nop
    9e10:	8fc20010 	lw	v0,16(s8)
    9e14:	00000000 	nop
    9e18:	00021082 	srl	v0,v0,0x2
    9e1c:	afc20014 	sw	v0,20(s8)
    9e20:	8fc20010 	lw	v0,16(s8)
    9e24:	00000000 	nop
    9e28:	30420003 	andi	v0,v0,0x3
    9e2c:	afc20010 	sw	v0,16(s8)
    9e30:	0800279d 	j	9e74 <memcpy+0x1e4>
    9e34:	00000000 	nop
    9e38:	8fc20008 	lw	v0,8(s8)
    9e3c:	00000000 	nop
    9e40:	24430004 	addiu	v1,v0,4
    9e44:	afc30008 	sw	v1,8(s8)
    9e48:	8fc3000c 	lw	v1,12(s8)
    9e4c:	00000000 	nop
    9e50:	24640004 	addiu	a0,v1,4
    9e54:	afc4000c 	sw	a0,12(s8)
    9e58:	8c630000 	lw	v1,0(v1)
    9e5c:	00000000 	nop
    9e60:	ac430000 	sw	v1,0(v0)
    9e64:	8fc20014 	lw	v0,20(s8)
    9e68:	00000000 	nop
    9e6c:	2442ffff 	addiu	v0,v0,-1
    9e70:	afc20014 	sw	v0,20(s8)
    9e74:	8fc20014 	lw	v0,20(s8)
    9e78:	00000000 	nop
    9e7c:	1440ffee 	bnez	v0,9e38 <memcpy+0x1a8>
    9e80:	00000000 	nop
    9e84:	8fc20008 	lw	v0,8(s8)
    9e88:	00000000 	nop
    9e8c:	afc20000 	sw	v0,0(s8)
    9e90:	8fc2000c 	lw	v0,12(s8)
    9e94:	00000000 	nop
    9e98:	afc20004 	sw	v0,4(s8)
    9e9c:	080027b8 	j	9ee0 <memcpy+0x250>
    9ea0:	00000000 	nop
    9ea4:	8fc20000 	lw	v0,0(s8)
    9ea8:	00000000 	nop
    9eac:	24430001 	addiu	v1,v0,1
    9eb0:	afc30000 	sw	v1,0(s8)
    9eb4:	8fc30004 	lw	v1,4(s8)
    9eb8:	00000000 	nop
    9ebc:	24640001 	addiu	a0,v1,1
    9ec0:	afc40004 	sw	a0,4(s8)
    9ec4:	80630000 	lb	v1,0(v1)
    9ec8:	00000000 	nop
    9ecc:	a0430000 	sb	v1,0(v0)
    9ed0:	8fc20010 	lw	v0,16(s8)
    9ed4:	00000000 	nop
    9ed8:	2442ffff 	addiu	v0,v0,-1
    9edc:	afc20010 	sw	v0,16(s8)
    9ee0:	8fc20010 	lw	v0,16(s8)
    9ee4:	00000000 	nop
    9ee8:	1c40ffee 	bgtz	v0,9ea4 <memcpy+0x214>
    9eec:	00000000 	nop
    9ef0:	8fc20040 	lw	v0,64(s8)
    9ef4:	08002811 	j	a044 <memcpy+0x3b4>
    9ef8:	00000000 	nop
    9efc:	8fc20004 	lw	v0,4(s8)
    9f00:	00000000 	nop
    9f04:	afc20018 	sw	v0,24(s8)
    9f08:	8fc20000 	lw	v0,0(s8)
    9f0c:	00000000 	nop
    9f10:	afc2001c 	sw	v0,28(s8)
    9f14:	8fc20010 	lw	v0,16(s8)
    9f18:	00000000 	nop
    9f1c:	04410002 	bgez	v0,9f28 <memcpy+0x298>
    9f20:	00000000 	nop
    9f24:	24420003 	addiu	v0,v0,3
    9f28:	00021083 	sra	v0,v0,0x2
    9f2c:	afc20014 	sw	v0,20(s8)
    9f30:	8fc30010 	lw	v1,16(s8)
    9f34:	3c028000 	lui	v0,0x8000
    9f38:	34420003 	ori	v0,v0,0x3
    9f3c:	00621024 	and	v0,v1,v0
    9f40:	04410005 	bgez	v0,9f58 <memcpy+0x2c8>
    9f44:	00000000 	nop
    9f48:	2442ffff 	addiu	v0,v0,-1
    9f4c:	2403fffc 	li	v1,-4
    9f50:	00431025 	or	v0,v0,v1
    9f54:	24420001 	addiu	v0,v0,1
    9f58:	afc20010 	sw	v0,16(s8)
    9f5c:	080027f1 	j	9fc4 <memcpy+0x334>
    9f60:	00000000 	nop
    9f64:	8fc20018 	lw	v0,24(s8)
    9f68:	00000000 	nop
    9f6c:	88410000 	lwl	at,0(v0)
    9f70:	98410003 	lwr	at,3(v0)
    9f74:	00000000 	nop
    9f78:	00201021 	move	v0,at
    9f7c:	afc20030 	sw	v0,48(s8)
    9f80:	8fc20014 	lw	v0,20(s8)
    9f84:	00000000 	nop
    9f88:	2442ffff 	addiu	v0,v0,-1
    9f8c:	afc20014 	sw	v0,20(s8)
    9f90:	8fc20018 	lw	v0,24(s8)
    9f94:	00000000 	nop
    9f98:	24420004 	addiu	v0,v0,4
    9f9c:	afc20018 	sw	v0,24(s8)
    9fa0:	8fc2001c 	lw	v0,28(s8)
    9fa4:	8fc30030 	lw	v1,48(s8)
    9fa8:	00000000 	nop
    9fac:	a8430000 	swl	v1,0(v0)
    9fb0:	b8430003 	swr	v1,3(v0)
    9fb4:	8fc2001c 	lw	v0,28(s8)
    9fb8:	00000000 	nop
    9fbc:	24420004 	addiu	v0,v0,4
    9fc0:	afc2001c 	sw	v0,28(s8)
    9fc4:	8fc20014 	lw	v0,20(s8)
    9fc8:	00000000 	nop
    9fcc:	1440ffe5 	bnez	v0,9f64 <memcpy+0x2d4>
    9fd0:	00000000 	nop
    9fd4:	8fc2001c 	lw	v0,28(s8)
    9fd8:	00000000 	nop
    9fdc:	afc20000 	sw	v0,0(s8)
    9fe0:	8fc20018 	lw	v0,24(s8)
    9fe4:	00000000 	nop
    9fe8:	afc20004 	sw	v0,4(s8)
    9fec:	0800280c 	j	a030 <memcpy+0x3a0>
    9ff0:	00000000 	nop
    9ff4:	8fc20000 	lw	v0,0(s8)
    9ff8:	00000000 	nop
    9ffc:	24430001 	addiu	v1,v0,1
    a000:	afc30000 	sw	v1,0(s8)
    a004:	8fc30004 	lw	v1,4(s8)
    a008:	00000000 	nop
    a00c:	24640001 	addiu	a0,v1,1
    a010:	afc40004 	sw	a0,4(s8)
    a014:	80630000 	lb	v1,0(v1)
    a018:	00000000 	nop
    a01c:	a0430000 	sb	v1,0(v0)
    a020:	8fc20010 	lw	v0,16(s8)
    a024:	00000000 	nop
    a028:	2442ffff 	addiu	v0,v0,-1
    a02c:	afc20010 	sw	v0,16(s8)
    a030:	8fc20010 	lw	v0,16(s8)
    a034:	00000000 	nop
    a038:	1c40ffee 	bgtz	v0,9ff4 <memcpy+0x364>
    a03c:	00000000 	nop
    a040:	8fc20040 	lw	v0,64(s8)
    a044:	03c0e821 	move	sp,s8
    a048:	8fbe003c 	lw	s8,60(sp)
    a04c:	27bd0040 	addiu	sp,sp,64
    a050:	03e00008 	jr	ra
    a054:	00000000 	nop

0000a058 <memset>:
    a058:	27bdffe0 	addiu	sp,sp,-32
    a05c:	afbe001c 	sw	s8,28(sp)
    a060:	03a0f021 	move	s8,sp
    a064:	afc40020 	sw	a0,32(s8)
    a068:	afc50024 	sw	a1,36(s8)
    a06c:	afc60028 	sw	a2,40(s8)
    a070:	8fc20020 	lw	v0,32(s8)
    a074:	00000000 	nop
    a078:	afc20000 	sw	v0,0(s8)
    a07c:	8fc20028 	lw	v0,40(s8)
    a080:	00000000 	nop
    a084:	2c420010 	sltiu	v0,v0,16
    a088:	14400070 	bnez	v0,a24c <memset+0x1f4>
    a08c:	00000000 	nop
    a090:	8fc20000 	lw	v0,0(s8)
    a094:	00000000 	nop
    a098:	30420003 	andi	v0,v0,0x3
    a09c:	afc20010 	sw	v0,16(s8)
    a0a0:	8fc20010 	lw	v0,16(s8)
    a0a4:	00000000 	nop
    a0a8:	10400017 	beqz	v0,a108 <memset+0xb0>
    a0ac:	00000000 	nop
    a0b0:	0800283b 	j	a0ec <memset+0x94>
    a0b4:	00000000 	nop
    a0b8:	8fc20000 	lw	v0,0(s8)
    a0bc:	00000000 	nop
    a0c0:	24430001 	addiu	v1,v0,1
    a0c4:	afc30000 	sw	v1,0(s8)
    a0c8:	8fc30024 	lw	v1,36(s8)
    a0cc:	00000000 	nop
    a0d0:	00031e00 	sll	v1,v1,0x18
    a0d4:	00031e03 	sra	v1,v1,0x18
    a0d8:	a0430000 	sb	v1,0(v0)
    a0dc:	8fc20028 	lw	v0,40(s8)
    a0e0:	00000000 	nop
    a0e4:	2442ffff 	addiu	v0,v0,-1
    a0e8:	afc20028 	sw	v0,40(s8)
    a0ec:	8fc20010 	lw	v0,16(s8)
    a0f0:	00000000 	nop
    a0f4:	24430001 	addiu	v1,v0,1
    a0f8:	afc30010 	sw	v1,16(s8)
    a0fc:	2c420004 	sltiu	v0,v0,4
    a100:	1440ffed 	bnez	v0,a0b8 <memset+0x60>
    a104:	00000000 	nop
    a108:	8fc20000 	lw	v0,0(s8)
    a10c:	00000000 	nop
    a110:	afc20008 	sw	v0,8(s8)
    a114:	8fc20024 	lw	v0,36(s8)
    a118:	00000000 	nop
    a11c:	304200ff 	andi	v0,v0,0xff
    a120:	afc20024 	sw	v0,36(s8)
    a124:	8fc20024 	lw	v0,36(s8)
    a128:	00000000 	nop
    a12c:	afc20004 	sw	v0,4(s8)
    a130:	8fc20004 	lw	v0,4(s8)
    a134:	00000000 	nop
    a138:	1040000f 	beqz	v0,a178 <memset+0x120>
    a13c:	00000000 	nop
    a140:	8fc20004 	lw	v0,4(s8)
    a144:	00000000 	nop
    a148:	00021200 	sll	v0,v0,0x8
    a14c:	8fc30004 	lw	v1,4(s8)
    a150:	00000000 	nop
    a154:	00621025 	or	v0,v1,v0
    a158:	afc20004 	sw	v0,4(s8)
    a15c:	8fc20004 	lw	v0,4(s8)
    a160:	00000000 	nop
    a164:	00021400 	sll	v0,v0,0x10
    a168:	8fc30004 	lw	v1,4(s8)
    a16c:	00000000 	nop
    a170:	00621025 	or	v0,v1,v0
    a174:	afc20004 	sw	v0,4(s8)
    a178:	8fc20028 	lw	v0,40(s8)
    a17c:	00000000 	nop
    a180:	000210c2 	srl	v0,v0,0x3
    a184:	afc2000c 	sw	v0,12(s8)
    a188:	8fc20028 	lw	v0,40(s8)
    a18c:	00000000 	nop
    a190:	30420007 	andi	v0,v0,0x7
    a194:	afc20028 	sw	v0,40(s8)
    a198:	0800287a 	j	a1e8 <memset+0x190>
    a19c:	00000000 	nop
    a1a0:	8fc20008 	lw	v0,8(s8)
    a1a4:	8fc30004 	lw	v1,4(s8)
    a1a8:	00000000 	nop
    a1ac:	ac430000 	sw	v1,0(v0)
    a1b0:	8fc20008 	lw	v0,8(s8)
    a1b4:	00000000 	nop
    a1b8:	24420004 	addiu	v0,v0,4
    a1bc:	8fc30004 	lw	v1,4(s8)
    a1c0:	00000000 	nop
    a1c4:	ac430000 	sw	v1,0(v0)
    a1c8:	8fc20008 	lw	v0,8(s8)
    a1cc:	00000000 	nop
    a1d0:	24420008 	addiu	v0,v0,8
    a1d4:	afc20008 	sw	v0,8(s8)
    a1d8:	8fc2000c 	lw	v0,12(s8)
    a1dc:	00000000 	nop
    a1e0:	2442ffff 	addiu	v0,v0,-1
    a1e4:	afc2000c 	sw	v0,12(s8)
    a1e8:	8fc2000c 	lw	v0,12(s8)
    a1ec:	00000000 	nop
    a1f0:	1440ffeb 	bnez	v0,a1a0 <memset+0x148>
    a1f4:	00000000 	nop
    a1f8:	8fc20028 	lw	v0,40(s8)
    a1fc:	00000000 	nop
    a200:	2c420004 	sltiu	v0,v0,4
    a204:	1440000c 	bnez	v0,a238 <memset+0x1e0>
    a208:	00000000 	nop
    a20c:	8fc20008 	lw	v0,8(s8)
    a210:	00000000 	nop
    a214:	24430004 	addiu	v1,v0,4
    a218:	afc30008 	sw	v1,8(s8)
    a21c:	8fc30004 	lw	v1,4(s8)
    a220:	00000000 	nop
    a224:	ac430000 	sw	v1,0(v0)
    a228:	8fc20028 	lw	v0,40(s8)
    a22c:	00000000 	nop
    a230:	2442fffc 	addiu	v0,v0,-4
    a234:	afc20028 	sw	v0,40(s8)
    a238:	8fc20008 	lw	v0,8(s8)
    a23c:	00000000 	nop
    a240:	afc20000 	sw	v0,0(s8)
    a244:	080028a2 	j	a288 <memset+0x230>
    a248:	00000000 	nop
    a24c:	080028a2 	j	a288 <memset+0x230>
    a250:	00000000 	nop
    a254:	8fc20000 	lw	v0,0(s8)
    a258:	00000000 	nop
    a25c:	24430001 	addiu	v1,v0,1
    a260:	afc30000 	sw	v1,0(s8)
    a264:	8fc30024 	lw	v1,36(s8)
    a268:	00000000 	nop
    a26c:	00031e00 	sll	v1,v1,0x18
    a270:	00031e03 	sra	v1,v1,0x18
    a274:	a0430000 	sb	v1,0(v0)
    a278:	8fc20028 	lw	v0,40(s8)
    a27c:	00000000 	nop
    a280:	2442ffff 	addiu	v0,v0,-1
    a284:	afc20028 	sw	v0,40(s8)
    a288:	8fc20028 	lw	v0,40(s8)
    a28c:	00000000 	nop
    a290:	1440fff0 	bnez	v0,a254 <memset+0x1fc>
    a294:	00000000 	nop
    a298:	8fc20020 	lw	v0,32(s8)
    a29c:	03c0e821 	move	sp,s8
    a2a0:	8fbe001c 	lw	s8,28(sp)
    a2a4:	27bd0020 	addiu	sp,sp,32
    a2a8:	03e00008 	jr	ra
    a2ac:	00000000 	nop

0000a2b0 <__malloc_lock>:
    a2b0:	27bdfff8 	addiu	sp,sp,-8
    a2b4:	afbe0004 	sw	s8,4(sp)
    a2b8:	03a0f021 	move	s8,sp
    a2bc:	afc40008 	sw	a0,8(s8)
    a2c0:	03c0e821 	move	sp,s8
    a2c4:	8fbe0004 	lw	s8,4(sp)
    a2c8:	27bd0008 	addiu	sp,sp,8
    a2cc:	03e00008 	jr	ra
    a2d0:	00000000 	nop

0000a2d4 <__malloc_unlock>:
    a2d4:	27bdfff8 	addiu	sp,sp,-8
    a2d8:	afbe0004 	sw	s8,4(sp)
    a2dc:	03a0f021 	move	s8,sp
    a2e0:	afc40008 	sw	a0,8(s8)
    a2e4:	03c0e821 	move	sp,s8
    a2e8:	8fbe0004 	lw	s8,4(sp)
    a2ec:	27bd0008 	addiu	sp,sp,8
    a2f0:	03e00008 	jr	ra
    a2f4:	00000000 	nop

0000a2f8 <_Balloc>:
    a2f8:	27bdffe0 	addiu	sp,sp,-32
    a2fc:	afbf001c 	sw	ra,28(sp)
    a300:	afbe0018 	sw	s8,24(sp)
    a304:	03a0f021 	move	s8,sp
    a308:	afc40020 	sw	a0,32(s8)
    a30c:	afc50024 	sw	a1,36(s8)
    a310:	8fc20020 	lw	v0,32(s8)
    a314:	00000000 	nop
    a318:	8c42004c 	lw	v0,76(v0)
    a31c:	00000000 	nop
    a320:	14400013 	bnez	v0,a370 <_Balloc+0x78>
    a324:	00000000 	nop
    a328:	8fc40020 	lw	a0,32(s8)
    a32c:	24050004 	li	a1,4
    a330:	24060021 	li	a2,33
    a334:	0c003ca8 	jal	f2a0 <_calloc_r>
    a338:	00000000 	nop
    a33c:	00401821 	move	v1,v0
    a340:	8fc20020 	lw	v0,32(s8)
    a344:	00000000 	nop
    a348:	ac43004c 	sw	v1,76(v0)
    a34c:	8fc20020 	lw	v0,32(s8)
    a350:	00000000 	nop
    a354:	8c42004c 	lw	v0,76(v0)
    a358:	00000000 	nop
    a35c:	14400004 	bnez	v0,a370 <_Balloc+0x78>
    a360:	00000000 	nop
    a364:	00001021 	move	v0,zero
    a368:	08002920 	j	a480 <_Balloc+0x188>
    a36c:	00000000 	nop
    a370:	8fc20020 	lw	v0,32(s8)
    a374:	00000000 	nop
    a378:	8c43004c 	lw	v1,76(v0)
    a37c:	8fc20024 	lw	v0,36(s8)
    a380:	00000000 	nop
    a384:	00021080 	sll	v0,v0,0x2
    a388:	00621021 	addu	v0,v1,v0
    a38c:	8c420000 	lw	v0,0(v0)
    a390:	00000000 	nop
    a394:	afc20010 	sw	v0,16(s8)
    a398:	8fc20010 	lw	v0,16(s8)
    a39c:	00000000 	nop
    a3a0:	1040000f 	beqz	v0,a3e0 <_Balloc+0xe8>
    a3a4:	00000000 	nop
    a3a8:	8fc20020 	lw	v0,32(s8)
    a3ac:	00000000 	nop
    a3b0:	8c43004c 	lw	v1,76(v0)
    a3b4:	8fc20024 	lw	v0,36(s8)
    a3b8:	00000000 	nop
    a3bc:	00021080 	sll	v0,v0,0x2
    a3c0:	00621021 	addu	v0,v1,v0
    a3c4:	8fc30010 	lw	v1,16(s8)
    a3c8:	00000000 	nop
    a3cc:	8c630000 	lw	v1,0(v1)
    a3d0:	00000000 	nop
    a3d4:	ac430000 	sw	v1,0(v0)
    a3d8:	08002916 	j	a458 <_Balloc+0x160>
    a3dc:	00000000 	nop
    a3e0:	24030001 	li	v1,1
    a3e4:	8fc20024 	lw	v0,36(s8)
    a3e8:	00000000 	nop
    a3ec:	00431004 	sllv	v0,v1,v0
    a3f0:	afc20014 	sw	v0,20(s8)
    a3f4:	8fc20014 	lw	v0,20(s8)
    a3f8:	00000000 	nop
    a3fc:	24420005 	addiu	v0,v0,5
    a400:	00021080 	sll	v0,v0,0x2
    a404:	8fc40020 	lw	a0,32(s8)
    a408:	24050001 	li	a1,1
    a40c:	00403021 	move	a2,v0
    a410:	0c003ca8 	jal	f2a0 <_calloc_r>
    a414:	00000000 	nop
    a418:	afc20010 	sw	v0,16(s8)
    a41c:	8fc20010 	lw	v0,16(s8)
    a420:	00000000 	nop
    a424:	14400004 	bnez	v0,a438 <_Balloc+0x140>
    a428:	00000000 	nop
    a42c:	00001021 	move	v0,zero
    a430:	08002920 	j	a480 <_Balloc+0x188>
    a434:	00000000 	nop
    a438:	8fc20010 	lw	v0,16(s8)
    a43c:	8fc30024 	lw	v1,36(s8)
    a440:	00000000 	nop
    a444:	ac430004 	sw	v1,4(v0)
    a448:	8fc20010 	lw	v0,16(s8)
    a44c:	8fc30014 	lw	v1,20(s8)
    a450:	00000000 	nop
    a454:	ac430008 	sw	v1,8(v0)
    a458:	8fc20010 	lw	v0,16(s8)
    a45c:	00000000 	nop
    a460:	ac400010 	sw	zero,16(v0)
    a464:	8fc20010 	lw	v0,16(s8)
    a468:	00000000 	nop
    a46c:	8c430010 	lw	v1,16(v0)
    a470:	8fc20010 	lw	v0,16(s8)
    a474:	00000000 	nop
    a478:	ac43000c 	sw	v1,12(v0)
    a47c:	8fc20010 	lw	v0,16(s8)
    a480:	03c0e821 	move	sp,s8
    a484:	8fbf001c 	lw	ra,28(sp)
    a488:	8fbe0018 	lw	s8,24(sp)
    a48c:	27bd0020 	addiu	sp,sp,32
    a490:	03e00008 	jr	ra
    a494:	00000000 	nop

0000a498 <_Bfree>:
    a498:	27bdfff8 	addiu	sp,sp,-8
    a49c:	afbe0004 	sw	s8,4(sp)
    a4a0:	03a0f021 	move	s8,sp
    a4a4:	afc40008 	sw	a0,8(s8)
    a4a8:	afc5000c 	sw	a1,12(s8)
    a4ac:	8fc2000c 	lw	v0,12(s8)
    a4b0:	00000000 	nop
    a4b4:	1040001a 	beqz	v0,a520 <_Bfree+0x88>
    a4b8:	00000000 	nop
    a4bc:	8fc20008 	lw	v0,8(s8)
    a4c0:	00000000 	nop
    a4c4:	8c43004c 	lw	v1,76(v0)
    a4c8:	8fc2000c 	lw	v0,12(s8)
    a4cc:	00000000 	nop
    a4d0:	8c420004 	lw	v0,4(v0)
    a4d4:	00000000 	nop
    a4d8:	00021080 	sll	v0,v0,0x2
    a4dc:	00621021 	addu	v0,v1,v0
    a4e0:	8c430000 	lw	v1,0(v0)
    a4e4:	8fc2000c 	lw	v0,12(s8)
    a4e8:	00000000 	nop
    a4ec:	ac430000 	sw	v1,0(v0)
    a4f0:	8fc20008 	lw	v0,8(s8)
    a4f4:	00000000 	nop
    a4f8:	8c43004c 	lw	v1,76(v0)
    a4fc:	8fc2000c 	lw	v0,12(s8)
    a500:	00000000 	nop
    a504:	8c420004 	lw	v0,4(v0)
    a508:	00000000 	nop
    a50c:	00021080 	sll	v0,v0,0x2
    a510:	00621021 	addu	v0,v1,v0
    a514:	8fc3000c 	lw	v1,12(s8)
    a518:	00000000 	nop
    a51c:	ac430000 	sw	v1,0(v0)
    a520:	03c0e821 	move	sp,s8
    a524:	8fbe0004 	lw	s8,4(sp)
    a528:	27bd0008 	addiu	sp,sp,8
    a52c:	03e00008 	jr	ra
    a530:	00000000 	nop

0000a534 <__multadd>:
    a534:	27bdffc8 	addiu	sp,sp,-56
    a538:	afbf0034 	sw	ra,52(sp)
    a53c:	afbe0030 	sw	s8,48(sp)
    a540:	03a0f021 	move	s8,sp
    a544:	afc40038 	sw	a0,56(s8)
    a548:	afc5003c 	sw	a1,60(s8)
    a54c:	afc60040 	sw	a2,64(s8)
    a550:	afc70044 	sw	a3,68(s8)
    a554:	8fc2003c 	lw	v0,60(s8)
    a558:	00000000 	nop
    a55c:	8c420010 	lw	v0,16(v0)
    a560:	00000000 	nop
    a564:	afc20018 	sw	v0,24(s8)
    a568:	8fc2003c 	lw	v0,60(s8)
    a56c:	00000000 	nop
    a570:	24420014 	addiu	v0,v0,20
    a574:	afc20014 	sw	v0,20(s8)
    a578:	afc00010 	sw	zero,16(s8)
    a57c:	8fc20014 	lw	v0,20(s8)
    a580:	00000000 	nop
    a584:	8c420000 	lw	v0,0(v0)
    a588:	00000000 	nop
    a58c:	afc2001c 	sw	v0,28(s8)
    a590:	8fc2001c 	lw	v0,28(s8)
    a594:	00000000 	nop
    a598:	3043ffff 	andi	v1,v0,0xffff
    a59c:	8fc20040 	lw	v0,64(s8)
    a5a0:	00000000 	nop
    a5a4:	00620018 	mult	v1,v0
    a5a8:	00001812 	mflo	v1
    a5ac:	8fc20044 	lw	v0,68(s8)
    a5b0:	00000000 	nop
    a5b4:	00621021 	addu	v0,v1,v0
    a5b8:	afc20020 	sw	v0,32(s8)
    a5bc:	8fc2001c 	lw	v0,28(s8)
    a5c0:	00000000 	nop
    a5c4:	00021c02 	srl	v1,v0,0x10
    a5c8:	8fc20040 	lw	v0,64(s8)
    a5cc:	00000000 	nop
    a5d0:	00620018 	mult	v1,v0
    a5d4:	00001812 	mflo	v1
    a5d8:	8fc20020 	lw	v0,32(s8)
    a5dc:	00000000 	nop
    a5e0:	00021402 	srl	v0,v0,0x10
    a5e4:	00621021 	addu	v0,v1,v0
    a5e8:	afc20024 	sw	v0,36(s8)
    a5ec:	8fc20024 	lw	v0,36(s8)
    a5f0:	00000000 	nop
    a5f4:	00021402 	srl	v0,v0,0x10
    a5f8:	afc20044 	sw	v0,68(s8)
    a5fc:	8fc20014 	lw	v0,20(s8)
    a600:	00000000 	nop
    a604:	24430004 	addiu	v1,v0,4
    a608:	afc30014 	sw	v1,20(s8)
    a60c:	8fc30024 	lw	v1,36(s8)
    a610:	00000000 	nop
    a614:	00032400 	sll	a0,v1,0x10
    a618:	8fc30020 	lw	v1,32(s8)
    a61c:	00000000 	nop
    a620:	3063ffff 	andi	v1,v1,0xffff
    a624:	00831821 	addu	v1,a0,v1
    a628:	ac430000 	sw	v1,0(v0)
    a62c:	8fc20010 	lw	v0,16(s8)
    a630:	00000000 	nop
    a634:	24420001 	addiu	v0,v0,1
    a638:	afc20010 	sw	v0,16(s8)
    a63c:	8fc30010 	lw	v1,16(s8)
    a640:	8fc20018 	lw	v0,24(s8)
    a644:	00000000 	nop
    a648:	0062102a 	slt	v0,v1,v0
    a64c:	1440ffcb 	bnez	v0,a57c <__multadd+0x48>
    a650:	00000000 	nop
    a654:	8fc20044 	lw	v0,68(s8)
    a658:	00000000 	nop
    a65c:	10400038 	beqz	v0,a740 <__multadd+0x20c>
    a660:	00000000 	nop
    a664:	8fc2003c 	lw	v0,60(s8)
    a668:	00000000 	nop
    a66c:	8c430008 	lw	v1,8(v0)
    a670:	8fc20018 	lw	v0,24(s8)
    a674:	00000000 	nop
    a678:	0043102a 	slt	v0,v0,v1
    a67c:	14400022 	bnez	v0,a708 <__multadd+0x1d4>
    a680:	00000000 	nop
    a684:	8fc2003c 	lw	v0,60(s8)
    a688:	00000000 	nop
    a68c:	8c420004 	lw	v0,4(v0)
    a690:	00000000 	nop
    a694:	24420001 	addiu	v0,v0,1
    a698:	8fc40038 	lw	a0,56(s8)
    a69c:	00402821 	move	a1,v0
    a6a0:	0c0028be 	jal	a2f8 <_Balloc>
    a6a4:	00000000 	nop
    a6a8:	afc20028 	sw	v0,40(s8)
    a6ac:	8fc20028 	lw	v0,40(s8)
    a6b0:	00000000 	nop
    a6b4:	2444000c 	addiu	a0,v0,12
    a6b8:	8fc2003c 	lw	v0,60(s8)
    a6bc:	00000000 	nop
    a6c0:	2443000c 	addiu	v1,v0,12
    a6c4:	8fc2003c 	lw	v0,60(s8)
    a6c8:	00000000 	nop
    a6cc:	8c420010 	lw	v0,16(v0)
    a6d0:	00000000 	nop
    a6d4:	24420002 	addiu	v0,v0,2
    a6d8:	00021080 	sll	v0,v0,0x2
    a6dc:	00602821 	move	a1,v1
    a6e0:	00403021 	move	a2,v0
    a6e4:	0c002724 	jal	9c90 <memcpy>
    a6e8:	00000000 	nop
    a6ec:	8fc40038 	lw	a0,56(s8)
    a6f0:	8fc5003c 	lw	a1,60(s8)
    a6f4:	0c002926 	jal	a498 <_Bfree>
    a6f8:	00000000 	nop
    a6fc:	8fc20028 	lw	v0,40(s8)
    a700:	00000000 	nop
    a704:	afc2003c 	sw	v0,60(s8)
    a708:	8fc20018 	lw	v0,24(s8)
    a70c:	00000000 	nop
    a710:	24430001 	addiu	v1,v0,1
    a714:	afc30018 	sw	v1,24(s8)
    a718:	8fc30044 	lw	v1,68(s8)
    a71c:	8fc4003c 	lw	a0,60(s8)
    a720:	24420004 	addiu	v0,v0,4
    a724:	00021080 	sll	v0,v0,0x2
    a728:	00821021 	addu	v0,a0,v0
    a72c:	ac430004 	sw	v1,4(v0)
    a730:	8fc2003c 	lw	v0,60(s8)
    a734:	8fc30018 	lw	v1,24(s8)
    a738:	00000000 	nop
    a73c:	ac430010 	sw	v1,16(v0)
    a740:	8fc2003c 	lw	v0,60(s8)
    a744:	03c0e821 	move	sp,s8
    a748:	8fbf0034 	lw	ra,52(sp)
    a74c:	8fbe0030 	lw	s8,48(sp)
    a750:	27bd0038 	addiu	sp,sp,56
    a754:	03e00008 	jr	ra
    a758:	00000000 	nop

0000a75c <__s2b>:
    a75c:	27bdffd0 	addiu	sp,sp,-48
    a760:	afbf002c 	sw	ra,44(sp)
    a764:	afbe0028 	sw	s8,40(sp)
    a768:	03a0f021 	move	s8,sp
    a76c:	afc40030 	sw	a0,48(s8)
    a770:	afc50034 	sw	a1,52(s8)
    a774:	afc60038 	sw	a2,56(s8)
    a778:	afc7003c 	sw	a3,60(s8)
    a77c:	8fc2003c 	lw	v0,60(s8)
    a780:	00000000 	nop
    a784:	24430008 	addiu	v1,v0,8
    a788:	24020009 	li	v0,9
    a78c:	14400002 	bnez	v0,a798 <__s2b+0x3c>
    a790:	0062001a 	div	zero,v1,v0
    a794:	0007000d 	break	0x7
    a798:	00001810 	mfhi	v1
    a79c:	00001012 	mflo	v0
    a7a0:	afc20020 	sw	v0,32(s8)
    a7a4:	afc00018 	sw	zero,24(s8)
    a7a8:	24020001 	li	v0,1
    a7ac:	afc2001c 	sw	v0,28(s8)
    a7b0:	080029f6 	j	a7d8 <__s2b+0x7c>
    a7b4:	00000000 	nop
    a7b8:	8fc2001c 	lw	v0,28(s8)
    a7bc:	00000000 	nop
    a7c0:	00021040 	sll	v0,v0,0x1
    a7c4:	afc2001c 	sw	v0,28(s8)
    a7c8:	8fc20018 	lw	v0,24(s8)
    a7cc:	00000000 	nop
    a7d0:	24420001 	addiu	v0,v0,1
    a7d4:	afc20018 	sw	v0,24(s8)
    a7d8:	8fc30020 	lw	v1,32(s8)
    a7dc:	8fc2001c 	lw	v0,28(s8)
    a7e0:	00000000 	nop
    a7e4:	0043102a 	slt	v0,v0,v1
    a7e8:	1440fff3 	bnez	v0,a7b8 <__s2b+0x5c>
    a7ec:	00000000 	nop
    a7f0:	8fc40030 	lw	a0,48(s8)
    a7f4:	8fc50018 	lw	a1,24(s8)
    a7f8:	0c0028be 	jal	a2f8 <_Balloc>
    a7fc:	00000000 	nop
    a800:	afc20010 	sw	v0,16(s8)
    a804:	8fc20010 	lw	v0,16(s8)
    a808:	8fc30040 	lw	v1,64(s8)
    a80c:	00000000 	nop
    a810:	ac430014 	sw	v1,20(v0)
    a814:	8fc20010 	lw	v0,16(s8)
    a818:	24030001 	li	v1,1
    a81c:	ac430010 	sw	v1,16(v0)
    a820:	24020009 	li	v0,9
    a824:	afc20014 	sw	v0,20(s8)
    a828:	8fc20038 	lw	v0,56(s8)
    a82c:	00000000 	nop
    a830:	2842000a 	slti	v0,v0,10
    a834:	14400023 	bnez	v0,a8c4 <__s2b+0x168>
    a838:	00000000 	nop
    a83c:	8fc20034 	lw	v0,52(s8)
    a840:	00000000 	nop
    a844:	24420009 	addiu	v0,v0,9
    a848:	afc20034 	sw	v0,52(s8)
    a84c:	8fc20034 	lw	v0,52(s8)
    a850:	00000000 	nop
    a854:	24430001 	addiu	v1,v0,1
    a858:	afc30034 	sw	v1,52(s8)
    a85c:	80420000 	lb	v0,0(v0)
    a860:	00000000 	nop
    a864:	2442ffd0 	addiu	v0,v0,-48
    a868:	8fc40030 	lw	a0,48(s8)
    a86c:	8fc50010 	lw	a1,16(s8)
    a870:	2406000a 	li	a2,10
    a874:	00403821 	move	a3,v0
    a878:	0c00294d 	jal	a534 <__multadd>
    a87c:	00000000 	nop
    a880:	afc20010 	sw	v0,16(s8)
    a884:	8fc20014 	lw	v0,20(s8)
    a888:	00000000 	nop
    a88c:	24420001 	addiu	v0,v0,1
    a890:	afc20014 	sw	v0,20(s8)
    a894:	8fc30014 	lw	v1,20(s8)
    a898:	8fc20038 	lw	v0,56(s8)
    a89c:	00000000 	nop
    a8a0:	0062102a 	slt	v0,v1,v0
    a8a4:	1440ffe9 	bnez	v0,a84c <__s2b+0xf0>
    a8a8:	00000000 	nop
    a8ac:	8fc20034 	lw	v0,52(s8)
    a8b0:	00000000 	nop
    a8b4:	24420001 	addiu	v0,v0,1
    a8b8:	afc20034 	sw	v0,52(s8)
    a8bc:	08002a49 	j	a924 <__s2b+0x1c8>
    a8c0:	00000000 	nop
    a8c4:	8fc20034 	lw	v0,52(s8)
    a8c8:	00000000 	nop
    a8cc:	2442000a 	addiu	v0,v0,10
    a8d0:	afc20034 	sw	v0,52(s8)
    a8d4:	08002a49 	j	a924 <__s2b+0x1c8>
    a8d8:	00000000 	nop
    a8dc:	8fc20034 	lw	v0,52(s8)
    a8e0:	00000000 	nop
    a8e4:	24430001 	addiu	v1,v0,1
    a8e8:	afc30034 	sw	v1,52(s8)
    a8ec:	80420000 	lb	v0,0(v0)
    a8f0:	00000000 	nop
    a8f4:	2442ffd0 	addiu	v0,v0,-48
    a8f8:	8fc40030 	lw	a0,48(s8)
    a8fc:	8fc50010 	lw	a1,16(s8)
    a900:	2406000a 	li	a2,10
    a904:	00403821 	move	a3,v0
    a908:	0c00294d 	jal	a534 <__multadd>
    a90c:	00000000 	nop
    a910:	afc20010 	sw	v0,16(s8)
    a914:	8fc20014 	lw	v0,20(s8)
    a918:	00000000 	nop
    a91c:	24420001 	addiu	v0,v0,1
    a920:	afc20014 	sw	v0,20(s8)
    a924:	8fc30014 	lw	v1,20(s8)
    a928:	8fc2003c 	lw	v0,60(s8)
    a92c:	00000000 	nop
    a930:	0062102a 	slt	v0,v1,v0
    a934:	1440ffe9 	bnez	v0,a8dc <__s2b+0x180>
    a938:	00000000 	nop
    a93c:	8fc20010 	lw	v0,16(s8)
    a940:	03c0e821 	move	sp,s8
    a944:	8fbf002c 	lw	ra,44(sp)
    a948:	8fbe0028 	lw	s8,40(sp)
    a94c:	27bd0030 	addiu	sp,sp,48
    a950:	03e00008 	jr	ra
    a954:	00000000 	nop

0000a958 <__hi0bits>:
    a958:	27bdfff8 	addiu	sp,sp,-8
    a95c:	afbe0004 	sw	s8,4(sp)
    a960:	afb00000 	sw	s0,0(sp)
    a964:	03a0f021 	move	s8,sp
    a968:	00801021 	move	v0,a0
    a96c:	00008021 	move	s0,zero
    a970:	3c03ffff 	lui	v1,0xffff
    a974:	00431824 	and	v1,v0,v1
    a978:	14600003 	bnez	v1,a988 <__hi0bits+0x30>
    a97c:	00000000 	nop
    a980:	24100010 	li	s0,16
    a984:	00021400 	sll	v0,v0,0x10
    a988:	3c03ff00 	lui	v1,0xff00
    a98c:	00431824 	and	v1,v0,v1
    a990:	14600003 	bnez	v1,a9a0 <__hi0bits+0x48>
    a994:	00000000 	nop
    a998:	26100008 	addiu	s0,s0,8
    a99c:	00021200 	sll	v0,v0,0x8
    a9a0:	3c03f000 	lui	v1,0xf000
    a9a4:	00431824 	and	v1,v0,v1
    a9a8:	14600003 	bnez	v1,a9b8 <__hi0bits+0x60>
    a9ac:	00000000 	nop
    a9b0:	26100004 	addiu	s0,s0,4
    a9b4:	00021100 	sll	v0,v0,0x4
    a9b8:	3c03c000 	lui	v1,0xc000
    a9bc:	00431824 	and	v1,v0,v1
    a9c0:	14600003 	bnez	v1,a9d0 <__hi0bits+0x78>
    a9c4:	00000000 	nop
    a9c8:	26100002 	addiu	s0,s0,2
    a9cc:	00021080 	sll	v0,v0,0x2
    a9d0:	00401821 	move	v1,v0
    a9d4:	04600009 	bltz	v1,a9fc <__hi0bits+0xa4>
    a9d8:	00000000 	nop
    a9dc:	26100001 	addiu	s0,s0,1
    a9e0:	3c034000 	lui	v1,0x4000
    a9e4:	00431024 	and	v0,v0,v1
    a9e8:	14400004 	bnez	v0,a9fc <__hi0bits+0xa4>
    a9ec:	00000000 	nop
    a9f0:	24020020 	li	v0,32
    a9f4:	08002a80 	j	aa00 <__hi0bits+0xa8>
    a9f8:	00000000 	nop
    a9fc:	02001021 	move	v0,s0
    aa00:	03c0e821 	move	sp,s8
    aa04:	8fbe0004 	lw	s8,4(sp)
    aa08:	8fb00000 	lw	s0,0(sp)
    aa0c:	27bd0008 	addiu	sp,sp,8
    aa10:	03e00008 	jr	ra
    aa14:	00000000 	nop

0000aa18 <__lo0bits>:
    aa18:	27bdfff0 	addiu	sp,sp,-16
    aa1c:	afbe000c 	sw	s8,12(sp)
    aa20:	afb10008 	sw	s1,8(sp)
    aa24:	afb00004 	sw	s0,4(sp)
    aa28:	03a0f021 	move	s8,sp
    aa2c:	afc40010 	sw	a0,16(s8)
    aa30:	8fc20010 	lw	v0,16(s8)
    aa34:	00000000 	nop
    aa38:	8c500000 	lw	s0,0(v0)
    aa3c:	00000000 	nop
    aa40:	32020007 	andi	v0,s0,0x7
    aa44:	10400018 	beqz	v0,aaa8 <__lo0bits+0x90>
    aa48:	00000000 	nop
    aa4c:	32020001 	andi	v0,s0,0x1
    aa50:	10400004 	beqz	v0,aa64 <__lo0bits+0x4c>
    aa54:	00000000 	nop
    aa58:	00001021 	move	v0,zero
    aa5c:	08002acd 	j	ab34 <__lo0bits+0x11c>
    aa60:	00000000 	nop
    aa64:	32020002 	andi	v0,s0,0x2
    aa68:	10400008 	beqz	v0,aa8c <__lo0bits+0x74>
    aa6c:	00000000 	nop
    aa70:	00101842 	srl	v1,s0,0x1
    aa74:	8fc20010 	lw	v0,16(s8)
    aa78:	00000000 	nop
    aa7c:	ac430000 	sw	v1,0(v0)
    aa80:	24020001 	li	v0,1
    aa84:	08002acd 	j	ab34 <__lo0bits+0x11c>
    aa88:	00000000 	nop
    aa8c:	00101882 	srl	v1,s0,0x2
    aa90:	8fc20010 	lw	v0,16(s8)
    aa94:	00000000 	nop
    aa98:	ac430000 	sw	v1,0(v0)
    aa9c:	24020002 	li	v0,2
    aaa0:	08002acd 	j	ab34 <__lo0bits+0x11c>
    aaa4:	00000000 	nop
    aaa8:	00008821 	move	s1,zero
    aaac:	3202ffff 	andi	v0,s0,0xffff
    aab0:	14400003 	bnez	v0,aac0 <__lo0bits+0xa8>
    aab4:	00000000 	nop
    aab8:	24110010 	li	s1,16
    aabc:	00108402 	srl	s0,s0,0x10
    aac0:	320200ff 	andi	v0,s0,0xff
    aac4:	14400003 	bnez	v0,aad4 <__lo0bits+0xbc>
    aac8:	00000000 	nop
    aacc:	26310008 	addiu	s1,s1,8
    aad0:	00108202 	srl	s0,s0,0x8
    aad4:	3202000f 	andi	v0,s0,0xf
    aad8:	14400003 	bnez	v0,aae8 <__lo0bits+0xd0>
    aadc:	00000000 	nop
    aae0:	26310004 	addiu	s1,s1,4
    aae4:	00108102 	srl	s0,s0,0x4
    aae8:	32020003 	andi	v0,s0,0x3
    aaec:	14400003 	bnez	v0,aafc <__lo0bits+0xe4>
    aaf0:	00000000 	nop
    aaf4:	26310002 	addiu	s1,s1,2
    aaf8:	00108082 	srl	s0,s0,0x2
    aafc:	32020001 	andi	v0,s0,0x1
    ab00:	14400008 	bnez	v0,ab24 <__lo0bits+0x10c>
    ab04:	00000000 	nop
    ab08:	26310001 	addiu	s1,s1,1
    ab0c:	00108042 	srl	s0,s0,0x1
    ab10:	16000004 	bnez	s0,ab24 <__lo0bits+0x10c>
    ab14:	00000000 	nop
    ab18:	24020020 	li	v0,32
    ab1c:	08002acd 	j	ab34 <__lo0bits+0x11c>
    ab20:	00000000 	nop
    ab24:	8fc20010 	lw	v0,16(s8)
    ab28:	00000000 	nop
    ab2c:	ac500000 	sw	s0,0(v0)
    ab30:	02201021 	move	v0,s1
    ab34:	03c0e821 	move	sp,s8
    ab38:	8fbe000c 	lw	s8,12(sp)
    ab3c:	8fb10008 	lw	s1,8(sp)
    ab40:	8fb00004 	lw	s0,4(sp)
    ab44:	27bd0010 	addiu	sp,sp,16
    ab48:	03e00008 	jr	ra
    ab4c:	00000000 	nop

0000ab50 <__i2b>:
    ab50:	27bdffe0 	addiu	sp,sp,-32
    ab54:	afbf001c 	sw	ra,28(sp)
    ab58:	afbe0018 	sw	s8,24(sp)
    ab5c:	03a0f021 	move	s8,sp
    ab60:	afc40020 	sw	a0,32(s8)
    ab64:	afc50024 	sw	a1,36(s8)
    ab68:	8fc40020 	lw	a0,32(s8)
    ab6c:	24050001 	li	a1,1
    ab70:	0c0028be 	jal	a2f8 <_Balloc>
    ab74:	00000000 	nop
    ab78:	afc20010 	sw	v0,16(s8)
    ab7c:	8fc30024 	lw	v1,36(s8)
    ab80:	8fc20010 	lw	v0,16(s8)
    ab84:	00000000 	nop
    ab88:	ac430014 	sw	v1,20(v0)
    ab8c:	8fc20010 	lw	v0,16(s8)
    ab90:	24030001 	li	v1,1
    ab94:	ac430010 	sw	v1,16(v0)
    ab98:	8fc20010 	lw	v0,16(s8)
    ab9c:	03c0e821 	move	sp,s8
    aba0:	8fbf001c 	lw	ra,28(sp)
    aba4:	8fbe0018 	lw	s8,24(sp)
    aba8:	27bd0020 	addiu	sp,sp,32
    abac:	03e00008 	jr	ra
    abb0:	00000000 	nop

0000abb4 <__multiply>:
    abb4:	27bdffa8 	addiu	sp,sp,-88
    abb8:	afbf0054 	sw	ra,84(sp)
    abbc:	afbe0050 	sw	s8,80(sp)
    abc0:	03a0f021 	move	s8,sp
    abc4:	afc40058 	sw	a0,88(s8)
    abc8:	afc5005c 	sw	a1,92(s8)
    abcc:	afc60060 	sw	a2,96(s8)
    abd0:	8fc2005c 	lw	v0,92(s8)
    abd4:	00000000 	nop
    abd8:	8c430010 	lw	v1,16(v0)
    abdc:	8fc20060 	lw	v0,96(s8)
    abe0:	00000000 	nop
    abe4:	8c420010 	lw	v0,16(v0)
    abe8:	00000000 	nop
    abec:	0062102a 	slt	v0,v1,v0
    abf0:	1040000a 	beqz	v0,ac1c <__multiply+0x68>
    abf4:	00000000 	nop
    abf8:	8fc2005c 	lw	v0,92(s8)
    abfc:	00000000 	nop
    ac00:	afc20030 	sw	v0,48(s8)
    ac04:	8fc20060 	lw	v0,96(s8)
    ac08:	00000000 	nop
    ac0c:	afc2005c 	sw	v0,92(s8)
    ac10:	8fc20030 	lw	v0,48(s8)
    ac14:	00000000 	nop
    ac18:	afc20060 	sw	v0,96(s8)
    ac1c:	8fc2005c 	lw	v0,92(s8)
    ac20:	00000000 	nop
    ac24:	8c420004 	lw	v0,4(v0)
    ac28:	00000000 	nop
    ac2c:	afc20010 	sw	v0,16(s8)
    ac30:	8fc2005c 	lw	v0,92(s8)
    ac34:	00000000 	nop
    ac38:	8c420010 	lw	v0,16(v0)
    ac3c:	00000000 	nop
    ac40:	afc20034 	sw	v0,52(s8)
    ac44:	8fc20060 	lw	v0,96(s8)
    ac48:	00000000 	nop
    ac4c:	8c420010 	lw	v0,16(v0)
    ac50:	00000000 	nop
    ac54:	afc20038 	sw	v0,56(s8)
    ac58:	8fc30034 	lw	v1,52(s8)
    ac5c:	8fc20038 	lw	v0,56(s8)
    ac60:	00000000 	nop
    ac64:	00621021 	addu	v0,v1,v0
    ac68:	afc20014 	sw	v0,20(s8)
    ac6c:	8fc2005c 	lw	v0,92(s8)
    ac70:	00000000 	nop
    ac74:	8c430008 	lw	v1,8(v0)
    ac78:	8fc20014 	lw	v0,20(s8)
    ac7c:	00000000 	nop
    ac80:	0062102a 	slt	v0,v1,v0
    ac84:	10400005 	beqz	v0,ac9c <__multiply+0xe8>
    ac88:	00000000 	nop
    ac8c:	8fc20010 	lw	v0,16(s8)
    ac90:	00000000 	nop
    ac94:	24420001 	addiu	v0,v0,1
    ac98:	afc20010 	sw	v0,16(s8)
    ac9c:	8fc40058 	lw	a0,88(s8)
    aca0:	8fc50010 	lw	a1,16(s8)
    aca4:	0c0028be 	jal	a2f8 <_Balloc>
    aca8:	00000000 	nop
    acac:	afc20030 	sw	v0,48(s8)
    acb0:	8fc20030 	lw	v0,48(s8)
    acb4:	00000000 	nop
    acb8:	24420014 	addiu	v0,v0,20
    acbc:	afc2001c 	sw	v0,28(s8)
    acc0:	8fc20014 	lw	v0,20(s8)
    acc4:	00000000 	nop
    acc8:	00021080 	sll	v0,v0,0x2
    accc:	8fc3001c 	lw	v1,28(s8)
    acd0:	00000000 	nop
    acd4:	00621021 	addu	v0,v1,v0
    acd8:	afc2003c 	sw	v0,60(s8)
    acdc:	08002b40 	j	ad00 <__multiply+0x14c>
    ace0:	00000000 	nop
    ace4:	8fc2001c 	lw	v0,28(s8)
    ace8:	00000000 	nop
    acec:	ac400000 	sw	zero,0(v0)
    acf0:	8fc2001c 	lw	v0,28(s8)
    acf4:	00000000 	nop
    acf8:	24420004 	addiu	v0,v0,4
    acfc:	afc2001c 	sw	v0,28(s8)
    ad00:	8fc3001c 	lw	v1,28(s8)
    ad04:	8fc2003c 	lw	v0,60(s8)
    ad08:	00000000 	nop
    ad0c:	0062102b 	sltu	v0,v1,v0
    ad10:	1440fff4 	bnez	v0,ace4 <__multiply+0x130>
    ad14:	00000000 	nop
    ad18:	8fc2005c 	lw	v0,92(s8)
    ad1c:	00000000 	nop
    ad20:	24420014 	addiu	v0,v0,20
    ad24:	afc2003c 	sw	v0,60(s8)
    ad28:	8fc20034 	lw	v0,52(s8)
    ad2c:	00000000 	nop
    ad30:	00021080 	sll	v0,v0,0x2
    ad34:	8fc3003c 	lw	v1,60(s8)
    ad38:	00000000 	nop
    ad3c:	00621021 	addu	v0,v1,v0
    ad40:	afc20040 	sw	v0,64(s8)
    ad44:	8fc20060 	lw	v0,96(s8)
    ad48:	00000000 	nop
    ad4c:	24420014 	addiu	v0,v0,20
    ad50:	afc20020 	sw	v0,32(s8)
    ad54:	8fc20038 	lw	v0,56(s8)
    ad58:	00000000 	nop
    ad5c:	00021080 	sll	v0,v0,0x2
    ad60:	8fc30020 	lw	v1,32(s8)
    ad64:	00000000 	nop
    ad68:	00621021 	addu	v0,v1,v0
    ad6c:	afc20044 	sw	v0,68(s8)
    ad70:	8fc20030 	lw	v0,48(s8)
    ad74:	00000000 	nop
    ad78:	24420014 	addiu	v0,v0,20
    ad7c:	afc20028 	sw	v0,40(s8)
    ad80:	08002c1d 	j	b074 <__multiply+0x4c0>
    ad84:	00000000 	nop
    ad88:	8fc20020 	lw	v0,32(s8)
    ad8c:	00000000 	nop
    ad90:	8c420000 	lw	v0,0(v0)
    ad94:	00000000 	nop
    ad98:	3042ffff 	andi	v0,v0,0xffff
    ad9c:	afc20048 	sw	v0,72(s8)
    ada0:	8fc20048 	lw	v0,72(s8)
    ada4:	00000000 	nop
    ada8:	1040004e 	beqz	v0,aee4 <__multiply+0x330>
    adac:	00000000 	nop
    adb0:	8fc2003c 	lw	v0,60(s8)
    adb4:	00000000 	nop
    adb8:	afc2001c 	sw	v0,28(s8)
    adbc:	8fc20028 	lw	v0,40(s8)
    adc0:	00000000 	nop
    adc4:	afc20024 	sw	v0,36(s8)
    adc8:	afc00018 	sw	zero,24(s8)
    adcc:	8fc2001c 	lw	v0,28(s8)
    add0:	00000000 	nop
    add4:	8c420000 	lw	v0,0(v0)
    add8:	00000000 	nop
    addc:	3043ffff 	andi	v1,v0,0xffff
    ade0:	8fc20048 	lw	v0,72(s8)
    ade4:	00000000 	nop
    ade8:	00620018 	mult	v1,v0
    adec:	00001812 	mflo	v1
    adf0:	8fc20024 	lw	v0,36(s8)
    adf4:	00000000 	nop
    adf8:	8c420000 	lw	v0,0(v0)
    adfc:	00000000 	nop
    ae00:	3042ffff 	andi	v0,v0,0xffff
    ae04:	00621821 	addu	v1,v1,v0
    ae08:	8fc20018 	lw	v0,24(s8)
    ae0c:	00000000 	nop
    ae10:	00621021 	addu	v0,v1,v0
    ae14:	afc2004c 	sw	v0,76(s8)
    ae18:	8fc2004c 	lw	v0,76(s8)
    ae1c:	00000000 	nop
    ae20:	00021402 	srl	v0,v0,0x10
    ae24:	afc20018 	sw	v0,24(s8)
    ae28:	8fc2001c 	lw	v0,28(s8)
    ae2c:	00000000 	nop
    ae30:	24430004 	addiu	v1,v0,4
    ae34:	afc3001c 	sw	v1,28(s8)
    ae38:	8c420000 	lw	v0,0(v0)
    ae3c:	00000000 	nop
    ae40:	00021c02 	srl	v1,v0,0x10
    ae44:	8fc20048 	lw	v0,72(s8)
    ae48:	00000000 	nop
    ae4c:	00620018 	mult	v1,v0
    ae50:	00001812 	mflo	v1
    ae54:	8fc20024 	lw	v0,36(s8)
    ae58:	00000000 	nop
    ae5c:	8c420000 	lw	v0,0(v0)
    ae60:	00000000 	nop
    ae64:	00021402 	srl	v0,v0,0x10
    ae68:	00621821 	addu	v1,v1,v0
    ae6c:	8fc20018 	lw	v0,24(s8)
    ae70:	00000000 	nop
    ae74:	00621021 	addu	v0,v1,v0
    ae78:	afc2002c 	sw	v0,44(s8)
    ae7c:	8fc2002c 	lw	v0,44(s8)
    ae80:	00000000 	nop
    ae84:	00021402 	srl	v0,v0,0x10
    ae88:	afc20018 	sw	v0,24(s8)
    ae8c:	8fc20024 	lw	v0,36(s8)
    ae90:	00000000 	nop
    ae94:	24430004 	addiu	v1,v0,4
    ae98:	afc30024 	sw	v1,36(s8)
    ae9c:	8fc3002c 	lw	v1,44(s8)
    aea0:	00000000 	nop
    aea4:	00032400 	sll	a0,v1,0x10
    aea8:	8fc3004c 	lw	v1,76(s8)
    aeac:	00000000 	nop
    aeb0:	3063ffff 	andi	v1,v1,0xffff
    aeb4:	00831825 	or	v1,a0,v1
    aeb8:	ac430000 	sw	v1,0(v0)
    aebc:	8fc3001c 	lw	v1,28(s8)
    aec0:	8fc20040 	lw	v0,64(s8)
    aec4:	00000000 	nop
    aec8:	0062102b 	sltu	v0,v1,v0
    aecc:	1440ffbf 	bnez	v0,adcc <__multiply+0x218>
    aed0:	00000000 	nop
    aed4:	8fc20024 	lw	v0,36(s8)
    aed8:	8fc30018 	lw	v1,24(s8)
    aedc:	00000000 	nop
    aee0:	ac430000 	sw	v1,0(v0)
    aee4:	8fc20020 	lw	v0,32(s8)
    aee8:	00000000 	nop
    aeec:	8c420000 	lw	v0,0(v0)
    aef0:	00000000 	nop
    aef4:	00021402 	srl	v0,v0,0x10
    aef8:	afc20048 	sw	v0,72(s8)
    aefc:	8fc20048 	lw	v0,72(s8)
    af00:	00000000 	nop
    af04:	10400053 	beqz	v0,b054 <__multiply+0x4a0>
    af08:	00000000 	nop
    af0c:	8fc2003c 	lw	v0,60(s8)
    af10:	00000000 	nop
    af14:	afc2001c 	sw	v0,28(s8)
    af18:	8fc20028 	lw	v0,40(s8)
    af1c:	00000000 	nop
    af20:	afc20024 	sw	v0,36(s8)
    af24:	afc00018 	sw	zero,24(s8)
    af28:	8fc20024 	lw	v0,36(s8)
    af2c:	00000000 	nop
    af30:	8c420000 	lw	v0,0(v0)
    af34:	00000000 	nop
    af38:	afc2002c 	sw	v0,44(s8)
    af3c:	8fc2001c 	lw	v0,28(s8)
    af40:	00000000 	nop
    af44:	8c420000 	lw	v0,0(v0)
    af48:	00000000 	nop
    af4c:	3043ffff 	andi	v1,v0,0xffff
    af50:	8fc20048 	lw	v0,72(s8)
    af54:	00000000 	nop
    af58:	00620018 	mult	v1,v0
    af5c:	00001812 	mflo	v1
    af60:	8fc20024 	lw	v0,36(s8)
    af64:	00000000 	nop
    af68:	8c420000 	lw	v0,0(v0)
    af6c:	00000000 	nop
    af70:	00021402 	srl	v0,v0,0x10
    af74:	00621821 	addu	v1,v1,v0
    af78:	8fc20018 	lw	v0,24(s8)
    af7c:	00000000 	nop
    af80:	00621021 	addu	v0,v1,v0
    af84:	afc2004c 	sw	v0,76(s8)
    af88:	8fc2004c 	lw	v0,76(s8)
    af8c:	00000000 	nop
    af90:	00021402 	srl	v0,v0,0x10
    af94:	afc20018 	sw	v0,24(s8)
    af98:	8fc20024 	lw	v0,36(s8)
    af9c:	00000000 	nop
    afa0:	24430004 	addiu	v1,v0,4
    afa4:	afc30024 	sw	v1,36(s8)
    afa8:	8fc3004c 	lw	v1,76(s8)
    afac:	00000000 	nop
    afb0:	00032400 	sll	a0,v1,0x10
    afb4:	8fc3002c 	lw	v1,44(s8)
    afb8:	00000000 	nop
    afbc:	3063ffff 	andi	v1,v1,0xffff
    afc0:	00831825 	or	v1,a0,v1
    afc4:	ac430000 	sw	v1,0(v0)
    afc8:	8fc2001c 	lw	v0,28(s8)
    afcc:	00000000 	nop
    afd0:	24430004 	addiu	v1,v0,4
    afd4:	afc3001c 	sw	v1,28(s8)
    afd8:	8c420000 	lw	v0,0(v0)
    afdc:	00000000 	nop
    afe0:	00021c02 	srl	v1,v0,0x10
    afe4:	8fc20048 	lw	v0,72(s8)
    afe8:	00000000 	nop
    afec:	00620018 	mult	v1,v0
    aff0:	00001812 	mflo	v1
    aff4:	8fc20024 	lw	v0,36(s8)
    aff8:	00000000 	nop
    affc:	8c420000 	lw	v0,0(v0)
    b000:	00000000 	nop
    b004:	3042ffff 	andi	v0,v0,0xffff
    b008:	00621821 	addu	v1,v1,v0
    b00c:	8fc20018 	lw	v0,24(s8)
    b010:	00000000 	nop
    b014:	00621021 	addu	v0,v1,v0
    b018:	afc2002c 	sw	v0,44(s8)
    b01c:	8fc2002c 	lw	v0,44(s8)
    b020:	00000000 	nop
    b024:	00021402 	srl	v0,v0,0x10
    b028:	afc20018 	sw	v0,24(s8)
    b02c:	8fc3001c 	lw	v1,28(s8)
    b030:	8fc20040 	lw	v0,64(s8)
    b034:	00000000 	nop
    b038:	0062102b 	sltu	v0,v1,v0
    b03c:	1440ffbf 	bnez	v0,af3c <__multiply+0x388>
    b040:	00000000 	nop
    b044:	8fc20024 	lw	v0,36(s8)
    b048:	8fc3002c 	lw	v1,44(s8)
    b04c:	00000000 	nop
    b050:	ac430000 	sw	v1,0(v0)
    b054:	8fc20020 	lw	v0,32(s8)
    b058:	00000000 	nop
    b05c:	24420004 	addiu	v0,v0,4
    b060:	afc20020 	sw	v0,32(s8)
    b064:	8fc20028 	lw	v0,40(s8)
    b068:	00000000 	nop
    b06c:	24420004 	addiu	v0,v0,4
    b070:	afc20028 	sw	v0,40(s8)
    b074:	8fc30020 	lw	v1,32(s8)
    b078:	8fc20044 	lw	v0,68(s8)
    b07c:	00000000 	nop
    b080:	0062102b 	sltu	v0,v1,v0
    b084:	1440ff40 	bnez	v0,ad88 <__multiply+0x1d4>
    b088:	00000000 	nop
    b08c:	8fc20030 	lw	v0,48(s8)
    b090:	00000000 	nop
    b094:	24420014 	addiu	v0,v0,20
    b098:	afc20028 	sw	v0,40(s8)
    b09c:	8fc20014 	lw	v0,20(s8)
    b0a0:	00000000 	nop
    b0a4:	00021080 	sll	v0,v0,0x2
    b0a8:	8fc30028 	lw	v1,40(s8)
    b0ac:	00000000 	nop
    b0b0:	00621021 	addu	v0,v1,v0
    b0b4:	afc20024 	sw	v0,36(s8)
    b0b8:	08002c34 	j	b0d0 <__multiply+0x51c>
    b0bc:	00000000 	nop
    b0c0:	8fc20014 	lw	v0,20(s8)
    b0c4:	00000000 	nop
    b0c8:	2442ffff 	addiu	v0,v0,-1
    b0cc:	afc20014 	sw	v0,20(s8)
    b0d0:	8fc20014 	lw	v0,20(s8)
    b0d4:	00000000 	nop
    b0d8:	1840000b 	blez	v0,b108 <__multiply+0x554>
    b0dc:	00000000 	nop
    b0e0:	8fc20024 	lw	v0,36(s8)
    b0e4:	00000000 	nop
    b0e8:	2442fffc 	addiu	v0,v0,-4
    b0ec:	afc20024 	sw	v0,36(s8)
    b0f0:	8fc20024 	lw	v0,36(s8)
    b0f4:	00000000 	nop
    b0f8:	8c420000 	lw	v0,0(v0)
    b0fc:	00000000 	nop
    b100:	1040ffef 	beqz	v0,b0c0 <__multiply+0x50c>
    b104:	00000000 	nop
    b108:	8fc20030 	lw	v0,48(s8)
    b10c:	8fc30014 	lw	v1,20(s8)
    b110:	00000000 	nop
    b114:	ac430010 	sw	v1,16(v0)
    b118:	8fc20030 	lw	v0,48(s8)
    b11c:	03c0e821 	move	sp,s8
    b120:	8fbf0054 	lw	ra,84(sp)
    b124:	8fbe0050 	lw	s8,80(sp)
    b128:	27bd0058 	addiu	sp,sp,88
    b12c:	03e00008 	jr	ra
    b130:	00000000 	nop

0000b134 <__pow5mult>:
    b134:	27bdffd8 	addiu	sp,sp,-40
    b138:	afbf0024 	sw	ra,36(sp)
    b13c:	afbe0020 	sw	s8,32(sp)
    b140:	03a0f021 	move	s8,sp
    b144:	afc40028 	sw	a0,40(s8)
    b148:	afc5002c 	sw	a1,44(s8)
    b14c:	afc60030 	sw	a2,48(s8)
    b150:	8fc20030 	lw	v0,48(s8)
    b154:	00000000 	nop
    b158:	30420003 	andi	v0,v0,0x3
    b15c:	afc20018 	sw	v0,24(s8)
    b160:	8fc20018 	lw	v0,24(s8)
    b164:	00000000 	nop
    b168:	10400010 	beqz	v0,b1ac <__pow5mult+0x78>
    b16c:	00000000 	nop
    b170:	8fc20018 	lw	v0,24(s8)
    b174:	00000000 	nop
    b178:	2443ffff 	addiu	v1,v0,-1
    b17c:	3c020001 	lui	v0,0x1
    b180:	00031880 	sll	v1,v1,0x2
    b184:	24424da8 	addiu	v0,v0,19880
    b188:	00621021 	addu	v0,v1,v0
    b18c:	8c420000 	lw	v0,0(v0)
    b190:	8fc40028 	lw	a0,40(s8)
    b194:	8fc5002c 	lw	a1,44(s8)
    b198:	00403021 	move	a2,v0
    b19c:	00003821 	move	a3,zero
    b1a0:	0c00294d 	jal	a534 <__multadd>
    b1a4:	00000000 	nop
    b1a8:	afc2002c 	sw	v0,44(s8)
    b1ac:	8fc20030 	lw	v0,48(s8)
    b1b0:	00000000 	nop
    b1b4:	00021083 	sra	v0,v0,0x2
    b1b8:	afc20030 	sw	v0,48(s8)
    b1bc:	8fc20030 	lw	v0,48(s8)
    b1c0:	00000000 	nop
    b1c4:	14400004 	bnez	v0,b1d8 <__pow5mult+0xa4>
    b1c8:	00000000 	nop
    b1cc:	8fc2002c 	lw	v0,44(s8)
    b1d0:	08002ccc 	j	b330 <__pow5mult+0x1fc>
    b1d4:	00000000 	nop
    b1d8:	8fc20028 	lw	v0,40(s8)
    b1dc:	00000000 	nop
    b1e0:	8c420048 	lw	v0,72(v0)
    b1e4:	00000000 	nop
    b1e8:	afc20010 	sw	v0,16(s8)
    b1ec:	8fc20010 	lw	v0,16(s8)
    b1f0:	00000000 	nop
    b1f4:	14400011 	bnez	v0,b23c <__pow5mult+0x108>
    b1f8:	00000000 	nop
    b1fc:	8fc40028 	lw	a0,40(s8)
    b200:	24050271 	li	a1,625
    b204:	0c002ad4 	jal	ab50 <__i2b>
    b208:	00000000 	nop
    b20c:	00401821 	move	v1,v0
    b210:	8fc20028 	lw	v0,40(s8)
    b214:	00000000 	nop
    b218:	ac430048 	sw	v1,72(v0)
    b21c:	8fc20028 	lw	v0,40(s8)
    b220:	00000000 	nop
    b224:	8c420048 	lw	v0,72(v0)
    b228:	00000000 	nop
    b22c:	afc20010 	sw	v0,16(s8)
    b230:	8fc20010 	lw	v0,16(s8)
    b234:	00000000 	nop
    b238:	ac400000 	sw	zero,0(v0)
    b23c:	8fc20030 	lw	v0,48(s8)
    b240:	00000000 	nop
    b244:	30420001 	andi	v0,v0,0x1
    b248:	1040000e 	beqz	v0,b284 <__pow5mult+0x150>
    b24c:	00000000 	nop
    b250:	8fc40028 	lw	a0,40(s8)
    b254:	8fc5002c 	lw	a1,44(s8)
    b258:	8fc60010 	lw	a2,16(s8)
    b25c:	0c002aed 	jal	abb4 <__multiply>
    b260:	00000000 	nop
    b264:	afc2001c 	sw	v0,28(s8)
    b268:	8fc40028 	lw	a0,40(s8)
    b26c:	8fc5002c 	lw	a1,44(s8)
    b270:	0c002926 	jal	a498 <_Bfree>
    b274:	00000000 	nop
    b278:	8fc2001c 	lw	v0,28(s8)
    b27c:	00000000 	nop
    b280:	afc2002c 	sw	v0,44(s8)
    b284:	8fc20030 	lw	v0,48(s8)
    b288:	00000000 	nop
    b28c:	00021043 	sra	v0,v0,0x1
    b290:	afc20030 	sw	v0,48(s8)
    b294:	8fc20030 	lw	v0,48(s8)
    b298:	00000000 	nop
    b29c:	14400005 	bnez	v0,b2b4 <__pow5mult+0x180>
    b2a0:	00000000 	nop
    b2a4:	00000000 	nop
    b2a8:	8fc2002c 	lw	v0,44(s8)
    b2ac:	08002ccc 	j	b330 <__pow5mult+0x1fc>
    b2b0:	00000000 	nop
    b2b4:	8fc20010 	lw	v0,16(s8)
    b2b8:	00000000 	nop
    b2bc:	8c420000 	lw	v0,0(v0)
    b2c0:	00000000 	nop
    b2c4:	afc20014 	sw	v0,20(s8)
    b2c8:	8fc20014 	lw	v0,20(s8)
    b2cc:	00000000 	nop
    b2d0:	14400012 	bnez	v0,b31c <__pow5mult+0x1e8>
    b2d4:	00000000 	nop
    b2d8:	8fc40028 	lw	a0,40(s8)
    b2dc:	8fc50010 	lw	a1,16(s8)
    b2e0:	8fc60010 	lw	a2,16(s8)
    b2e4:	0c002aed 	jal	abb4 <__multiply>
    b2e8:	00000000 	nop
    b2ec:	00401821 	move	v1,v0
    b2f0:	8fc20010 	lw	v0,16(s8)
    b2f4:	00000000 	nop
    b2f8:	ac430000 	sw	v1,0(v0)
    b2fc:	8fc20010 	lw	v0,16(s8)
    b300:	00000000 	nop
    b304:	8c420000 	lw	v0,0(v0)
    b308:	00000000 	nop
    b30c:	afc20014 	sw	v0,20(s8)
    b310:	8fc20014 	lw	v0,20(s8)
    b314:	00000000 	nop
    b318:	ac400000 	sw	zero,0(v0)
    b31c:	8fc20014 	lw	v0,20(s8)
    b320:	00000000 	nop
    b324:	afc20010 	sw	v0,16(s8)
    b328:	08002c8f 	j	b23c <__pow5mult+0x108>
    b32c:	00000000 	nop
    b330:	03c0e821 	move	sp,s8
    b334:	8fbf0024 	lw	ra,36(sp)
    b338:	8fbe0020 	lw	s8,32(sp)
    b33c:	27bd0028 	addiu	sp,sp,40
    b340:	03e00008 	jr	ra
    b344:	00000000 	nop

0000b348 <__lshift>:
    b348:	27bdffc0 	addiu	sp,sp,-64
    b34c:	afbf003c 	sw	ra,60(sp)
    b350:	afbe0038 	sw	s8,56(sp)
    b354:	03a0f021 	move	s8,sp
    b358:	afc40040 	sw	a0,64(s8)
    b35c:	afc50044 	sw	a1,68(s8)
    b360:	afc60048 	sw	a2,72(s8)
    b364:	8fc20048 	lw	v0,72(s8)
    b368:	00000000 	nop
    b36c:	00021143 	sra	v0,v0,0x5
    b370:	afc20028 	sw	v0,40(s8)
    b374:	8fc20044 	lw	v0,68(s8)
    b378:	00000000 	nop
    b37c:	8c420004 	lw	v0,4(v0)
    b380:	00000000 	nop
    b384:	afc20014 	sw	v0,20(s8)
    b388:	8fc20044 	lw	v0,68(s8)
    b38c:	00000000 	nop
    b390:	8c430010 	lw	v1,16(v0)
    b394:	8fc20028 	lw	v0,40(s8)
    b398:	00000000 	nop
    b39c:	00621021 	addu	v0,v1,v0
    b3a0:	24420001 	addiu	v0,v0,1
    b3a4:	afc20018 	sw	v0,24(s8)
    b3a8:	8fc20044 	lw	v0,68(s8)
    b3ac:	00000000 	nop
    b3b0:	8c420008 	lw	v0,8(v0)
    b3b4:	00000000 	nop
    b3b8:	afc20010 	sw	v0,16(s8)
    b3bc:	08002cf9 	j	b3e4 <__lshift+0x9c>
    b3c0:	00000000 	nop
    b3c4:	8fc20014 	lw	v0,20(s8)
    b3c8:	00000000 	nop
    b3cc:	24420001 	addiu	v0,v0,1
    b3d0:	afc20014 	sw	v0,20(s8)
    b3d4:	8fc20010 	lw	v0,16(s8)
    b3d8:	00000000 	nop
    b3dc:	00021040 	sll	v0,v0,0x1
    b3e0:	afc20010 	sw	v0,16(s8)
    b3e4:	8fc30018 	lw	v1,24(s8)
    b3e8:	8fc20010 	lw	v0,16(s8)
    b3ec:	00000000 	nop
    b3f0:	0043102a 	slt	v0,v0,v1
    b3f4:	1440fff3 	bnez	v0,b3c4 <__lshift+0x7c>
    b3f8:	00000000 	nop
    b3fc:	8fc40040 	lw	a0,64(s8)
    b400:	8fc50014 	lw	a1,20(s8)
    b404:	0c0028be 	jal	a2f8 <_Balloc>
    b408:	00000000 	nop
    b40c:	afc2002c 	sw	v0,44(s8)
    b410:	8fc2002c 	lw	v0,44(s8)
    b414:	00000000 	nop
    b418:	24420014 	addiu	v0,v0,20
    b41c:	afc20020 	sw	v0,32(s8)
    b420:	afc00010 	sw	zero,16(s8)
    b424:	08002d14 	j	b450 <__lshift+0x108>
    b428:	00000000 	nop
    b42c:	8fc20020 	lw	v0,32(s8)
    b430:	00000000 	nop
    b434:	24430004 	addiu	v1,v0,4
    b438:	afc30020 	sw	v1,32(s8)
    b43c:	ac400000 	sw	zero,0(v0)
    b440:	8fc20010 	lw	v0,16(s8)
    b444:	00000000 	nop
    b448:	24420001 	addiu	v0,v0,1
    b44c:	afc20010 	sw	v0,16(s8)
    b450:	8fc30010 	lw	v1,16(s8)
    b454:	8fc20028 	lw	v0,40(s8)
    b458:	00000000 	nop
    b45c:	0062102a 	slt	v0,v1,v0
    b460:	1440fff2 	bnez	v0,b42c <__lshift+0xe4>
    b464:	00000000 	nop
    b468:	8fc20044 	lw	v0,68(s8)
    b46c:	00000000 	nop
    b470:	24420014 	addiu	v0,v0,20
    b474:	afc2001c 	sw	v0,28(s8)
    b478:	8fc20044 	lw	v0,68(s8)
    b47c:	00000000 	nop
    b480:	8c420010 	lw	v0,16(v0)
    b484:	00000000 	nop
    b488:	00021080 	sll	v0,v0,0x2
    b48c:	8fc3001c 	lw	v1,28(s8)
    b490:	00000000 	nop
    b494:	00621021 	addu	v0,v1,v0
    b498:	afc20030 	sw	v0,48(s8)
    b49c:	8fc20048 	lw	v0,72(s8)
    b4a0:	00000000 	nop
    b4a4:	3042001f 	andi	v0,v0,0x1f
    b4a8:	afc20048 	sw	v0,72(s8)
    b4ac:	8fc20048 	lw	v0,72(s8)
    b4b0:	00000000 	nop
    b4b4:	10400034 	beqz	v0,b588 <__lshift+0x240>
    b4b8:	00000000 	nop
    b4bc:	24030020 	li	v1,32
    b4c0:	8fc20048 	lw	v0,72(s8)
    b4c4:	00000000 	nop
    b4c8:	00621023 	subu	v0,v1,v0
    b4cc:	afc20014 	sw	v0,20(s8)
    b4d0:	afc00024 	sw	zero,36(s8)
    b4d4:	8fc20020 	lw	v0,32(s8)
    b4d8:	00000000 	nop
    b4dc:	24430004 	addiu	v1,v0,4
    b4e0:	afc30020 	sw	v1,32(s8)
    b4e4:	8fc3001c 	lw	v1,28(s8)
    b4e8:	00000000 	nop
    b4ec:	8c640000 	lw	a0,0(v1)
    b4f0:	8fc30048 	lw	v1,72(s8)
    b4f4:	00000000 	nop
    b4f8:	00642004 	sllv	a0,a0,v1
    b4fc:	8fc30024 	lw	v1,36(s8)
    b500:	00000000 	nop
    b504:	00831825 	or	v1,a0,v1
    b508:	ac430000 	sw	v1,0(v0)
    b50c:	8fc2001c 	lw	v0,28(s8)
    b510:	00000000 	nop
    b514:	24430004 	addiu	v1,v0,4
    b518:	afc3001c 	sw	v1,28(s8)
    b51c:	8c430000 	lw	v1,0(v0)
    b520:	8fc20014 	lw	v0,20(s8)
    b524:	00000000 	nop
    b528:	00431006 	srlv	v0,v1,v0
    b52c:	afc20024 	sw	v0,36(s8)
    b530:	8fc3001c 	lw	v1,28(s8)
    b534:	8fc20030 	lw	v0,48(s8)
    b538:	00000000 	nop
    b53c:	0062102b 	sltu	v0,v1,v0
    b540:	1440ffe4 	bnez	v0,b4d4 <__lshift+0x18c>
    b544:	00000000 	nop
    b548:	8fc20020 	lw	v0,32(s8)
    b54c:	8fc30024 	lw	v1,36(s8)
    b550:	00000000 	nop
    b554:	ac430000 	sw	v1,0(v0)
    b558:	8fc20020 	lw	v0,32(s8)
    b55c:	00000000 	nop
    b560:	8c420000 	lw	v0,0(v0)
    b564:	00000000 	nop
    b568:	10400018 	beqz	v0,b5cc <__lshift+0x284>
    b56c:	00000000 	nop
    b570:	8fc20018 	lw	v0,24(s8)
    b574:	00000000 	nop
    b578:	24420001 	addiu	v0,v0,1
    b57c:	afc20018 	sw	v0,24(s8)
    b580:	08002d73 	j	b5cc <__lshift+0x284>
    b584:	00000000 	nop
    b588:	8fc20020 	lw	v0,32(s8)
    b58c:	00000000 	nop
    b590:	24430004 	addiu	v1,v0,4
    b594:	afc30020 	sw	v1,32(s8)
    b598:	8fc3001c 	lw	v1,28(s8)
    b59c:	00000000 	nop
    b5a0:	24640004 	addiu	a0,v1,4
    b5a4:	afc4001c 	sw	a0,28(s8)
    b5a8:	8c630000 	lw	v1,0(v1)
    b5ac:	00000000 	nop
    b5b0:	ac430000 	sw	v1,0(v0)
    b5b4:	8fc3001c 	lw	v1,28(s8)
    b5b8:	8fc20030 	lw	v0,48(s8)
    b5bc:	00000000 	nop
    b5c0:	0062102b 	sltu	v0,v1,v0
    b5c4:	1440fff0 	bnez	v0,b588 <__lshift+0x240>
    b5c8:	00000000 	nop
    b5cc:	8fc20018 	lw	v0,24(s8)
    b5d0:	00000000 	nop
    b5d4:	2443ffff 	addiu	v1,v0,-1
    b5d8:	8fc2002c 	lw	v0,44(s8)
    b5dc:	00000000 	nop
    b5e0:	ac430010 	sw	v1,16(v0)
    b5e4:	8fc40040 	lw	a0,64(s8)
    b5e8:	8fc50044 	lw	a1,68(s8)
    b5ec:	0c002926 	jal	a498 <_Bfree>
    b5f0:	00000000 	nop
    b5f4:	8fc2002c 	lw	v0,44(s8)
    b5f8:	03c0e821 	move	sp,s8
    b5fc:	8fbf003c 	lw	ra,60(sp)
    b600:	8fbe0038 	lw	s8,56(sp)
    b604:	27bd0040 	addiu	sp,sp,64
    b608:	03e00008 	jr	ra
    b60c:	00000000 	nop

0000b610 <__mcmp>:
    b610:	27bdffe0 	addiu	sp,sp,-32
    b614:	afbe001c 	sw	s8,28(sp)
    b618:	03a0f021 	move	s8,sp
    b61c:	afc40020 	sw	a0,32(s8)
    b620:	afc50024 	sw	a1,36(s8)
    b624:	8fc20020 	lw	v0,32(s8)
    b628:	00000000 	nop
    b62c:	8c420010 	lw	v0,16(v0)
    b630:	00000000 	nop
    b634:	afc20008 	sw	v0,8(s8)
    b638:	8fc20024 	lw	v0,36(s8)
    b63c:	00000000 	nop
    b640:	8c420010 	lw	v0,16(v0)
    b644:	00000000 	nop
    b648:	afc2000c 	sw	v0,12(s8)
    b64c:	8fc30008 	lw	v1,8(s8)
    b650:	8fc2000c 	lw	v0,12(s8)
    b654:	00000000 	nop
    b658:	00621023 	subu	v0,v1,v0
    b65c:	afc20008 	sw	v0,8(s8)
    b660:	8fc20008 	lw	v0,8(s8)
    b664:	00000000 	nop
    b668:	10400004 	beqz	v0,b67c <__mcmp+0x6c>
    b66c:	00000000 	nop
    b670:	8fc20008 	lw	v0,8(s8)
    b674:	08002de2 	j	b788 <__mcmp+0x178>
    b678:	00000000 	nop
    b67c:	8fc20020 	lw	v0,32(s8)
    b680:	00000000 	nop
    b684:	24420014 	addiu	v0,v0,20
    b688:	afc20010 	sw	v0,16(s8)
    b68c:	8fc2000c 	lw	v0,12(s8)
    b690:	00000000 	nop
    b694:	00021080 	sll	v0,v0,0x2
    b698:	8fc30010 	lw	v1,16(s8)
    b69c:	00000000 	nop
    b6a0:	00621021 	addu	v0,v1,v0
    b6a4:	afc20000 	sw	v0,0(s8)
    b6a8:	8fc20024 	lw	v0,36(s8)
    b6ac:	00000000 	nop
    b6b0:	24420014 	addiu	v0,v0,20
    b6b4:	afc20014 	sw	v0,20(s8)
    b6b8:	8fc2000c 	lw	v0,12(s8)
    b6bc:	00000000 	nop
    b6c0:	00021080 	sll	v0,v0,0x2
    b6c4:	8fc30014 	lw	v1,20(s8)
    b6c8:	00000000 	nop
    b6cc:	00621021 	addu	v0,v1,v0
    b6d0:	afc20004 	sw	v0,4(s8)
    b6d4:	8fc20000 	lw	v0,0(s8)
    b6d8:	00000000 	nop
    b6dc:	2442fffc 	addiu	v0,v0,-4
    b6e0:	afc20000 	sw	v0,0(s8)
    b6e4:	8fc20000 	lw	v0,0(s8)
    b6e8:	00000000 	nop
    b6ec:	8c430000 	lw	v1,0(v0)
    b6f0:	8fc20004 	lw	v0,4(s8)
    b6f4:	00000000 	nop
    b6f8:	2442fffc 	addiu	v0,v0,-4
    b6fc:	afc20004 	sw	v0,4(s8)
    b700:	8fc20004 	lw	v0,4(s8)
    b704:	00000000 	nop
    b708:	8c420000 	lw	v0,0(v0)
    b70c:	00000000 	nop
    b710:	10620011 	beq	v1,v0,b758 <__mcmp+0x148>
    b714:	00000000 	nop
    b718:	8fc20000 	lw	v0,0(s8)
    b71c:	00000000 	nop
    b720:	8c430000 	lw	v1,0(v0)
    b724:	8fc20004 	lw	v0,4(s8)
    b728:	00000000 	nop
    b72c:	8c420000 	lw	v0,0(v0)
    b730:	00000000 	nop
    b734:	0062102b 	sltu	v0,v1,v0
    b738:	10400004 	beqz	v0,b74c <__mcmp+0x13c>
    b73c:	00000000 	nop
    b740:	2402ffff 	li	v0,-1
    b744:	08002dd4 	j	b750 <__mcmp+0x140>
    b748:	00000000 	nop
    b74c:	24020001 	li	v0,1
    b750:	08002de2 	j	b788 <__mcmp+0x178>
    b754:	00000000 	nop
    b758:	8fc30000 	lw	v1,0(s8)
    b75c:	8fc20010 	lw	v0,16(s8)
    b760:	00000000 	nop
    b764:	0043102b 	sltu	v0,v0,v1
    b768:	14400005 	bnez	v0,b780 <__mcmp+0x170>
    b76c:	00000000 	nop
    b770:	00000000 	nop
    b774:	00001021 	move	v0,zero
    b778:	08002de2 	j	b788 <__mcmp+0x178>
    b77c:	00000000 	nop
    b780:	08002db5 	j	b6d4 <__mcmp+0xc4>
    b784:	00000000 	nop
    b788:	03c0e821 	move	sp,s8
    b78c:	8fbe001c 	lw	s8,28(sp)
    b790:	27bd0020 	addiu	sp,sp,32
    b794:	03e00008 	jr	ra
    b798:	00000000 	nop

0000b79c <__mdiff>:
    b79c:	27bdffb8 	addiu	sp,sp,-72
    b7a0:	afbf0044 	sw	ra,68(sp)
    b7a4:	afbe0040 	sw	s8,64(sp)
    b7a8:	03a0f021 	move	s8,sp
    b7ac:	afc40048 	sw	a0,72(s8)
    b7b0:	afc5004c 	sw	a1,76(s8)
    b7b4:	afc60050 	sw	a2,80(s8)
    b7b8:	8fc4004c 	lw	a0,76(s8)
    b7bc:	8fc50050 	lw	a1,80(s8)
    b7c0:	0c002d84 	jal	b610 <__mcmp>
    b7c4:	00000000 	nop
    b7c8:	afc20010 	sw	v0,16(s8)
    b7cc:	8fc20010 	lw	v0,16(s8)
    b7d0:	00000000 	nop
    b7d4:	1440000f 	bnez	v0,b814 <__mdiff+0x78>
    b7d8:	00000000 	nop
    b7dc:	8fc40048 	lw	a0,72(s8)
    b7e0:	00002821 	move	a1,zero
    b7e4:	0c0028be 	jal	a2f8 <_Balloc>
    b7e8:	00000000 	nop
    b7ec:	afc20028 	sw	v0,40(s8)
    b7f0:	8fc20028 	lw	v0,40(s8)
    b7f4:	24030001 	li	v1,1
    b7f8:	ac430010 	sw	v1,16(v0)
    b7fc:	8fc20028 	lw	v0,40(s8)
    b800:	00000000 	nop
    b804:	ac400014 	sw	zero,20(v0)
    b808:	8fc20028 	lw	v0,40(s8)
    b80c:	08002ec9 	j	bb24 <__mdiff+0x388>
    b810:	00000000 	nop
    b814:	8fc20010 	lw	v0,16(s8)
    b818:	00000000 	nop
    b81c:	0441000e 	bgez	v0,b858 <__mdiff+0xbc>
    b820:	00000000 	nop
    b824:	8fc2004c 	lw	v0,76(s8)
    b828:	00000000 	nop
    b82c:	afc20028 	sw	v0,40(s8)
    b830:	8fc20050 	lw	v0,80(s8)
    b834:	00000000 	nop
    b838:	afc2004c 	sw	v0,76(s8)
    b83c:	8fc20028 	lw	v0,40(s8)
    b840:	00000000 	nop
    b844:	afc20050 	sw	v0,80(s8)
    b848:	24020001 	li	v0,1
    b84c:	afc20010 	sw	v0,16(s8)
    b850:	08002e17 	j	b85c <__mdiff+0xc0>
    b854:	00000000 	nop
    b858:	afc00010 	sw	zero,16(s8)
    b85c:	8fc2004c 	lw	v0,76(s8)
    b860:	00000000 	nop
    b864:	8c420004 	lw	v0,4(v0)
    b868:	8fc40048 	lw	a0,72(s8)
    b86c:	00402821 	move	a1,v0
    b870:	0c0028be 	jal	a2f8 <_Balloc>
    b874:	00000000 	nop
    b878:	afc20028 	sw	v0,40(s8)
    b87c:	8fc20028 	lw	v0,40(s8)
    b880:	8fc30010 	lw	v1,16(s8)
    b884:	00000000 	nop
    b888:	ac43000c 	sw	v1,12(v0)
    b88c:	8fc2004c 	lw	v0,76(s8)
    b890:	00000000 	nop
    b894:	8c420010 	lw	v0,16(v0)
    b898:	00000000 	nop
    b89c:	afc20014 	sw	v0,20(s8)
    b8a0:	8fc2004c 	lw	v0,76(s8)
    b8a4:	00000000 	nop
    b8a8:	24420014 	addiu	v0,v0,20
    b8ac:	afc2001c 	sw	v0,28(s8)
    b8b0:	8fc20014 	lw	v0,20(s8)
    b8b4:	00000000 	nop
    b8b8:	00021080 	sll	v0,v0,0x2
    b8bc:	8fc3001c 	lw	v1,28(s8)
    b8c0:	00000000 	nop
    b8c4:	00621021 	addu	v0,v1,v0
    b8c8:	afc2002c 	sw	v0,44(s8)
    b8cc:	8fc20050 	lw	v0,80(s8)
    b8d0:	00000000 	nop
    b8d4:	8c420010 	lw	v0,16(v0)
    b8d8:	00000000 	nop
    b8dc:	afc20030 	sw	v0,48(s8)
    b8e0:	8fc20050 	lw	v0,80(s8)
    b8e4:	00000000 	nop
    b8e8:	24420014 	addiu	v0,v0,20
    b8ec:	afc20020 	sw	v0,32(s8)
    b8f0:	8fc20030 	lw	v0,48(s8)
    b8f4:	00000000 	nop
    b8f8:	00021080 	sll	v0,v0,0x2
    b8fc:	8fc30020 	lw	v1,32(s8)
    b900:	00000000 	nop
    b904:	00621021 	addu	v0,v1,v0
    b908:	afc20034 	sw	v0,52(s8)
    b90c:	8fc20028 	lw	v0,40(s8)
    b910:	00000000 	nop
    b914:	24420014 	addiu	v0,v0,20
    b918:	afc20024 	sw	v0,36(s8)
    b91c:	afc00018 	sw	zero,24(s8)
    b920:	8fc2001c 	lw	v0,28(s8)
    b924:	00000000 	nop
    b928:	8c420000 	lw	v0,0(v0)
    b92c:	00000000 	nop
    b930:	3043ffff 	andi	v1,v0,0xffff
    b934:	8fc20020 	lw	v0,32(s8)
    b938:	00000000 	nop
    b93c:	8c420000 	lw	v0,0(v0)
    b940:	00000000 	nop
    b944:	3042ffff 	andi	v0,v0,0xffff
    b948:	00621823 	subu	v1,v1,v0
    b94c:	8fc20018 	lw	v0,24(s8)
    b950:	00000000 	nop
    b954:	00621021 	addu	v0,v1,v0
    b958:	afc20038 	sw	v0,56(s8)
    b95c:	8fc20038 	lw	v0,56(s8)
    b960:	00000000 	nop
    b964:	00021403 	sra	v0,v0,0x10
    b968:	afc20018 	sw	v0,24(s8)
    b96c:	8fc2001c 	lw	v0,28(s8)
    b970:	00000000 	nop
    b974:	24430004 	addiu	v1,v0,4
    b978:	afc3001c 	sw	v1,28(s8)
    b97c:	8c420000 	lw	v0,0(v0)
    b980:	00000000 	nop
    b984:	00021c02 	srl	v1,v0,0x10
    b988:	8fc20020 	lw	v0,32(s8)
    b98c:	00000000 	nop
    b990:	24440004 	addiu	a0,v0,4
    b994:	afc40020 	sw	a0,32(s8)
    b998:	8c420000 	lw	v0,0(v0)
    b99c:	00000000 	nop
    b9a0:	00021402 	srl	v0,v0,0x10
    b9a4:	00621823 	subu	v1,v1,v0
    b9a8:	8fc20018 	lw	v0,24(s8)
    b9ac:	00000000 	nop
    b9b0:	00621021 	addu	v0,v1,v0
    b9b4:	afc2003c 	sw	v0,60(s8)
    b9b8:	8fc2003c 	lw	v0,60(s8)
    b9bc:	00000000 	nop
    b9c0:	00021403 	sra	v0,v0,0x10
    b9c4:	afc20018 	sw	v0,24(s8)
    b9c8:	8fc20024 	lw	v0,36(s8)
    b9cc:	00000000 	nop
    b9d0:	24430004 	addiu	v1,v0,4
    b9d4:	afc30024 	sw	v1,36(s8)
    b9d8:	8fc3003c 	lw	v1,60(s8)
    b9dc:	00000000 	nop
    b9e0:	00032400 	sll	a0,v1,0x10
    b9e4:	8fc30038 	lw	v1,56(s8)
    b9e8:	00000000 	nop
    b9ec:	3063ffff 	andi	v1,v1,0xffff
    b9f0:	00831825 	or	v1,a0,v1
    b9f4:	ac430000 	sw	v1,0(v0)
    b9f8:	8fc30020 	lw	v1,32(s8)
    b9fc:	8fc20034 	lw	v0,52(s8)
    ba00:	00000000 	nop
    ba04:	0062102b 	sltu	v0,v1,v0
    ba08:	1440ffc5 	bnez	v0,b920 <__mdiff+0x184>
    ba0c:	00000000 	nop
    ba10:	08002eae 	j	bab8 <__mdiff+0x31c>
    ba14:	00000000 	nop
    ba18:	8fc2001c 	lw	v0,28(s8)
    ba1c:	00000000 	nop
    ba20:	8c420000 	lw	v0,0(v0)
    ba24:	00000000 	nop
    ba28:	3043ffff 	andi	v1,v0,0xffff
    ba2c:	8fc20018 	lw	v0,24(s8)
    ba30:	00000000 	nop
    ba34:	00621021 	addu	v0,v1,v0
    ba38:	afc20038 	sw	v0,56(s8)
    ba3c:	8fc20038 	lw	v0,56(s8)
    ba40:	00000000 	nop
    ba44:	00021403 	sra	v0,v0,0x10
    ba48:	afc20018 	sw	v0,24(s8)
    ba4c:	8fc2001c 	lw	v0,28(s8)
    ba50:	00000000 	nop
    ba54:	24430004 	addiu	v1,v0,4
    ba58:	afc3001c 	sw	v1,28(s8)
    ba5c:	8c420000 	lw	v0,0(v0)
    ba60:	00000000 	nop
    ba64:	00021c02 	srl	v1,v0,0x10
    ba68:	8fc20018 	lw	v0,24(s8)
    ba6c:	00000000 	nop
    ba70:	00621021 	addu	v0,v1,v0
    ba74:	afc2003c 	sw	v0,60(s8)
    ba78:	8fc2003c 	lw	v0,60(s8)
    ba7c:	00000000 	nop
    ba80:	00021403 	sra	v0,v0,0x10
    ba84:	afc20018 	sw	v0,24(s8)
    ba88:	8fc20024 	lw	v0,36(s8)
    ba8c:	00000000 	nop
    ba90:	24430004 	addiu	v1,v0,4
    ba94:	afc30024 	sw	v1,36(s8)
    ba98:	8fc3003c 	lw	v1,60(s8)
    ba9c:	00000000 	nop
    baa0:	00032400 	sll	a0,v1,0x10
    baa4:	8fc30038 	lw	v1,56(s8)
    baa8:	00000000 	nop
    baac:	3063ffff 	andi	v1,v1,0xffff
    bab0:	00831825 	or	v1,a0,v1
    bab4:	ac430000 	sw	v1,0(v0)
    bab8:	8fc3001c 	lw	v1,28(s8)
    babc:	8fc2002c 	lw	v0,44(s8)
    bac0:	00000000 	nop
    bac4:	0062102b 	sltu	v0,v1,v0
    bac8:	1440ffd3 	bnez	v0,ba18 <__mdiff+0x27c>
    bacc:	00000000 	nop
    bad0:	08002eba 	j	bae8 <__mdiff+0x34c>
    bad4:	00000000 	nop
    bad8:	8fc20014 	lw	v0,20(s8)
    badc:	00000000 	nop
    bae0:	2442ffff 	addiu	v0,v0,-1
    bae4:	afc20014 	sw	v0,20(s8)
    bae8:	8fc20024 	lw	v0,36(s8)
    baec:	00000000 	nop
    baf0:	2442fffc 	addiu	v0,v0,-4
    baf4:	afc20024 	sw	v0,36(s8)
    baf8:	8fc20024 	lw	v0,36(s8)
    bafc:	00000000 	nop
    bb00:	8c420000 	lw	v0,0(v0)
    bb04:	00000000 	nop
    bb08:	1040fff3 	beqz	v0,bad8 <__mdiff+0x33c>
    bb0c:	00000000 	nop
    bb10:	8fc20028 	lw	v0,40(s8)
    bb14:	8fc30014 	lw	v1,20(s8)
    bb18:	00000000 	nop
    bb1c:	ac430010 	sw	v1,16(v0)
    bb20:	8fc20028 	lw	v0,40(s8)
    bb24:	03c0e821 	move	sp,s8
    bb28:	8fbf0044 	lw	ra,68(sp)
    bb2c:	8fbe0040 	lw	s8,64(sp)
    bb30:	27bd0048 	addiu	sp,sp,72
    bb34:	03e00008 	jr	ra
    bb38:	00000000 	nop

0000bb3c <__ulp>:
    bb3c:	27bdffe8 	addiu	sp,sp,-24
    bb40:	afbe0014 	sw	s8,20(sp)
    bb44:	afb00010 	sw	s0,16(sp)
    bb48:	03a0f021 	move	s8,sp
    bb4c:	afc5001c 	sw	a1,28(s8)
    bb50:	afc40018 	sw	a0,24(s8)
    bb54:	8fc3001c 	lw	v1,28(s8)
    bb58:	8fc20018 	lw	v0,24(s8)
    bb5c:	afc30004 	sw	v1,4(s8)
    bb60:	afc20000 	sw	v0,0(s8)
    bb64:	8fc30000 	lw	v1,0(s8)
    bb68:	3c027ff0 	lui	v0,0x7ff0
    bb6c:	00621824 	and	v1,v1,v0
    bb70:	3c02fcc0 	lui	v0,0xfcc0
    bb74:	00621021 	addu	v0,v1,v0
    bb78:	00408021 	move	s0,v0
    bb7c:	1a000006 	blez	s0,bb98 <__ulp+0x5c>
    bb80:	00000000 	nop
    bb84:	02001021 	move	v0,s0
    bb88:	afc20008 	sw	v0,8(s8)
    bb8c:	afc0000c 	sw	zero,12(s8)
    bb90:	08002efe 	j	bbf8 <__ulp+0xbc>
    bb94:	00000000 	nop
    bb98:	00101023 	negu	v0,s0
    bb9c:	00028503 	sra	s0,v0,0x14
    bba0:	2a020014 	slti	v0,s0,20
    bba4:	10400007 	beqz	v0,bbc4 <__ulp+0x88>
    bba8:	00000000 	nop
    bbac:	3c020008 	lui	v0,0x8
    bbb0:	02021007 	srav	v0,v0,s0
    bbb4:	afc20008 	sw	v0,8(s8)
    bbb8:	afc0000c 	sw	zero,12(s8)
    bbbc:	08002efe 	j	bbf8 <__ulp+0xbc>
    bbc0:	00000000 	nop
    bbc4:	afc00008 	sw	zero,8(s8)
    bbc8:	2610ffec 	addiu	s0,s0,-20
    bbcc:	2a02001f 	slti	v0,s0,31
    bbd0:	10400007 	beqz	v0,bbf0 <__ulp+0xb4>
    bbd4:	00000000 	nop
    bbd8:	2402001f 	li	v0,31
    bbdc:	00501023 	subu	v0,v0,s0
    bbe0:	24030001 	li	v1,1
    bbe4:	00431004 	sllv	v0,v1,v0
    bbe8:	08002efd 	j	bbf4 <__ulp+0xb8>
    bbec:	00000000 	nop
    bbf0:	24020001 	li	v0,1
    bbf4:	afc2000c 	sw	v0,12(s8)
    bbf8:	8fc3000c 	lw	v1,12(s8)
    bbfc:	8fc20008 	lw	v0,8(s8)
    bc00:	03c0e821 	move	sp,s8
    bc04:	8fbe0014 	lw	s8,20(sp)
    bc08:	8fb00010 	lw	s0,16(sp)
    bc0c:	27bd0018 	addiu	sp,sp,24
    bc10:	03e00008 	jr	ra
    bc14:	00000000 	nop

0000bc18 <__b2d>:
    bc18:	27bdffc8 	addiu	sp,sp,-56
    bc1c:	afbf0034 	sw	ra,52(sp)
    bc20:	afbe0030 	sw	s8,48(sp)
    bc24:	03a0f021 	move	s8,sp
    bc28:	afc40038 	sw	a0,56(s8)
    bc2c:	afc5003c 	sw	a1,60(s8)
    bc30:	8fc20038 	lw	v0,56(s8)
    bc34:	00000000 	nop
    bc38:	24420014 	addiu	v0,v0,20
    bc3c:	afc20014 	sw	v0,20(s8)
    bc40:	8fc20038 	lw	v0,56(s8)
    bc44:	00000000 	nop
    bc48:	8c420010 	lw	v0,16(v0)
    bc4c:	00000000 	nop
    bc50:	00021080 	sll	v0,v0,0x2
    bc54:	8fc30014 	lw	v1,20(s8)
    bc58:	00000000 	nop
    bc5c:	00621021 	addu	v0,v1,v0
    bc60:	afc20010 	sw	v0,16(s8)
    bc64:	8fc20010 	lw	v0,16(s8)
    bc68:	00000000 	nop
    bc6c:	2442fffc 	addiu	v0,v0,-4
    bc70:	afc20010 	sw	v0,16(s8)
    bc74:	8fc20010 	lw	v0,16(s8)
    bc78:	00000000 	nop
    bc7c:	8c420000 	lw	v0,0(v0)
    bc80:	00000000 	nop
    bc84:	afc20018 	sw	v0,24(s8)
    bc88:	8fc40018 	lw	a0,24(s8)
    bc8c:	0c002a56 	jal	a958 <__hi0bits>
    bc90:	00000000 	nop
    bc94:	afc2001c 	sw	v0,28(s8)
    bc98:	24030020 	li	v1,32
    bc9c:	8fc2001c 	lw	v0,28(s8)
    bca0:	00000000 	nop
    bca4:	00621823 	subu	v1,v1,v0
    bca8:	8fc2003c 	lw	v0,60(s8)
    bcac:	00000000 	nop
    bcb0:	ac430000 	sw	v1,0(v0)
    bcb4:	8fc2001c 	lw	v0,28(s8)
    bcb8:	00000000 	nop
    bcbc:	2842000b 	slti	v0,v0,11
    bcc0:	1040002d 	beqz	v0,bd78 <__b2d+0x160>
    bcc4:	00000000 	nop
    bcc8:	2403000b 	li	v1,11
    bccc:	8fc2001c 	lw	v0,28(s8)
    bcd0:	00000000 	nop
    bcd4:	00621023 	subu	v0,v1,v0
    bcd8:	8fc30018 	lw	v1,24(s8)
    bcdc:	00000000 	nop
    bce0:	00431806 	srlv	v1,v1,v0
    bce4:	3c023ff0 	lui	v0,0x3ff0
    bce8:	00621025 	or	v0,v1,v0
    bcec:	afc20028 	sw	v0,40(s8)
    bcf0:	8fc30010 	lw	v1,16(s8)
    bcf4:	8fc20014 	lw	v0,20(s8)
    bcf8:	00000000 	nop
    bcfc:	0043102b 	sltu	v0,v0,v1
    bd00:	1040000a 	beqz	v0,bd2c <__b2d+0x114>
    bd04:	00000000 	nop
    bd08:	8fc20010 	lw	v0,16(s8)
    bd0c:	00000000 	nop
    bd10:	2442fffc 	addiu	v0,v0,-4
    bd14:	afc20010 	sw	v0,16(s8)
    bd18:	8fc20010 	lw	v0,16(s8)
    bd1c:	00000000 	nop
    bd20:	8c420000 	lw	v0,0(v0)
    bd24:	08002f4c 	j	bd30 <__b2d+0x118>
    bd28:	00000000 	nop
    bd2c:	00001021 	move	v0,zero
    bd30:	afc20020 	sw	v0,32(s8)
    bd34:	8fc2001c 	lw	v0,28(s8)
    bd38:	00000000 	nop
    bd3c:	24420015 	addiu	v0,v0,21
    bd40:	8fc30018 	lw	v1,24(s8)
    bd44:	00000000 	nop
    bd48:	00431804 	sllv	v1,v1,v0
    bd4c:	2404000b 	li	a0,11
    bd50:	8fc2001c 	lw	v0,28(s8)
    bd54:	00000000 	nop
    bd58:	00821023 	subu	v0,a0,v0
    bd5c:	8fc40020 	lw	a0,32(s8)
    bd60:	00000000 	nop
    bd64:	00441006 	srlv	v0,a0,v0
    bd68:	00621025 	or	v0,v1,v0
    bd6c:	afc2002c 	sw	v0,44(s8)
    bd70:	08002fad 	j	beb4 <__b2d+0x29c>
    bd74:	00000000 	nop
    bd78:	8fc30010 	lw	v1,16(s8)
    bd7c:	8fc20014 	lw	v0,20(s8)
    bd80:	00000000 	nop
    bd84:	0043102b 	sltu	v0,v0,v1
    bd88:	1040000a 	beqz	v0,bdb4 <__b2d+0x19c>
    bd8c:	00000000 	nop
    bd90:	8fc20010 	lw	v0,16(s8)
    bd94:	00000000 	nop
    bd98:	2442fffc 	addiu	v0,v0,-4
    bd9c:	afc20010 	sw	v0,16(s8)
    bda0:	8fc20010 	lw	v0,16(s8)
    bda4:	00000000 	nop
    bda8:	8c420000 	lw	v0,0(v0)
    bdac:	08002f6e 	j	bdb8 <__b2d+0x1a0>
    bdb0:	00000000 	nop
    bdb4:	00001021 	move	v0,zero
    bdb8:	afc20024 	sw	v0,36(s8)
    bdbc:	8fc2001c 	lw	v0,28(s8)
    bdc0:	00000000 	nop
    bdc4:	2442fff5 	addiu	v0,v0,-11
    bdc8:	afc2001c 	sw	v0,28(s8)
    bdcc:	8fc2001c 	lw	v0,28(s8)
    bdd0:	00000000 	nop
    bdd4:	10400030 	beqz	v0,be98 <__b2d+0x280>
    bdd8:	00000000 	nop
    bddc:	8fc30018 	lw	v1,24(s8)
    bde0:	8fc2001c 	lw	v0,28(s8)
    bde4:	00000000 	nop
    bde8:	00431804 	sllv	v1,v1,v0
    bdec:	24040020 	li	a0,32
    bdf0:	8fc2001c 	lw	v0,28(s8)
    bdf4:	00000000 	nop
    bdf8:	00821023 	subu	v0,a0,v0
    bdfc:	8fc40024 	lw	a0,36(s8)
    be00:	00000000 	nop
    be04:	00441006 	srlv	v0,a0,v0
    be08:	00621825 	or	v1,v1,v0
    be0c:	3c023ff0 	lui	v0,0x3ff0
    be10:	00621025 	or	v0,v1,v0
    be14:	afc20028 	sw	v0,40(s8)
    be18:	8fc30010 	lw	v1,16(s8)
    be1c:	8fc20014 	lw	v0,20(s8)
    be20:	00000000 	nop
    be24:	0043102b 	sltu	v0,v0,v1
    be28:	1040000a 	beqz	v0,be54 <__b2d+0x23c>
    be2c:	00000000 	nop
    be30:	8fc20010 	lw	v0,16(s8)
    be34:	00000000 	nop
    be38:	2442fffc 	addiu	v0,v0,-4
    be3c:	afc20010 	sw	v0,16(s8)
    be40:	8fc20010 	lw	v0,16(s8)
    be44:	00000000 	nop
    be48:	8c420000 	lw	v0,0(v0)
    be4c:	08002f96 	j	be58 <__b2d+0x240>
    be50:	00000000 	nop
    be54:	00001021 	move	v0,zero
    be58:	afc20018 	sw	v0,24(s8)
    be5c:	8fc30024 	lw	v1,36(s8)
    be60:	8fc2001c 	lw	v0,28(s8)
    be64:	00000000 	nop
    be68:	00431804 	sllv	v1,v1,v0
    be6c:	24040020 	li	a0,32
    be70:	8fc2001c 	lw	v0,28(s8)
    be74:	00000000 	nop
    be78:	00821023 	subu	v0,a0,v0
    be7c:	8fc40018 	lw	a0,24(s8)
    be80:	00000000 	nop
    be84:	00441006 	srlv	v0,a0,v0
    be88:	00621025 	or	v0,v1,v0
    be8c:	afc2002c 	sw	v0,44(s8)
    be90:	08002fad 	j	beb4 <__b2d+0x29c>
    be94:	00000000 	nop
    be98:	8fc30018 	lw	v1,24(s8)
    be9c:	3c023ff0 	lui	v0,0x3ff0
    bea0:	00621025 	or	v0,v1,v0
    bea4:	afc20028 	sw	v0,40(s8)
    bea8:	8fc20024 	lw	v0,36(s8)
    beac:	00000000 	nop
    beb0:	afc2002c 	sw	v0,44(s8)
    beb4:	8fc3002c 	lw	v1,44(s8)
    beb8:	8fc20028 	lw	v0,40(s8)
    bebc:	03c0e821 	move	sp,s8
    bec0:	8fbf0034 	lw	ra,52(sp)
    bec4:	8fbe0030 	lw	s8,48(sp)
    bec8:	27bd0038 	addiu	sp,sp,56
    becc:	03e00008 	jr	ra
    bed0:	00000000 	nop

0000bed4 <__d2b>:
    bed4:	27bdffb8 	addiu	sp,sp,-72
    bed8:	afbf0044 	sw	ra,68(sp)
    bedc:	afbe0040 	sw	s8,64(sp)
    bee0:	afb0003c 	sw	s0,60(sp)
    bee4:	03a0f021 	move	s8,sp
    bee8:	afc40048 	sw	a0,72(s8)
    beec:	afc70054 	sw	a3,84(s8)
    bef0:	afc60050 	sw	a2,80(s8)
    bef4:	8fc30054 	lw	v1,84(s8)
    bef8:	8fc20050 	lw	v0,80(s8)
    befc:	afc3002c 	sw	v1,44(s8)
    bf00:	afc20028 	sw	v0,40(s8)
    bf04:	8fc30054 	lw	v1,84(s8)
    bf08:	8fc20050 	lw	v0,80(s8)
    bf0c:	afc3002c 	sw	v1,44(s8)
    bf10:	afc20028 	sw	v0,40(s8)
    bf14:	8fc40048 	lw	a0,72(s8)
    bf18:	24050001 	li	a1,1
    bf1c:	0c0028be 	jal	a2f8 <_Balloc>
    bf20:	00000000 	nop
    bf24:	afc20018 	sw	v0,24(s8)
    bf28:	8fc20018 	lw	v0,24(s8)
    bf2c:	00000000 	nop
    bf30:	24420014 	addiu	v0,v0,20
    bf34:	afc2001c 	sw	v0,28(s8)
    bf38:	8fc30028 	lw	v1,40(s8)
    bf3c:	3c02000f 	lui	v0,0xf
    bf40:	3442ffff 	ori	v0,v0,0xffff
    bf44:	00621024 	and	v0,v1,v0
    bf48:	afc20034 	sw	v0,52(s8)
    bf4c:	8fc30028 	lw	v1,40(s8)
    bf50:	3c027fff 	lui	v0,0x7fff
    bf54:	3442ffff 	ori	v0,v0,0xffff
    bf58:	00621024 	and	v0,v1,v0
    bf5c:	afc20028 	sw	v0,40(s8)
    bf60:	8fc20028 	lw	v0,40(s8)
    bf64:	00000000 	nop
    bf68:	00021502 	srl	v0,v0,0x14
    bf6c:	afc20020 	sw	v0,32(s8)
    bf70:	8fc20020 	lw	v0,32(s8)
    bf74:	00000000 	nop
    bf78:	10400005 	beqz	v0,bf90 <__d2b+0xbc>
    bf7c:	00000000 	nop
    bf80:	8fc30034 	lw	v1,52(s8)
    bf84:	3c020010 	lui	v0,0x10
    bf88:	00621025 	or	v0,v1,v0
    bf8c:	afc20034 	sw	v0,52(s8)
    bf90:	8fc2002c 	lw	v0,44(s8)
    bf94:	00000000 	nop
    bf98:	1040003c 	beqz	v0,c08c <__d2b+0x1b8>
    bf9c:	00000000 	nop
    bfa0:	8fc2002c 	lw	v0,44(s8)
    bfa4:	00000000 	nop
    bfa8:	afc20030 	sw	v0,48(s8)
    bfac:	27c20030 	addiu	v0,s8,48
    bfb0:	00402021 	move	a0,v0
    bfb4:	0c002a86 	jal	aa18 <__lo0bits>
    bfb8:	00000000 	nop
    bfbc:	afc20014 	sw	v0,20(s8)
    bfc0:	8fc20014 	lw	v0,20(s8)
    bfc4:	00000000 	nop
    bfc8:	10400014 	beqz	v0,c01c <__d2b+0x148>
    bfcc:	00000000 	nop
    bfd0:	8fc30034 	lw	v1,52(s8)
    bfd4:	24040020 	li	a0,32
    bfd8:	8fc20014 	lw	v0,20(s8)
    bfdc:	00000000 	nop
    bfe0:	00821023 	subu	v0,a0,v0
    bfe4:	00431804 	sllv	v1,v1,v0
    bfe8:	8fc20030 	lw	v0,48(s8)
    bfec:	00000000 	nop
    bff0:	00621825 	or	v1,v1,v0
    bff4:	8fc2001c 	lw	v0,28(s8)
    bff8:	00000000 	nop
    bffc:	ac430000 	sw	v1,0(v0)
    c000:	8fc30034 	lw	v1,52(s8)
    c004:	8fc20014 	lw	v0,20(s8)
    c008:	00000000 	nop
    c00c:	00431006 	srlv	v0,v1,v0
    c010:	afc20034 	sw	v0,52(s8)
    c014:	0800300b 	j	c02c <__d2b+0x158>
    c018:	00000000 	nop
    c01c:	8fc30030 	lw	v1,48(s8)
    c020:	8fc2001c 	lw	v0,28(s8)
    c024:	00000000 	nop
    c028:	ac430000 	sw	v1,0(v0)
    c02c:	8fc2001c 	lw	v0,28(s8)
    c030:	00000000 	nop
    c034:	24420004 	addiu	v0,v0,4
    c038:	8fc30034 	lw	v1,52(s8)
    c03c:	00000000 	nop
    c040:	ac430000 	sw	v1,0(v0)
    c044:	8c420000 	lw	v0,0(v0)
    c048:	00000000 	nop
    c04c:	10400004 	beqz	v0,c060 <__d2b+0x18c>
    c050:	00000000 	nop
    c054:	24020002 	li	v0,2
    c058:	08003019 	j	c064 <__d2b+0x190>
    c05c:	00000000 	nop
    c060:	24020001 	li	v0,1
    c064:	8fc30018 	lw	v1,24(s8)
    c068:	00000000 	nop
    c06c:	ac620010 	sw	v0,16(v1)
    c070:	8fc20018 	lw	v0,24(s8)
    c074:	00000000 	nop
    c078:	8c420010 	lw	v0,16(v0)
    c07c:	00000000 	nop
    c080:	afc20010 	sw	v0,16(s8)
    c084:	08003038 	j	c0e0 <__d2b+0x20c>
    c088:	00000000 	nop
    c08c:	27c20034 	addiu	v0,s8,52
    c090:	00402021 	move	a0,v0
    c094:	0c002a86 	jal	aa18 <__lo0bits>
    c098:	00000000 	nop
    c09c:	afc20014 	sw	v0,20(s8)
    c0a0:	8fc30034 	lw	v1,52(s8)
    c0a4:	8fc2001c 	lw	v0,28(s8)
    c0a8:	00000000 	nop
    c0ac:	ac430000 	sw	v1,0(v0)
    c0b0:	8fc20018 	lw	v0,24(s8)
    c0b4:	24030001 	li	v1,1
    c0b8:	ac430010 	sw	v1,16(v0)
    c0bc:	8fc20018 	lw	v0,24(s8)
    c0c0:	00000000 	nop
    c0c4:	8c420010 	lw	v0,16(v0)
    c0c8:	00000000 	nop
    c0cc:	afc20010 	sw	v0,16(s8)
    c0d0:	8fc20014 	lw	v0,20(s8)
    c0d4:	00000000 	nop
    c0d8:	24420020 	addiu	v0,v0,32
    c0dc:	afc20014 	sw	v0,20(s8)
    c0e0:	8fc20020 	lw	v0,32(s8)
    c0e4:	00000000 	nop
    c0e8:	10400013 	beqz	v0,c138 <__d2b+0x264>
    c0ec:	00000000 	nop
    c0f0:	8fc20020 	lw	v0,32(s8)
    c0f4:	00000000 	nop
    c0f8:	2443fbcd 	addiu	v1,v0,-1075
    c0fc:	8fc20014 	lw	v0,20(s8)
    c100:	00000000 	nop
    c104:	00621821 	addu	v1,v1,v0
    c108:	8fc20058 	lw	v0,88(s8)
    c10c:	00000000 	nop
    c110:	ac430000 	sw	v1,0(v0)
    c114:	24030035 	li	v1,53
    c118:	8fc20014 	lw	v0,20(s8)
    c11c:	00000000 	nop
    c120:	00621823 	subu	v1,v1,v0
    c124:	8fc2005c 	lw	v0,92(s8)
    c128:	00000000 	nop
    c12c:	ac430000 	sw	v1,0(v0)
    c130:	0800306b 	j	c1ac <__d2b+0x2d8>
    c134:	00000000 	nop
    c138:	8fc20020 	lw	v0,32(s8)
    c13c:	00000000 	nop
    c140:	2443fbce 	addiu	v1,v0,-1074
    c144:	8fc20014 	lw	v0,20(s8)
    c148:	00000000 	nop
    c14c:	00621821 	addu	v1,v1,v0
    c150:	8fc20058 	lw	v0,88(s8)
    c154:	00000000 	nop
    c158:	ac430000 	sw	v1,0(v0)
    c15c:	8fc20010 	lw	v0,16(s8)
    c160:	00000000 	nop
    c164:	00028140 	sll	s0,v0,0x5
    c168:	8fc30010 	lw	v1,16(s8)
    c16c:	3c023fff 	lui	v0,0x3fff
    c170:	3442ffff 	ori	v0,v0,0xffff
    c174:	00621021 	addu	v0,v1,v0
    c178:	00021080 	sll	v0,v0,0x2
    c17c:	8fc3001c 	lw	v1,28(s8)
    c180:	00000000 	nop
    c184:	00621021 	addu	v0,v1,v0
    c188:	8c420000 	lw	v0,0(v0)
    c18c:	00000000 	nop
    c190:	00402021 	move	a0,v0
    c194:	0c002a56 	jal	a958 <__hi0bits>
    c198:	00000000 	nop
    c19c:	02021823 	subu	v1,s0,v0
    c1a0:	8fc2005c 	lw	v0,92(s8)
    c1a4:	00000000 	nop
    c1a8:	ac430000 	sw	v1,0(v0)
    c1ac:	8fc20018 	lw	v0,24(s8)
    c1b0:	03c0e821 	move	sp,s8
    c1b4:	8fbf0044 	lw	ra,68(sp)
    c1b8:	8fbe0040 	lw	s8,64(sp)
    c1bc:	8fb0003c 	lw	s0,60(sp)
    c1c0:	27bd0048 	addiu	sp,sp,72
    c1c4:	03e00008 	jr	ra
    c1c8:	00000000 	nop

0000c1cc <__ratio>:
    c1cc:	27bdffc8 	addiu	sp,sp,-56
    c1d0:	afbf0034 	sw	ra,52(sp)
    c1d4:	afbe0030 	sw	s8,48(sp)
    c1d8:	03a0f021 	move	s8,sp
    c1dc:	afc40038 	sw	a0,56(s8)
    c1e0:	afc5003c 	sw	a1,60(s8)
    c1e4:	27c20028 	addiu	v0,s8,40
    c1e8:	8fc40038 	lw	a0,56(s8)
    c1ec:	00402821 	move	a1,v0
    c1f0:	0c002f06 	jal	bc18 <__b2d>
    c1f4:	00000000 	nop
    c1f8:	afc3001c 	sw	v1,28(s8)
    c1fc:	afc20018 	sw	v0,24(s8)
    c200:	27c2002c 	addiu	v0,s8,44
    c204:	8fc4003c 	lw	a0,60(s8)
    c208:	00402821 	move	a1,v0
    c20c:	0c002f06 	jal	bc18 <__b2d>
    c210:	00000000 	nop
    c214:	afc30024 	sw	v1,36(s8)
    c218:	afc20020 	sw	v0,32(s8)
    c21c:	8fc30028 	lw	v1,40(s8)
    c220:	8fc2002c 	lw	v0,44(s8)
    c224:	00000000 	nop
    c228:	00621823 	subu	v1,v1,v0
    c22c:	8fc20038 	lw	v0,56(s8)
    c230:	00000000 	nop
    c234:	8c440010 	lw	a0,16(v0)
    c238:	8fc2003c 	lw	v0,60(s8)
    c23c:	00000000 	nop
    c240:	8c420010 	lw	v0,16(v0)
    c244:	00000000 	nop
    c248:	00821023 	subu	v0,a0,v0
    c24c:	00021140 	sll	v0,v0,0x5
    c250:	00621021 	addu	v0,v1,v0
    c254:	afc20010 	sw	v0,16(s8)
    c258:	8fc20010 	lw	v0,16(s8)
    c25c:	00000000 	nop
    c260:	18400009 	blez	v0,c288 <__ratio+0xbc>
    c264:	00000000 	nop
    c268:	8fc30018 	lw	v1,24(s8)
    c26c:	8fc20010 	lw	v0,16(s8)
    c270:	00000000 	nop
    c274:	00021500 	sll	v0,v0,0x14
    c278:	00621021 	addu	v0,v1,v0
    c27c:	afc20018 	sw	v0,24(s8)
    c280:	080030ac 	j	c2b0 <__ratio+0xe4>
    c284:	00000000 	nop
    c288:	8fc20010 	lw	v0,16(s8)
    c28c:	00000000 	nop
    c290:	00021023 	negu	v0,v0
    c294:	afc20010 	sw	v0,16(s8)
    c298:	8fc30020 	lw	v1,32(s8)
    c29c:	8fc20010 	lw	v0,16(s8)
    c2a0:	00000000 	nop
    c2a4:	00021500 	sll	v0,v0,0x14
    c2a8:	00621021 	addu	v0,v1,v0
    c2ac:	afc20020 	sw	v0,32(s8)
    c2b0:	8fc5001c 	lw	a1,28(s8)
    c2b4:	8fc40018 	lw	a0,24(s8)
    c2b8:	8fc30024 	lw	v1,36(s8)
    c2bc:	8fc20020 	lw	v0,32(s8)
    c2c0:	00603821 	move	a3,v1
    c2c4:	00403021 	move	a2,v0
    c2c8:	0c004f53 	jal	13d4c <__divdf3>
    c2cc:	00000000 	nop
    c2d0:	03c0e821 	move	sp,s8
    c2d4:	8fbf0034 	lw	ra,52(sp)
    c2d8:	8fbe0030 	lw	s8,48(sp)
    c2dc:	27bd0038 	addiu	sp,sp,56
    c2e0:	03e00008 	jr	ra
    c2e4:	00000000 	nop

0000c2e8 <_mprec_log10>:
    c2e8:	27bdffe0 	addiu	sp,sp,-32
    c2ec:	afbf001c 	sw	ra,28(sp)
    c2f0:	afbe0018 	sw	s8,24(sp)
    c2f4:	03a0f021 	move	s8,sp
    c2f8:	afc40020 	sw	a0,32(s8)
    c2fc:	8f838084 	lw	v1,-32636(gp)
    c300:	8f828080 	lw	v0,-32640(gp)
    c304:	afc30014 	sw	v1,20(s8)
    c308:	afc20010 	sw	v0,16(s8)
    c30c:	8fc20020 	lw	v0,32(s8)
    c310:	00000000 	nop
    c314:	28420018 	slti	v0,v0,24
    c318:	1040000b 	beqz	v0,c348 <_mprec_log10+0x60>
    c31c:	00000000 	nop
    c320:	3c020001 	lui	v0,0x1
    c324:	8fc30020 	lw	v1,32(s8)
    c328:	00000000 	nop
    c32c:	000318c0 	sll	v1,v1,0x3
    c330:	24424c90 	addiu	v0,v0,19600
    c334:	00621021 	addu	v0,v1,v0
    c338:	8c430004 	lw	v1,4(v0)
    c33c:	8c420000 	lw	v0,0(v0)
    c340:	080030e6 	j	c398 <_mprec_log10+0xb0>
    c344:	00000000 	nop
    c348:	080030e0 	j	c380 <_mprec_log10+0x98>
    c34c:	00000000 	nop
    c350:	8fc50014 	lw	a1,20(s8)
    c354:	8fc40010 	lw	a0,16(s8)
    c358:	8f87808c 	lw	a3,-32628(gp)
    c35c:	8f868088 	lw	a2,-32632(gp)
    c360:	0c004e98 	jal	13a60 <__muldf3>
    c364:	00000000 	nop
    c368:	afc30014 	sw	v1,20(s8)
    c36c:	afc20010 	sw	v0,16(s8)
    c370:	8fc20020 	lw	v0,32(s8)
    c374:	00000000 	nop
    c378:	2442ffff 	addiu	v0,v0,-1
    c37c:	afc20020 	sw	v0,32(s8)
    c380:	8fc20020 	lw	v0,32(s8)
    c384:	00000000 	nop
    c388:	1c40fff1 	bgtz	v0,c350 <_mprec_log10+0x68>
    c38c:	00000000 	nop
    c390:	8fc30014 	lw	v1,20(s8)
    c394:	8fc20010 	lw	v0,16(s8)
    c398:	03c0e821 	move	sp,s8
    c39c:	8fbf001c 	lw	ra,28(sp)
    c3a0:	8fbe0018 	lw	s8,24(sp)
    c3a4:	27bd0020 	addiu	sp,sp,32
    c3a8:	03e00008 	jr	ra
    c3ac:	00000000 	nop

0000c3b0 <__copybits>:
    c3b0:	27bdffe8 	addiu	sp,sp,-24
    c3b4:	afbe0014 	sw	s8,20(sp)
    c3b8:	03a0f021 	move	s8,sp
    c3bc:	afc40018 	sw	a0,24(s8)
    c3c0:	afc5001c 	sw	a1,28(s8)
    c3c4:	afc60020 	sw	a2,32(s8)
    c3c8:	8fc2001c 	lw	v0,28(s8)
    c3cc:	00000000 	nop
    c3d0:	2442ffff 	addiu	v0,v0,-1
    c3d4:	00021143 	sra	v0,v0,0x5
    c3d8:	24420001 	addiu	v0,v0,1
    c3dc:	00021080 	sll	v0,v0,0x2
    c3e0:	8fc30018 	lw	v1,24(s8)
    c3e4:	00000000 	nop
    c3e8:	00621021 	addu	v0,v1,v0
    c3ec:	afc20004 	sw	v0,4(s8)
    c3f0:	8fc20020 	lw	v0,32(s8)
    c3f4:	00000000 	nop
    c3f8:	24420014 	addiu	v0,v0,20
    c3fc:	afc20000 	sw	v0,0(s8)
    c400:	8fc20020 	lw	v0,32(s8)
    c404:	00000000 	nop
    c408:	8c420010 	lw	v0,16(v0)
    c40c:	00000000 	nop
    c410:	00021080 	sll	v0,v0,0x2
    c414:	8fc30000 	lw	v1,0(s8)
    c418:	00000000 	nop
    c41c:	00621021 	addu	v0,v1,v0
    c420:	afc20008 	sw	v0,8(s8)
    c424:	08003116 	j	c458 <__copybits+0xa8>
    c428:	00000000 	nop
    c42c:	8fc20018 	lw	v0,24(s8)
    c430:	00000000 	nop
    c434:	24430004 	addiu	v1,v0,4
    c438:	afc30018 	sw	v1,24(s8)
    c43c:	8fc30000 	lw	v1,0(s8)
    c440:	00000000 	nop
    c444:	24640004 	addiu	a0,v1,4
    c448:	afc40000 	sw	a0,0(s8)
    c44c:	8c630000 	lw	v1,0(v1)
    c450:	00000000 	nop
    c454:	ac430000 	sw	v1,0(v0)
    c458:	8fc30000 	lw	v1,0(s8)
    c45c:	8fc20008 	lw	v0,8(s8)
    c460:	00000000 	nop
    c464:	0062102b 	sltu	v0,v1,v0
    c468:	1440fff0 	bnez	v0,c42c <__copybits+0x7c>
    c46c:	00000000 	nop
    c470:	08003123 	j	c48c <__copybits+0xdc>
    c474:	00000000 	nop
    c478:	8fc20018 	lw	v0,24(s8)
    c47c:	00000000 	nop
    c480:	24430004 	addiu	v1,v0,4
    c484:	afc30018 	sw	v1,24(s8)
    c488:	ac400000 	sw	zero,0(v0)
    c48c:	8fc30018 	lw	v1,24(s8)
    c490:	8fc20004 	lw	v0,4(s8)
    c494:	00000000 	nop
    c498:	0062102b 	sltu	v0,v1,v0
    c49c:	1440fff6 	bnez	v0,c478 <__copybits+0xc8>
    c4a0:	00000000 	nop
    c4a4:	03c0e821 	move	sp,s8
    c4a8:	8fbe0014 	lw	s8,20(sp)
    c4ac:	27bd0018 	addiu	sp,sp,24
    c4b0:	03e00008 	jr	ra
    c4b4:	00000000 	nop

0000c4b8 <__any_on>:
    c4b8:	27bdffe0 	addiu	sp,sp,-32
    c4bc:	afbe001c 	sw	s8,28(sp)
    c4c0:	03a0f021 	move	s8,sp
    c4c4:	afc40020 	sw	a0,32(s8)
    c4c8:	afc50024 	sw	a1,36(s8)
    c4cc:	8fc20020 	lw	v0,32(s8)
    c4d0:	00000000 	nop
    c4d4:	24420014 	addiu	v0,v0,20
    c4d8:	afc20004 	sw	v0,4(s8)
    c4dc:	8fc20020 	lw	v0,32(s8)
    c4e0:	00000000 	nop
    c4e4:	8c420010 	lw	v0,16(v0)
    c4e8:	00000000 	nop
    c4ec:	afc20008 	sw	v0,8(s8)
    c4f0:	8fc20024 	lw	v0,36(s8)
    c4f4:	00000000 	nop
    c4f8:	00021143 	sra	v0,v0,0x5
    c4fc:	afc20000 	sw	v0,0(s8)
    c500:	8fc30000 	lw	v1,0(s8)
    c504:	8fc20008 	lw	v0,8(s8)
    c508:	00000000 	nop
    c50c:	0043102a 	slt	v0,v0,v1
    c510:	10400006 	beqz	v0,c52c <__any_on+0x74>
    c514:	00000000 	nop
    c518:	8fc20008 	lw	v0,8(s8)
    c51c:	00000000 	nop
    c520:	afc20000 	sw	v0,0(s8)
    c524:	08003177 	j	c5dc <__any_on+0x124>
    c528:	00000000 	nop
    c52c:	8fc30000 	lw	v1,0(s8)
    c530:	8fc20008 	lw	v0,8(s8)
    c534:	00000000 	nop
    c538:	0062102a 	slt	v0,v1,v0
    c53c:	10400027 	beqz	v0,c5dc <__any_on+0x124>
    c540:	00000000 	nop
    c544:	8fc20024 	lw	v0,36(s8)
    c548:	00000000 	nop
    c54c:	3042001f 	andi	v0,v0,0x1f
    c550:	afc20024 	sw	v0,36(s8)
    c554:	8fc20024 	lw	v0,36(s8)
    c558:	00000000 	nop
    c55c:	1040001f 	beqz	v0,c5dc <__any_on+0x124>
    c560:	00000000 	nop
    c564:	8fc20000 	lw	v0,0(s8)
    c568:	00000000 	nop
    c56c:	00021080 	sll	v0,v0,0x2
    c570:	8fc30004 	lw	v1,4(s8)
    c574:	00000000 	nop
    c578:	00621021 	addu	v0,v1,v0
    c57c:	8c420000 	lw	v0,0(v0)
    c580:	00000000 	nop
    c584:	afc2000c 	sw	v0,12(s8)
    c588:	8fc2000c 	lw	v0,12(s8)
    c58c:	00000000 	nop
    c590:	afc20010 	sw	v0,16(s8)
    c594:	8fc30010 	lw	v1,16(s8)
    c598:	8fc20024 	lw	v0,36(s8)
    c59c:	00000000 	nop
    c5a0:	00431006 	srlv	v0,v1,v0
    c5a4:	afc20010 	sw	v0,16(s8)
    c5a8:	8fc30010 	lw	v1,16(s8)
    c5ac:	8fc20024 	lw	v0,36(s8)
    c5b0:	00000000 	nop
    c5b4:	00431004 	sllv	v0,v1,v0
    c5b8:	afc20010 	sw	v0,16(s8)
    c5bc:	8fc30010 	lw	v1,16(s8)
    c5c0:	8fc2000c 	lw	v0,12(s8)
    c5c4:	00000000 	nop
    c5c8:	10620004 	beq	v1,v0,c5dc <__any_on+0x124>
    c5cc:	00000000 	nop
    c5d0:	24020001 	li	v0,1
    c5d4:	08003197 	j	c65c <__any_on+0x1a4>
    c5d8:	00000000 	nop
    c5dc:	8fc20004 	lw	v0,4(s8)
    c5e0:	00000000 	nop
    c5e4:	afc20014 	sw	v0,20(s8)
    c5e8:	8fc20000 	lw	v0,0(s8)
    c5ec:	00000000 	nop
    c5f0:	00021080 	sll	v0,v0,0x2
    c5f4:	8fc30004 	lw	v1,4(s8)
    c5f8:	00000000 	nop
    c5fc:	00621021 	addu	v0,v1,v0
    c600:	afc20004 	sw	v0,4(s8)
    c604:	08003190 	j	c640 <__any_on+0x188>
    c608:	00000000 	nop
    c60c:	8fc20004 	lw	v0,4(s8)
    c610:	00000000 	nop
    c614:	2442fffc 	addiu	v0,v0,-4
    c618:	afc20004 	sw	v0,4(s8)
    c61c:	8fc20004 	lw	v0,4(s8)
    c620:	00000000 	nop
    c624:	8c420000 	lw	v0,0(v0)
    c628:	00000000 	nop
    c62c:	10400004 	beqz	v0,c640 <__any_on+0x188>
    c630:	00000000 	nop
    c634:	24020001 	li	v0,1
    c638:	08003197 	j	c65c <__any_on+0x1a4>
    c63c:	00000000 	nop
    c640:	8fc30004 	lw	v1,4(s8)
    c644:	8fc20014 	lw	v0,20(s8)
    c648:	00000000 	nop
    c64c:	0043102b 	sltu	v0,v0,v1
    c650:	1440ffee 	bnez	v0,c60c <__any_on+0x154>
    c654:	00000000 	nop
    c658:	00001021 	move	v0,zero
    c65c:	03c0e821 	move	sp,s8
    c660:	8fbe001c 	lw	s8,28(sp)
    c664:	27bd0020 	addiu	sp,sp,32
    c668:	03e00008 	jr	ra
    c66c:	00000000 	nop

0000c670 <__fpclassifyd>:
    c670:	27bdffe8 	addiu	sp,sp,-24
    c674:	afbe0014 	sw	s8,20(sp)
    c678:	03a0f021 	move	s8,sp
    c67c:	afc5001c 	sw	a1,28(s8)
    c680:	afc40018 	sw	a0,24(s8)
    c684:	8fc3001c 	lw	v1,28(s8)
    c688:	8fc20018 	lw	v0,24(s8)
    c68c:	afc3000c 	sw	v1,12(s8)
    c690:	afc20008 	sw	v0,8(s8)
    c694:	8fc20008 	lw	v0,8(s8)
    c698:	00000000 	nop
    c69c:	afc20000 	sw	v0,0(s8)
    c6a0:	8fc2000c 	lw	v0,12(s8)
    c6a4:	00000000 	nop
    c6a8:	afc20004 	sw	v0,4(s8)
    c6ac:	8fc20000 	lw	v0,0(s8)
    c6b0:	00000000 	nop
    c6b4:	14400005 	bnez	v0,c6cc <__fpclassifyd+0x5c>
    c6b8:	00000000 	nop
    c6bc:	8fc20004 	lw	v0,4(s8)
    c6c0:	00000000 	nop
    c6c4:	10400009 	beqz	v0,c6ec <__fpclassifyd+0x7c>
    c6c8:	00000000 	nop
    c6cc:	8fc30000 	lw	v1,0(s8)
    c6d0:	3c028000 	lui	v0,0x8000
    c6d4:	14620008 	bne	v1,v0,c6f8 <__fpclassifyd+0x88>
    c6d8:	00000000 	nop
    c6dc:	8fc20004 	lw	v0,4(s8)
    c6e0:	00000000 	nop
    c6e4:	14400004 	bnez	v0,c6f8 <__fpclassifyd+0x88>
    c6e8:	00000000 	nop
    c6ec:	24020002 	li	v0,2
    c6f0:	080031fa 	j	c7e8 <__fpclassifyd+0x178>
    c6f4:	00000000 	nop
    c6f8:	8fc30000 	lw	v1,0(s8)
    c6fc:	3c020010 	lui	v0,0x10
    c700:	0062102b 	sltu	v0,v1,v0
    c704:	14400006 	bnez	v0,c720 <__fpclassifyd+0xb0>
    c708:	00000000 	nop
    c70c:	8fc30000 	lw	v1,0(s8)
    c710:	3c027ff0 	lui	v0,0x7ff0
    c714:	0062102b 	sltu	v0,v1,v0
    c718:	1440000b 	bnez	v0,c748 <__fpclassifyd+0xd8>
    c71c:	00000000 	nop
    c720:	8fc30000 	lw	v1,0(s8)
    c724:	3c028010 	lui	v0,0x8010
    c728:	0062102b 	sltu	v0,v1,v0
    c72c:	14400009 	bnez	v0,c754 <__fpclassifyd+0xe4>
    c730:	00000000 	nop
    c734:	8fc30000 	lw	v1,0(s8)
    c738:	3c02fff0 	lui	v0,0xfff0
    c73c:	0062102b 	sltu	v0,v1,v0
    c740:	10400004 	beqz	v0,c754 <__fpclassifyd+0xe4>
    c744:	00000000 	nop
    c748:	24020004 	li	v0,4
    c74c:	080031fa 	j	c7e8 <__fpclassifyd+0x178>
    c750:	00000000 	nop
    c754:	8fc30000 	lw	v1,0(s8)
    c758:	3c020010 	lui	v0,0x10
    c75c:	0062102b 	sltu	v0,v1,v0
    c760:	1440000a 	bnez	v0,c78c <__fpclassifyd+0x11c>
    c764:	00000000 	nop
    c768:	8fc20000 	lw	v0,0(s8)
    c76c:	00000000 	nop
    c770:	04410009 	bgez	v0,c798 <__fpclassifyd+0x128>
    c774:	00000000 	nop
    c778:	8fc30000 	lw	v1,0(s8)
    c77c:	3c028010 	lui	v0,0x8010
    c780:	0062102b 	sltu	v0,v1,v0
    c784:	10400004 	beqz	v0,c798 <__fpclassifyd+0x128>
    c788:	00000000 	nop
    c78c:	24020003 	li	v0,3
    c790:	080031fa 	j	c7e8 <__fpclassifyd+0x178>
    c794:	00000000 	nop
    c798:	8fc30000 	lw	v1,0(s8)
    c79c:	3c027ff0 	lui	v0,0x7ff0
    c7a0:	14620005 	bne	v1,v0,c7b8 <__fpclassifyd+0x148>
    c7a4:	00000000 	nop
    c7a8:	8fc20004 	lw	v0,4(s8)
    c7ac:	00000000 	nop
    c7b0:	10400009 	beqz	v0,c7d8 <__fpclassifyd+0x168>
    c7b4:	00000000 	nop
    c7b8:	8fc30000 	lw	v1,0(s8)
    c7bc:	3c02fff0 	lui	v0,0xfff0
    c7c0:	14620008 	bne	v1,v0,c7e4 <__fpclassifyd+0x174>
    c7c4:	00000000 	nop
    c7c8:	8fc20004 	lw	v0,4(s8)
    c7cc:	00000000 	nop
    c7d0:	14400004 	bnez	v0,c7e4 <__fpclassifyd+0x174>
    c7d4:	00000000 	nop
    c7d8:	24020001 	li	v0,1
    c7dc:	080031fa 	j	c7e8 <__fpclassifyd+0x178>
    c7e0:	00000000 	nop
    c7e4:	00001021 	move	v0,zero
    c7e8:	03c0e821 	move	sp,s8
    c7ec:	8fbe0014 	lw	s8,20(sp)
    c7f0:	27bd0018 	addiu	sp,sp,24
    c7f4:	03e00008 	jr	ra
    c7f8:	00000000 	nop

0000c7fc <frexp>:
    c7fc:	27bdffc0 	addiu	sp,sp,-64
    c800:	afbf003c 	sw	ra,60(sp)
    c804:	afbe0038 	sw	s8,56(sp)
    c808:	03a0f021 	move	s8,sp
    c80c:	afc50044 	sw	a1,68(s8)
    c810:	afc40040 	sw	a0,64(s8)
    c814:	afc60048 	sw	a2,72(s8)
    c818:	8fc30044 	lw	v1,68(s8)
    c81c:	8fc20040 	lw	v0,64(s8)
    c820:	afc30024 	sw	v1,36(s8)
    c824:	afc20020 	sw	v0,32(s8)
    c828:	8fc20020 	lw	v0,32(s8)
    c82c:	00000000 	nop
    c830:	afc20010 	sw	v0,16(s8)
    c834:	8fc20024 	lw	v0,36(s8)
    c838:	00000000 	nop
    c83c:	afc20018 	sw	v0,24(s8)
    c840:	8fc30010 	lw	v1,16(s8)
    c844:	3c027fff 	lui	v0,0x7fff
    c848:	3442ffff 	ori	v0,v0,0xffff
    c84c:	00621024 	and	v0,v1,v0
    c850:	afc20014 	sw	v0,20(s8)
    c854:	8fc20048 	lw	v0,72(s8)
    c858:	00000000 	nop
    c85c:	ac400000 	sw	zero,0(v0)
    c860:	8fc30014 	lw	v1,20(s8)
    c864:	3c027ff0 	lui	v0,0x7ff0
    c868:	0062102a 	slt	v0,v1,v0
    c86c:	10400007 	beqz	v0,c88c <frexp+0x90>
    c870:	00000000 	nop
    c874:	8fc30014 	lw	v1,20(s8)
    c878:	8fc20018 	lw	v0,24(s8)
    c87c:	00000000 	nop
    c880:	00621025 	or	v0,v1,v0
    c884:	14400005 	bnez	v0,c89c <frexp+0xa0>
    c888:	00000000 	nop
    c88c:	8fc30044 	lw	v1,68(s8)
    c890:	8fc20040 	lw	v0,64(s8)
    c894:	08003264 	j	c990 <frexp+0x194>
    c898:	00000000 	nop
    c89c:	8fc30014 	lw	v1,20(s8)
    c8a0:	3c020010 	lui	v0,0x10
    c8a4:	0062102a 	slt	v0,v1,v0
    c8a8:	1040001a 	beqz	v0,c914 <frexp+0x118>
    c8ac:	00000000 	nop
    c8b0:	8f83809c 	lw	v1,-32612(gp)
    c8b4:	8f828098 	lw	v0,-32616(gp)
    c8b8:	8fc50044 	lw	a1,68(s8)
    c8bc:	8fc40040 	lw	a0,64(s8)
    c8c0:	00603821 	move	a3,v1
    c8c4:	00403021 	move	a2,v0
    c8c8:	0c004e98 	jal	13a60 <__muldf3>
    c8cc:	00000000 	nop
    c8d0:	afc30044 	sw	v1,68(s8)
    c8d4:	afc20040 	sw	v0,64(s8)
    c8d8:	8fc30044 	lw	v1,68(s8)
    c8dc:	8fc20040 	lw	v0,64(s8)
    c8e0:	afc3002c 	sw	v1,44(s8)
    c8e4:	afc20028 	sw	v0,40(s8)
    c8e8:	8fc20028 	lw	v0,40(s8)
    c8ec:	00000000 	nop
    c8f0:	afc20010 	sw	v0,16(s8)
    c8f4:	8fc30010 	lw	v1,16(s8)
    c8f8:	3c027fff 	lui	v0,0x7fff
    c8fc:	3442ffff 	ori	v0,v0,0xffff
    c900:	00621024 	and	v0,v1,v0
    c904:	afc20014 	sw	v0,20(s8)
    c908:	8fc20048 	lw	v0,72(s8)
    c90c:	2403ffca 	li	v1,-54
    c910:	ac430000 	sw	v1,0(v0)
    c914:	8fc20048 	lw	v0,72(s8)
    c918:	00000000 	nop
    c91c:	8c430000 	lw	v1,0(v0)
    c920:	8fc20014 	lw	v0,20(s8)
    c924:	00000000 	nop
    c928:	00021503 	sra	v0,v0,0x14
    c92c:	2442fc02 	addiu	v0,v0,-1022
    c930:	00621821 	addu	v1,v1,v0
    c934:	8fc20048 	lw	v0,72(s8)
    c938:	00000000 	nop
    c93c:	ac430000 	sw	v1,0(v0)
    c940:	8fc30010 	lw	v1,16(s8)
    c944:	3c02800f 	lui	v0,0x800f
    c948:	3442ffff 	ori	v0,v0,0xffff
    c94c:	00621824 	and	v1,v1,v0
    c950:	3c023fe0 	lui	v0,0x3fe0
    c954:	00621025 	or	v0,v1,v0
    c958:	afc20010 	sw	v0,16(s8)
    c95c:	8fc30044 	lw	v1,68(s8)
    c960:	8fc20040 	lw	v0,64(s8)
    c964:	afc30034 	sw	v1,52(s8)
    c968:	afc20030 	sw	v0,48(s8)
    c96c:	8fc20010 	lw	v0,16(s8)
    c970:	00000000 	nop
    c974:	afc20030 	sw	v0,48(s8)
    c978:	8fc30034 	lw	v1,52(s8)
    c97c:	8fc20030 	lw	v0,48(s8)
    c980:	afc30044 	sw	v1,68(s8)
    c984:	afc20040 	sw	v0,64(s8)
    c988:	8fc30044 	lw	v1,68(s8)
    c98c:	8fc20040 	lw	v0,64(s8)
    c990:	03c0e821 	move	sp,s8
    c994:	8fbf003c 	lw	ra,60(sp)
    c998:	8fbe0038 	lw	s8,56(sp)
    c99c:	27bd0040 	addiu	sp,sp,64
    c9a0:	03e00008 	jr	ra
    c9a4:	00000000 	nop

0000c9a8 <_sbrk_r>:
    c9a8:	27bdffe0 	addiu	sp,sp,-32
    c9ac:	afbf001c 	sw	ra,28(sp)
    c9b0:	afbe0018 	sw	s8,24(sp)
    c9b4:	03a0f021 	move	s8,sp
    c9b8:	afc40020 	sw	a0,32(s8)
    c9bc:	afc50024 	sw	a1,36(s8)
    c9c0:	af8080cc 	sw	zero,-32564(gp)
    c9c4:	8fc40024 	lw	a0,36(s8)
    c9c8:	0c004892 	jal	12248 <sbrk>
    c9cc:	00000000 	nop
    c9d0:	afc20010 	sw	v0,16(s8)
    c9d4:	8fc30010 	lw	v1,16(s8)
    c9d8:	2402ffff 	li	v0,-1
    c9dc:	14620009 	bne	v1,v0,ca04 <_sbrk_r+0x5c>
    c9e0:	00000000 	nop
    c9e4:	8f8280cc 	lw	v0,-32564(gp)
    c9e8:	00000000 	nop
    c9ec:	10400005 	beqz	v0,ca04 <_sbrk_r+0x5c>
    c9f0:	00000000 	nop
    c9f4:	8f8380cc 	lw	v1,-32564(gp)
    c9f8:	8fc20020 	lw	v0,32(s8)
    c9fc:	00000000 	nop
    ca00:	ac430000 	sw	v1,0(v0)
    ca04:	8fc20010 	lw	v0,16(s8)
    ca08:	03c0e821 	move	sp,s8
    ca0c:	8fbf001c 	lw	ra,28(sp)
    ca10:	8fbe0018 	lw	s8,24(sp)
    ca14:	27bd0020 	addiu	sp,sp,32
    ca18:	03e00008 	jr	ra
    ca1c:	00000000 	nop

0000ca20 <__sread>:
    ca20:	27bdffe0 	addiu	sp,sp,-32
    ca24:	afbf001c 	sw	ra,28(sp)
    ca28:	afbe0018 	sw	s8,24(sp)
    ca2c:	afb10014 	sw	s1,20(sp)
    ca30:	afb00010 	sw	s0,16(sp)
    ca34:	03a0f021 	move	s8,sp
    ca38:	afc40020 	sw	a0,32(s8)
    ca3c:	afc50024 	sw	a1,36(s8)
    ca40:	afc60028 	sw	a2,40(s8)
    ca44:	afc7002c 	sw	a3,44(s8)
    ca48:	8fd00024 	lw	s0,36(s8)
    ca4c:	00000000 	nop
    ca50:	8602000e 	lh	v0,14(s0)
    ca54:	00000000 	nop
    ca58:	00401821 	move	v1,v0
    ca5c:	8fc2002c 	lw	v0,44(s8)
    ca60:	8fc40020 	lw	a0,32(s8)
    ca64:	00602821 	move	a1,v1
    ca68:	8fc60028 	lw	a2,40(s8)
    ca6c:	00403821 	move	a3,v0
    ca70:	0c0041c9 	jal	10724 <_read_r>
    ca74:	00000000 	nop
    ca78:	00408821 	move	s1,v0
    ca7c:	06200007 	bltz	s1,ca9c <__sread+0x7c>
    ca80:	00000000 	nop
    ca84:	8e020050 	lw	v0,80(s0)
    ca88:	00000000 	nop
    ca8c:	00511021 	addu	v0,v0,s1
    ca90:	ae020050 	sw	v0,80(s0)
    ca94:	080032ad 	j	cab4 <__sread+0x94>
    ca98:	00000000 	nop
    ca9c:	8603000c 	lh	v1,12(s0)
    caa0:	2402efff 	li	v0,-4097
    caa4:	00621024 	and	v0,v1,v0
    caa8:	00021400 	sll	v0,v0,0x10
    caac:	00021403 	sra	v0,v0,0x10
    cab0:	a602000c 	sh	v0,12(s0)
    cab4:	02201021 	move	v0,s1
    cab8:	03c0e821 	move	sp,s8
    cabc:	8fbf001c 	lw	ra,28(sp)
    cac0:	8fbe0018 	lw	s8,24(sp)
    cac4:	8fb10014 	lw	s1,20(sp)
    cac8:	8fb00010 	lw	s0,16(sp)
    cacc:	27bd0020 	addiu	sp,sp,32
    cad0:	03e00008 	jr	ra
    cad4:	00000000 	nop

0000cad8 <__seofread>:
    cad8:	27bdfff8 	addiu	sp,sp,-8
    cadc:	afbe0004 	sw	s8,4(sp)
    cae0:	03a0f021 	move	s8,sp
    cae4:	afc40008 	sw	a0,8(s8)
    cae8:	afc5000c 	sw	a1,12(s8)
    caec:	afc60010 	sw	a2,16(s8)
    caf0:	afc70014 	sw	a3,20(s8)
    caf4:	00001021 	move	v0,zero
    caf8:	03c0e821 	move	sp,s8
    cafc:	8fbe0004 	lw	s8,4(sp)
    cb00:	27bd0008 	addiu	sp,sp,8
    cb04:	03e00008 	jr	ra
    cb08:	00000000 	nop

0000cb0c <__swrite>:
    cb0c:	27bdffd8 	addiu	sp,sp,-40
    cb10:	afbf0024 	sw	ra,36(sp)
    cb14:	afbe0020 	sw	s8,32(sp)
    cb18:	afb0001c 	sw	s0,28(sp)
    cb1c:	03a0f021 	move	s8,sp
    cb20:	afc40028 	sw	a0,40(s8)
    cb24:	afc5002c 	sw	a1,44(s8)
    cb28:	afc60030 	sw	a2,48(s8)
    cb2c:	afc70034 	sw	a3,52(s8)
    cb30:	8fd0002c 	lw	s0,44(s8)
    cb34:	00000000 	nop
    cb38:	8602000c 	lh	v0,12(s0)
    cb3c:	00000000 	nop
    cb40:	3042ffff 	andi	v0,v0,0xffff
    cb44:	30420100 	andi	v0,v0,0x100
    cb48:	10400008 	beqz	v0,cb6c <__swrite+0x60>
    cb4c:	00000000 	nop
    cb50:	8602000e 	lh	v0,14(s0)
    cb54:	8fc40028 	lw	a0,40(s8)
    cb58:	00402821 	move	a1,v0
    cb5c:	00003021 	move	a2,zero
    cb60:	24070002 	li	a3,2
    cb64:	0c0040ea 	jal	103a8 <_lseek_r>
    cb68:	00000000 	nop
    cb6c:	8603000c 	lh	v1,12(s0)
    cb70:	2402efff 	li	v0,-4097
    cb74:	00621024 	and	v0,v1,v0
    cb78:	00021400 	sll	v0,v0,0x10
    cb7c:	00021403 	sra	v0,v0,0x10
    cb80:	a602000c 	sh	v0,12(s0)
    cb84:	8602000e 	lh	v0,14(s0)
    cb88:	00000000 	nop
    cb8c:	00401821 	move	v1,v0
    cb90:	8fc20034 	lw	v0,52(s8)
    cb94:	8fc40028 	lw	a0,40(s8)
    cb98:	00602821 	move	a1,v1
    cb9c:	8fc60030 	lw	a2,48(s8)
    cba0:	00403821 	move	a3,v0
    cba4:	0c003c86 	jal	f218 <_write_r>
    cba8:	00000000 	nop
    cbac:	afc20010 	sw	v0,16(s8)
    cbb0:	8fc20010 	lw	v0,16(s8)
    cbb4:	03c0e821 	move	sp,s8
    cbb8:	8fbf0024 	lw	ra,36(sp)
    cbbc:	8fbe0020 	lw	s8,32(sp)
    cbc0:	8fb0001c 	lw	s0,28(sp)
    cbc4:	27bd0028 	addiu	sp,sp,40
    cbc8:	03e00008 	jr	ra
    cbcc:	00000000 	nop

0000cbd0 <__sseek>:
    cbd0:	27bdffe0 	addiu	sp,sp,-32
    cbd4:	afbf001c 	sw	ra,28(sp)
    cbd8:	afbe0018 	sw	s8,24(sp)
    cbdc:	afb10014 	sw	s1,20(sp)
    cbe0:	afb00010 	sw	s0,16(sp)
    cbe4:	03a0f021 	move	s8,sp
    cbe8:	afc40020 	sw	a0,32(s8)
    cbec:	afc50024 	sw	a1,36(s8)
    cbf0:	afc60028 	sw	a2,40(s8)
    cbf4:	afc7002c 	sw	a3,44(s8)
    cbf8:	8fd00024 	lw	s0,36(s8)
    cbfc:	00000000 	nop
    cc00:	8602000e 	lh	v0,14(s0)
    cc04:	8fc40020 	lw	a0,32(s8)
    cc08:	00402821 	move	a1,v0
    cc0c:	8fc60028 	lw	a2,40(s8)
    cc10:	8fc7002c 	lw	a3,44(s8)
    cc14:	0c0040ea 	jal	103a8 <_lseek_r>
    cc18:	00000000 	nop
    cc1c:	00408821 	move	s1,v0
    cc20:	2402ffff 	li	v0,-1
    cc24:	16220009 	bne	s1,v0,cc4c <__sseek+0x7c>
    cc28:	00000000 	nop
    cc2c:	8603000c 	lh	v1,12(s0)
    cc30:	2402efff 	li	v0,-4097
    cc34:	00621024 	and	v0,v1,v0
    cc38:	00021400 	sll	v0,v0,0x10
    cc3c:	00021403 	sra	v0,v0,0x10
    cc40:	a602000c 	sh	v0,12(s0)
    cc44:	0800331a 	j	cc68 <__sseek+0x98>
    cc48:	00000000 	nop
    cc4c:	8602000c 	lh	v0,12(s0)
    cc50:	00000000 	nop
    cc54:	34421000 	ori	v0,v0,0x1000
    cc58:	00021400 	sll	v0,v0,0x10
    cc5c:	00021403 	sra	v0,v0,0x10
    cc60:	a602000c 	sh	v0,12(s0)
    cc64:	ae110050 	sw	s1,80(s0)
    cc68:	02201021 	move	v0,s1
    cc6c:	03c0e821 	move	sp,s8
    cc70:	8fbf001c 	lw	ra,28(sp)
    cc74:	8fbe0018 	lw	s8,24(sp)
    cc78:	8fb10014 	lw	s1,20(sp)
    cc7c:	8fb00010 	lw	s0,16(sp)
    cc80:	27bd0020 	addiu	sp,sp,32
    cc84:	03e00008 	jr	ra
    cc88:	00000000 	nop

0000cc8c <__sclose>:
    cc8c:	27bdffe0 	addiu	sp,sp,-32
    cc90:	afbf001c 	sw	ra,28(sp)
    cc94:	afbe0018 	sw	s8,24(sp)
    cc98:	03a0f021 	move	s8,sp
    cc9c:	afc40020 	sw	a0,32(s8)
    cca0:	afc50024 	sw	a1,36(s8)
    cca4:	8fc20024 	lw	v0,36(s8)
    cca8:	00000000 	nop
    ccac:	afc20010 	sw	v0,16(s8)
    ccb0:	8fc20010 	lw	v0,16(s8)
    ccb4:	00000000 	nop
    ccb8:	8442000e 	lh	v0,14(v0)
    ccbc:	8fc40020 	lw	a0,32(s8)
    ccc0:	00402821 	move	a1,v0
    ccc4:	0c003d1f 	jal	f47c <_close_r>
    ccc8:	00000000 	nop
    cccc:	03c0e821 	move	sp,s8
    ccd0:	8fbf001c 	lw	ra,28(sp)
    ccd4:	8fbe0018 	lw	s8,24(sp)
    ccd8:	27bd0020 	addiu	sp,sp,32
    ccdc:	03e00008 	jr	ra
    cce0:	00000000 	nop

0000cce4 <strcmp>:
    cce4:	27bdffe0 	addiu	sp,sp,-32
    cce8:	afbe001c 	sw	s8,28(sp)
    ccec:	03a0f021 	move	s8,sp
    ccf0:	afc40020 	sw	a0,32(s8)
    ccf4:	afc50024 	sw	a1,36(s8)
    ccf8:	8fc20020 	lw	v0,32(s8)
    ccfc:	00000000 	nop
    cd00:	afc20000 	sw	v0,0(s8)
    cd04:	8fc20024 	lw	v0,36(s8)
    cd08:	00000000 	nop
    cd0c:	afc20004 	sw	v0,4(s8)
    cd10:	8fc30000 	lw	v1,0(s8)
    cd14:	8fc20004 	lw	v0,4(s8)
    cd18:	00000000 	nop
    cd1c:	00621025 	or	v0,v1,v0
    cd20:	30420001 	andi	v0,v0,0x1
    cd24:	14400046 	bnez	v0,ce40 <strcmp+0x15c>
    cd28:	00000000 	nop
    cd2c:	8fc20000 	lw	v0,0(s8)
    cd30:	00000000 	nop
    cd34:	90420000 	lbu	v0,0(v0)
    cd38:	00000000 	nop
    cd3c:	afc20008 	sw	v0,8(s8)
    cd40:	8fc20004 	lw	v0,4(s8)
    cd44:	00000000 	nop
    cd48:	90420000 	lbu	v0,0(v0)
    cd4c:	00000000 	nop
    cd50:	afc2000c 	sw	v0,12(s8)
    cd54:	8fc20000 	lw	v0,0(s8)
    cd58:	00000000 	nop
    cd5c:	24420002 	addiu	v0,v0,2
    cd60:	afc20000 	sw	v0,0(s8)
    cd64:	8fc20008 	lw	v0,8(s8)
    cd68:	00000000 	nop
    cd6c:	14400003 	bnez	v0,cd7c <strcmp+0x98>
    cd70:	00000000 	nop
    cd74:	080033a7 	j	ce9c <strcmp+0x1b8>
    cd78:	00000000 	nop
    cd7c:	8fc20000 	lw	v0,0(s8)
    cd80:	00000000 	nop
    cd84:	2442ffff 	addiu	v0,v0,-1
    cd88:	90420000 	lbu	v0,0(v0)
    cd8c:	00000000 	nop
    cd90:	afc20010 	sw	v0,16(s8)
    cd94:	8fc30008 	lw	v1,8(s8)
    cd98:	8fc2000c 	lw	v0,12(s8)
    cd9c:	00000000 	nop
    cda0:	10620003 	beq	v1,v0,cdb0 <strcmp+0xcc>
    cda4:	00000000 	nop
    cda8:	080033a7 	j	ce9c <strcmp+0x1b8>
    cdac:	00000000 	nop
    cdb0:	8fc20004 	lw	v0,4(s8)
    cdb4:	00000000 	nop
    cdb8:	24420001 	addiu	v0,v0,1
    cdbc:	90420000 	lbu	v0,0(v0)
    cdc0:	00000000 	nop
    cdc4:	afc20014 	sw	v0,20(s8)
    cdc8:	8fc20004 	lw	v0,4(s8)
    cdcc:	00000000 	nop
    cdd0:	24420002 	addiu	v0,v0,2
    cdd4:	afc20004 	sw	v0,4(s8)
    cdd8:	8fc20010 	lw	v0,16(s8)
    cddc:	00000000 	nop
    cde0:	14400003 	bnez	v0,cdf0 <strcmp+0x10c>
    cde4:	00000000 	nop
    cde8:	0800338a 	j	ce28 <strcmp+0x144>
    cdec:	00000000 	nop
    cdf0:	8fc20000 	lw	v0,0(s8)
    cdf4:	00000000 	nop
    cdf8:	90420000 	lbu	v0,0(v0)
    cdfc:	00000000 	nop
    ce00:	afc20008 	sw	v0,8(s8)
    ce04:	8fc30010 	lw	v1,16(s8)
    ce08:	8fc20014 	lw	v0,20(s8)
    ce0c:	00000000 	nop
    ce10:	10620003 	beq	v1,v0,ce20 <strcmp+0x13c>
    ce14:	00000000 	nop
    ce18:	0800338a 	j	ce28 <strcmp+0x144>
    ce1c:	00000000 	nop
    ce20:	08003350 	j	cd40 <strcmp+0x5c>
    ce24:	00000000 	nop
    ce28:	8fc30010 	lw	v1,16(s8)
    ce2c:	8fc20014 	lw	v0,20(s8)
    ce30:	00000000 	nop
    ce34:	00621023 	subu	v0,v1,v0
    ce38:	080033ab 	j	ceac <strcmp+0x1c8>
    ce3c:	00000000 	nop
    ce40:	8fc20000 	lw	v0,0(s8)
    ce44:	00000000 	nop
    ce48:	24430001 	addiu	v1,v0,1
    ce4c:	afc30000 	sw	v1,0(s8)
    ce50:	90420000 	lbu	v0,0(v0)
    ce54:	00000000 	nop
    ce58:	afc20008 	sw	v0,8(s8)
    ce5c:	8fc20004 	lw	v0,4(s8)
    ce60:	00000000 	nop
    ce64:	24430001 	addiu	v1,v0,1
    ce68:	afc30004 	sw	v1,4(s8)
    ce6c:	90420000 	lbu	v0,0(v0)
    ce70:	00000000 	nop
    ce74:	afc2000c 	sw	v0,12(s8)
    ce78:	8fc20008 	lw	v0,8(s8)
    ce7c:	00000000 	nop
    ce80:	10400006 	beqz	v0,ce9c <strcmp+0x1b8>
    ce84:	00000000 	nop
    ce88:	8fc30008 	lw	v1,8(s8)
    ce8c:	8fc2000c 	lw	v0,12(s8)
    ce90:	00000000 	nop
    ce94:	1062ffea 	beq	v1,v0,ce40 <strcmp+0x15c>
    ce98:	00000000 	nop
    ce9c:	8fc30008 	lw	v1,8(s8)
    cea0:	8fc2000c 	lw	v0,12(s8)
    cea4:	00000000 	nop
    cea8:	00621023 	subu	v0,v1,v0
    ceac:	03c0e821 	move	sp,s8
    ceb0:	8fbe001c 	lw	s8,28(sp)
    ceb4:	27bd0020 	addiu	sp,sp,32
    ceb8:	03e00008 	jr	ra
    cebc:	00000000 	nop

0000cec0 <strlen>:
    cec0:	24820001 	addiu	v0,a0,1
    cec4:	90830000 	lbu	v1,0(a0)
    cec8:	00000000 	nop
    cecc:	1460fffd 	bnez	v1,cec4 <strlen+0x4>
    ced0:	24840001 	addiu	a0,a0,1
    ced4:	03e00008 	jr	ra
    ced8:	00821023 	subu	v0,a0,v0

0000cedc <strncpy>:
    cedc:	27bdffd0 	addiu	sp,sp,-48
    cee0:	afbe002c 	sw	s8,44(sp)
    cee4:	03a0f021 	move	s8,sp
    cee8:	afc40030 	sw	a0,48(s8)
    ceec:	afc50034 	sw	a1,52(s8)
    cef0:	afc60038 	sw	a2,56(s8)
    cef4:	8fc20030 	lw	v0,48(s8)
    cef8:	00000000 	nop
    cefc:	afc20000 	sw	v0,0(s8)
    cf00:	8fc20034 	lw	v0,52(s8)
    cf04:	00000000 	nop
    cf08:	afc20004 	sw	v0,4(s8)
    cf0c:	080033f0 	j	cfc0 <strncpy+0xe4>
    cf10:	00000000 	nop
    cf14:	8fc20000 	lw	v0,0(s8)
    cf18:	00000000 	nop
    cf1c:	24430001 	addiu	v1,v0,1
    cf20:	afc30000 	sw	v1,0(s8)
    cf24:	8fc30004 	lw	v1,4(s8)
    cf28:	00000000 	nop
    cf2c:	24640001 	addiu	a0,v1,1
    cf30:	afc40004 	sw	a0,4(s8)
    cf34:	90630000 	lbu	v1,0(v1)
    cf38:	00000000 	nop
    cf3c:	afc30008 	sw	v1,8(s8)
    cf40:	8fc30008 	lw	v1,8(s8)
    cf44:	00000000 	nop
    cf48:	306300ff 	andi	v1,v1,0xff
    cf4c:	a0430000 	sb	v1,0(v0)
    cf50:	8fc20038 	lw	v0,56(s8)
    cf54:	00000000 	nop
    cf58:	2442ffff 	addiu	v0,v0,-1
    cf5c:	afc20038 	sw	v0,56(s8)
    cf60:	8fc20008 	lw	v0,8(s8)
    cf64:	00000000 	nop
    cf68:	14400015 	bnez	v0,cfc0 <strncpy+0xe4>
    cf6c:	00000000 	nop
    cf70:	8fc30000 	lw	v1,0(s8)
    cf74:	8fc20038 	lw	v0,56(s8)
    cf78:	00000000 	nop
    cf7c:	00621021 	addu	v0,v1,v0
    cf80:	afc2000c 	sw	v0,12(s8)
    cf84:	080033e8 	j	cfa0 <strncpy+0xc4>
    cf88:	00000000 	nop
    cf8c:	8fc20000 	lw	v0,0(s8)
    cf90:	00000000 	nop
    cf94:	24430001 	addiu	v1,v0,1
    cf98:	afc30000 	sw	v1,0(s8)
    cf9c:	a0400000 	sb	zero,0(v0)
    cfa0:	8fc30000 	lw	v1,0(s8)
    cfa4:	8fc2000c 	lw	v0,12(s8)
    cfa8:	00000000 	nop
    cfac:	1462fff7 	bne	v1,v0,cf8c <strncpy+0xb0>
    cfb0:	00000000 	nop
    cfb4:	8fc20030 	lw	v0,48(s8)
    cfb8:	08003527 	j	d49c <strncpy+0x5c0>
    cfbc:	00000000 	nop
    cfc0:	8fc20004 	lw	v0,4(s8)
    cfc4:	00000000 	nop
    cfc8:	30420003 	andi	v0,v0,0x3
    cfcc:	10400005 	beqz	v0,cfe4 <strncpy+0x108>
    cfd0:	00000000 	nop
    cfd4:	8fc20038 	lw	v0,56(s8)
    cfd8:	00000000 	nop
    cfdc:	1440ffcd 	bnez	v0,cf14 <strncpy+0x38>
    cfe0:	00000000 	nop
    cfe4:	8fc20038 	lw	v0,56(s8)
    cfe8:	00000000 	nop
    cfec:	2c420004 	sltiu	v0,v0,4
    cff0:	38420001 	xori	v0,v0,0x1
    cff4:	304200ff 	andi	v0,v0,0xff
    cff8:	10400070 	beqz	v0,d1bc <strncpy+0x2e0>
    cffc:	00000000 	nop
    d000:	8fc20038 	lw	v0,56(s8)
    d004:	00000000 	nop
    d008:	30420003 	andi	v0,v0,0x3
    d00c:	afc20010 	sw	v0,16(s8)
    d010:	8fc20010 	lw	v0,16(s8)
    d014:	8fc30038 	lw	v1,56(s8)
    d018:	00000000 	nop
    d01c:	00621023 	subu	v0,v1,v0
    d020:	afc20038 	sw	v0,56(s8)
    d024:	8fc20004 	lw	v0,4(s8)
    d028:	00000000 	nop
    d02c:	90420000 	lbu	v0,0(v0)
    d030:	00000000 	nop
    d034:	afc20014 	sw	v0,20(s8)
    d038:	8fc20004 	lw	v0,4(s8)
    d03c:	00000000 	nop
    d040:	24420001 	addiu	v0,v0,1
    d044:	90420000 	lbu	v0,0(v0)
    d048:	00000000 	nop
    d04c:	afc20018 	sw	v0,24(s8)
    d050:	8fc20004 	lw	v0,4(s8)
    d054:	00000000 	nop
    d058:	24420002 	addiu	v0,v0,2
    d05c:	90420000 	lbu	v0,0(v0)
    d060:	00000000 	nop
    d064:	afc2001c 	sw	v0,28(s8)
    d068:	8fc20004 	lw	v0,4(s8)
    d06c:	00000000 	nop
    d070:	24420003 	addiu	v0,v0,3
    d074:	90420000 	lbu	v0,0(v0)
    d078:	00000000 	nop
    d07c:	afc20020 	sw	v0,32(s8)
    d080:	8fc20004 	lw	v0,4(s8)
    d084:	00000000 	nop
    d088:	24420004 	addiu	v0,v0,4
    d08c:	afc20004 	sw	v0,4(s8)
    d090:	8fc20038 	lw	v0,56(s8)
    d094:	00000000 	nop
    d098:	2442fffc 	addiu	v0,v0,-4
    d09c:	afc20038 	sw	v0,56(s8)
    d0a0:	8fc20014 	lw	v0,20(s8)
    d0a4:	00000000 	nop
    d0a8:	304300ff 	andi	v1,v0,0xff
    d0ac:	8fc20000 	lw	v0,0(s8)
    d0b0:	00000000 	nop
    d0b4:	a0430000 	sb	v1,0(v0)
    d0b8:	8fc20014 	lw	v0,20(s8)
    d0bc:	00000000 	nop
    d0c0:	1440000c 	bnez	v0,d0f4 <strncpy+0x218>
    d0c4:	00000000 	nop
    d0c8:	00000000 	nop
    d0cc:	8fc20038 	lw	v0,56(s8)
    d0d0:	00000000 	nop
    d0d4:	24420001 	addiu	v0,v0,1
    d0d8:	afc20038 	sw	v0,56(s8)
    d0dc:	8fc20000 	lw	v0,0(s8)
    d0e0:	00000000 	nop
    d0e4:	2442ffff 	addiu	v0,v0,-1
    d0e8:	afc20000 	sw	v0,0(s8)
    d0ec:	0800349f 	j	d27c <strncpy+0x3a0>
    d0f0:	00000000 	nop
    d0f4:	8fc20000 	lw	v0,0(s8)
    d0f8:	00000000 	nop
    d0fc:	24420001 	addiu	v0,v0,1
    d100:	8fc30018 	lw	v1,24(s8)
    d104:	00000000 	nop
    d108:	306300ff 	andi	v1,v1,0xff
    d10c:	a0430000 	sb	v1,0(v0)
    d110:	8fc20018 	lw	v0,24(s8)
    d114:	00000000 	nop
    d118:	14400003 	bnez	v0,d128 <strncpy+0x24c>
    d11c:	00000000 	nop
    d120:	0800349f 	j	d27c <strncpy+0x3a0>
    d124:	00000000 	nop
    d128:	8fc20000 	lw	v0,0(s8)
    d12c:	00000000 	nop
    d130:	24420002 	addiu	v0,v0,2
    d134:	8fc3001c 	lw	v1,28(s8)
    d138:	00000000 	nop
    d13c:	306300ff 	andi	v1,v1,0xff
    d140:	a0430000 	sb	v1,0(v0)
    d144:	8fc2001c 	lw	v0,28(s8)
    d148:	00000000 	nop
    d14c:	14400003 	bnez	v0,d15c <strncpy+0x280>
    d150:	00000000 	nop
    d154:	080034a7 	j	d29c <strncpy+0x3c0>
    d158:	00000000 	nop
    d15c:	8fc20000 	lw	v0,0(s8)
    d160:	00000000 	nop
    d164:	24420003 	addiu	v0,v0,3
    d168:	8fc30020 	lw	v1,32(s8)
    d16c:	00000000 	nop
    d170:	306300ff 	andi	v1,v1,0xff
    d174:	a0430000 	sb	v1,0(v0)
    d178:	8fc20020 	lw	v0,32(s8)
    d17c:	00000000 	nop
    d180:	14400003 	bnez	v0,d190 <strncpy+0x2b4>
    d184:	00000000 	nop
    d188:	080034af 	j	d2bc <strncpy+0x3e0>
    d18c:	00000000 	nop
    d190:	8fc20000 	lw	v0,0(s8)
    d194:	00000000 	nop
    d198:	24420004 	addiu	v0,v0,4
    d19c:	afc20000 	sw	v0,0(s8)
    d1a0:	8fc20038 	lw	v0,56(s8)
    d1a4:	00000000 	nop
    d1a8:	1440ff9e 	bnez	v0,d024 <strncpy+0x148>
    d1ac:	00000000 	nop
    d1b0:	8fc20010 	lw	v0,16(s8)
    d1b4:	00000000 	nop
    d1b8:	afc20038 	sw	v0,56(s8)
    d1bc:	8fc30000 	lw	v1,0(s8)
    d1c0:	8fc20038 	lw	v0,56(s8)
    d1c4:	00000000 	nop
    d1c8:	00621021 	addu	v0,v1,v0
    d1cc:	afc2000c 	sw	v0,12(s8)
    d1d0:	08003497 	j	d25c <strncpy+0x380>
    d1d4:	00000000 	nop
    d1d8:	8fc20000 	lw	v0,0(s8)
    d1dc:	00000000 	nop
    d1e0:	24430001 	addiu	v1,v0,1
    d1e4:	afc30000 	sw	v1,0(s8)
    d1e8:	8fc30004 	lw	v1,4(s8)
    d1ec:	00000000 	nop
    d1f0:	24640001 	addiu	a0,v1,1
    d1f4:	afc40004 	sw	a0,4(s8)
    d1f8:	90630000 	lbu	v1,0(v1)
    d1fc:	00000000 	nop
    d200:	afc30008 	sw	v1,8(s8)
    d204:	8fc30008 	lw	v1,8(s8)
    d208:	00000000 	nop
    d20c:	306300ff 	andi	v1,v1,0xff
    d210:	a0430000 	sb	v1,0(v0)
    d214:	8fc20008 	lw	v0,8(s8)
    d218:	00000000 	nop
    d21c:	1440000f 	bnez	v0,d25c <strncpy+0x380>
    d220:	00000000 	nop
    d224:	08003490 	j	d240 <strncpy+0x364>
    d228:	00000000 	nop
    d22c:	8fc20000 	lw	v0,0(s8)
    d230:	00000000 	nop
    d234:	24430001 	addiu	v1,v0,1
    d238:	afc30000 	sw	v1,0(s8)
    d23c:	a0400000 	sb	zero,0(v0)
    d240:	8fc30000 	lw	v1,0(s8)
    d244:	8fc2000c 	lw	v0,12(s8)
    d248:	00000000 	nop
    d24c:	1462fff7 	bne	v1,v0,d22c <strncpy+0x350>
    d250:	00000000 	nop
    d254:	0800349c 	j	d270 <strncpy+0x394>
    d258:	00000000 	nop
    d25c:	8fc30000 	lw	v1,0(s8)
    d260:	8fc2000c 	lw	v0,12(s8)
    d264:	00000000 	nop
    d268:	1462ffdb 	bne	v1,v0,d1d8 <strncpy+0x2fc>
    d26c:	00000000 	nop
    d270:	8fc20030 	lw	v0,48(s8)
    d274:	08003527 	j	d49c <strncpy+0x5c0>
    d278:	00000000 	nop
    d27c:	8fc20038 	lw	v0,56(s8)
    d280:	00000000 	nop
    d284:	24420001 	addiu	v0,v0,1
    d288:	afc20038 	sw	v0,56(s8)
    d28c:	8fc20000 	lw	v0,0(s8)
    d290:	00000000 	nop
    d294:	2442ffff 	addiu	v0,v0,-1
    d298:	afc20000 	sw	v0,0(s8)
    d29c:	8fc20038 	lw	v0,56(s8)
    d2a0:	00000000 	nop
    d2a4:	24420001 	addiu	v0,v0,1
    d2a8:	afc20038 	sw	v0,56(s8)
    d2ac:	8fc20000 	lw	v0,0(s8)
    d2b0:	00000000 	nop
    d2b4:	2442ffff 	addiu	v0,v0,-1
    d2b8:	afc20000 	sw	v0,0(s8)
    d2bc:	8fc20010 	lw	v0,16(s8)
    d2c0:	8fc30038 	lw	v1,56(s8)
    d2c4:	00000000 	nop
    d2c8:	00621021 	addu	v0,v1,v0
    d2cc:	afc20038 	sw	v0,56(s8)
    d2d0:	8fc20000 	lw	v0,0(s8)
    d2d4:	00000000 	nop
    d2d8:	24420004 	addiu	v0,v0,4
    d2dc:	afc20000 	sw	v0,0(s8)
    d2e0:	080034c3 	j	d30c <strncpy+0x430>
    d2e4:	00000000 	nop
    d2e8:	8fc20038 	lw	v0,56(s8)
    d2ec:	00000000 	nop
    d2f0:	2442ffff 	addiu	v0,v0,-1
    d2f4:	afc20038 	sw	v0,56(s8)
    d2f8:	8fc20000 	lw	v0,0(s8)
    d2fc:	00000000 	nop
    d300:	24430001 	addiu	v1,v0,1
    d304:	afc30000 	sw	v1,0(s8)
    d308:	a0400000 	sb	zero,0(v0)
    d30c:	8fc20038 	lw	v0,56(s8)
    d310:	00000000 	nop
    d314:	10400006 	beqz	v0,d330 <strncpy+0x454>
    d318:	00000000 	nop
    d31c:	8fc20000 	lw	v0,0(s8)
    d320:	00000000 	nop
    d324:	30420003 	andi	v0,v0,0x3
    d328:	1440ffef 	bnez	v0,d2e8 <strncpy+0x40c>
    d32c:	00000000 	nop
    d330:	080034e6 	j	d398 <strncpy+0x4bc>
    d334:	00000000 	nop
    d338:	8fc20038 	lw	v0,56(s8)
    d33c:	00000000 	nop
    d340:	2442fff0 	addiu	v0,v0,-16
    d344:	afc20038 	sw	v0,56(s8)
    d348:	8fc20000 	lw	v0,0(s8)
    d34c:	00000000 	nop
    d350:	24420010 	addiu	v0,v0,16
    d354:	afc20000 	sw	v0,0(s8)
    d358:	8fc20000 	lw	v0,0(s8)
    d35c:	00000000 	nop
    d360:	2442fff0 	addiu	v0,v0,-16
    d364:	ac400000 	sw	zero,0(v0)
    d368:	8fc20000 	lw	v0,0(s8)
    d36c:	00000000 	nop
    d370:	2442fff4 	addiu	v0,v0,-12
    d374:	ac400000 	sw	zero,0(v0)
    d378:	8fc20000 	lw	v0,0(s8)
    d37c:	00000000 	nop
    d380:	2442fff8 	addiu	v0,v0,-8
    d384:	ac400000 	sw	zero,0(v0)
    d388:	8fc20000 	lw	v0,0(s8)
    d38c:	00000000 	nop
    d390:	2442fffc 	addiu	v0,v0,-4
    d394:	ac400000 	sw	zero,0(v0)
    d398:	8fc20038 	lw	v0,56(s8)
    d39c:	00000000 	nop
    d3a0:	2c420010 	sltiu	v0,v0,16
    d3a4:	1040ffe4 	beqz	v0,d338 <strncpy+0x45c>
    d3a8:	00000000 	nop
    d3ac:	8fc20038 	lw	v0,56(s8)
    d3b0:	00000000 	nop
    d3b4:	2c420008 	sltiu	v0,v0,8
    d3b8:	14400010 	bnez	v0,d3fc <strncpy+0x520>
    d3bc:	00000000 	nop
    d3c0:	8fc20038 	lw	v0,56(s8)
    d3c4:	00000000 	nop
    d3c8:	2442fff8 	addiu	v0,v0,-8
    d3cc:	afc20038 	sw	v0,56(s8)
    d3d0:	8fc20000 	lw	v0,0(s8)
    d3d4:	00000000 	nop
    d3d8:	ac400000 	sw	zero,0(v0)
    d3dc:	8fc20000 	lw	v0,0(s8)
    d3e0:	00000000 	nop
    d3e4:	24420004 	addiu	v0,v0,4
    d3e8:	ac400000 	sw	zero,0(v0)
    d3ec:	8fc20000 	lw	v0,0(s8)
    d3f0:	00000000 	nop
    d3f4:	24420008 	addiu	v0,v0,8
    d3f8:	afc20000 	sw	v0,0(s8)
    d3fc:	8fc20038 	lw	v0,56(s8)
    d400:	00000000 	nop
    d404:	2c420004 	sltiu	v0,v0,4
    d408:	1440000c 	bnez	v0,d43c <strncpy+0x560>
    d40c:	00000000 	nop
    d410:	8fc20038 	lw	v0,56(s8)
    d414:	00000000 	nop
    d418:	2442fffc 	addiu	v0,v0,-4
    d41c:	afc20038 	sw	v0,56(s8)
    d420:	8fc20000 	lw	v0,0(s8)
    d424:	00000000 	nop
    d428:	ac400000 	sw	zero,0(v0)
    d42c:	8fc20000 	lw	v0,0(s8)
    d430:	00000000 	nop
    d434:	24420004 	addiu	v0,v0,4
    d438:	afc20000 	sw	v0,0(s8)
    d43c:	8fc20038 	lw	v0,56(s8)
    d440:	00000000 	nop
    d444:	2c420002 	sltiu	v0,v0,2
    d448:	1440000c 	bnez	v0,d47c <strncpy+0x5a0>
    d44c:	00000000 	nop
    d450:	8fc20038 	lw	v0,56(s8)
    d454:	00000000 	nop
    d458:	2442fffe 	addiu	v0,v0,-2
    d45c:	afc20038 	sw	v0,56(s8)
    d460:	8fc20000 	lw	v0,0(s8)
    d464:	00000000 	nop
    d468:	a4400000 	sh	zero,0(v0)
    d46c:	8fc20000 	lw	v0,0(s8)
    d470:	00000000 	nop
    d474:	24420002 	addiu	v0,v0,2
    d478:	afc20000 	sw	v0,0(s8)
    d47c:	8fc20038 	lw	v0,56(s8)
    d480:	00000000 	nop
    d484:	10400004 	beqz	v0,d498 <strncpy+0x5bc>
    d488:	00000000 	nop
    d48c:	8fc20000 	lw	v0,0(s8)
    d490:	00000000 	nop
    d494:	a0400000 	sb	zero,0(v0)
    d498:	8fc20030 	lw	v0,48(s8)
    d49c:	03c0e821 	move	sp,s8
    d4a0:	8fbe002c 	lw	s8,44(sp)
    d4a4:	27bd0030 	addiu	sp,sp,48
    d4a8:	03e00008 	jr	ra
    d4ac:	00000000 	nop

0000d4b0 <__sprint_r>:
    d4b0:	27bdffd0 	addiu	sp,sp,-48
    d4b4:	afbf002c 	sw	ra,44(sp)
    d4b8:	afbe0028 	sw	s8,40(sp)
    d4bc:	afb10024 	sw	s1,36(sp)
    d4c0:	afb00020 	sw	s0,32(sp)
    d4c4:	03a0f021 	move	s8,sp
    d4c8:	afc40030 	sw	a0,48(s8)
    d4cc:	afc50034 	sw	a1,52(s8)
    d4d0:	00c08021 	move	s0,a2
    d4d4:	00008821 	move	s1,zero
    d4d8:	8e020008 	lw	v0,8(s0)
    d4dc:	00000000 	nop
    d4e0:	14400005 	bnez	v0,d4f8 <__sprint_r+0x48>
    d4e4:	00000000 	nop
    d4e8:	ae000004 	sw	zero,4(s0)
    d4ec:	00001021 	move	v0,zero
    d4f0:	08003590 	j	d640 <__sprint_r+0x190>
    d4f4:	00000000 	nop
    d4f8:	8fc20034 	lw	v0,52(s8)
    d4fc:	00000000 	nop
    d500:	8c420064 	lw	v0,100(v0)
    d504:	00000000 	nop
    d508:	30422000 	andi	v0,v0,0x2000
    d50c:	10400043 	beqz	v0,d61c <__sprint_r+0x16c>
    d510:	00000000 	nop
    d514:	8e020000 	lw	v0,0(s0)
    d518:	00000000 	nop
    d51c:	afc20010 	sw	v0,16(s8)
    d520:	08003581 	j	d604 <__sprint_r+0x154>
    d524:	00000000 	nop
    d528:	8fc20010 	lw	v0,16(s8)
    d52c:	00000000 	nop
    d530:	8c420000 	lw	v0,0(v0)
    d534:	00000000 	nop
    d538:	afc20018 	sw	v0,24(s8)
    d53c:	8fc20010 	lw	v0,16(s8)
    d540:	00000000 	nop
    d544:	8c420004 	lw	v0,4(v0)
    d548:	00000000 	nop
    d54c:	00021082 	srl	v0,v0,0x2
    d550:	afc2001c 	sw	v0,28(s8)
    d554:	afc00014 	sw	zero,20(s8)
    d558:	0800356f 	j	d5bc <__sprint_r+0x10c>
    d55c:	00000000 	nop
    d560:	8fc20014 	lw	v0,20(s8)
    d564:	00000000 	nop
    d568:	00021080 	sll	v0,v0,0x2
    d56c:	8fc30018 	lw	v1,24(s8)
    d570:	00000000 	nop
    d574:	00621021 	addu	v0,v1,v0
    d578:	8c420000 	lw	v0,0(v0)
    d57c:	8fc40030 	lw	a0,48(s8)
    d580:	00402821 	move	a1,v0
    d584:	8fc60034 	lw	a2,52(s8)
    d588:	0c003e6f 	jal	f9bc <_fputwc_r>
    d58c:	00000000 	nop
    d590:	00401821 	move	v1,v0
    d594:	2402ffff 	li	v0,-1
    d598:	14620004 	bne	v1,v0,d5ac <__sprint_r+0xfc>
    d59c:	00000000 	nop
    d5a0:	2411ffff 	li	s1,-1
    d5a4:	0800358d 	j	d634 <__sprint_r+0x184>
    d5a8:	00000000 	nop
    d5ac:	8fc20014 	lw	v0,20(s8)
    d5b0:	00000000 	nop
    d5b4:	24420001 	addiu	v0,v0,1
    d5b8:	afc20014 	sw	v0,20(s8)
    d5bc:	8fc30014 	lw	v1,20(s8)
    d5c0:	8fc2001c 	lw	v0,28(s8)
    d5c4:	00000000 	nop
    d5c8:	0062102a 	slt	v0,v1,v0
    d5cc:	1440ffe4 	bnez	v0,d560 <__sprint_r+0xb0>
    d5d0:	00000000 	nop
    d5d4:	8e020008 	lw	v0,8(s0)
    d5d8:	00000000 	nop
    d5dc:	00401821 	move	v1,v0
    d5e0:	8fc2001c 	lw	v0,28(s8)
    d5e4:	00000000 	nop
    d5e8:	00021080 	sll	v0,v0,0x2
    d5ec:	00621023 	subu	v0,v1,v0
    d5f0:	ae020008 	sw	v0,8(s0)
    d5f4:	8fc20010 	lw	v0,16(s8)
    d5f8:	00000000 	nop
    d5fc:	24420008 	addiu	v0,v0,8
    d600:	afc20010 	sw	v0,16(s8)
    d604:	8e020008 	lw	v0,8(s0)
    d608:	00000000 	nop
    d60c:	1440ffc6 	bnez	v0,d528 <__sprint_r+0x78>
    d610:	00000000 	nop
    d614:	0800358d 	j	d634 <__sprint_r+0x184>
    d618:	00000000 	nop
    d61c:	8fc40030 	lw	a0,48(s8)
    d620:	8fc50034 	lw	a1,52(s8)
    d624:	02003021 	move	a2,s0
    d628:	0c003edf 	jal	fb7c <__sfvwrite_r>
    d62c:	00000000 	nop
    d630:	00408821 	move	s1,v0
    d634:	ae000008 	sw	zero,8(s0)
    d638:	ae000004 	sw	zero,4(s0)
    d63c:	02201021 	move	v0,s1
    d640:	03c0e821 	move	sp,s8
    d644:	8fbf002c 	lw	ra,44(sp)
    d648:	8fbe0028 	lw	s8,40(sp)
    d64c:	8fb10024 	lw	s1,36(sp)
    d650:	8fb00020 	lw	s0,32(sp)
    d654:	27bd0030 	addiu	sp,sp,48
    d658:	03e00008 	jr	ra
    d65c:	00000000 	nop

0000d660 <__sbprintf>:
    d660:	27bdfb70 	addiu	sp,sp,-1168
    d664:	afbf048c 	sw	ra,1164(sp)
    d668:	afbe0488 	sw	s8,1160(sp)
    d66c:	afb00484 	sw	s0,1156(sp)
    d670:	03a0f021 	move	s8,sp
    d674:	afc40490 	sw	a0,1168(s8)
    d678:	00a08021 	move	s0,a1
    d67c:	afc60498 	sw	a2,1176(s8)
    d680:	afc7049c 	sw	a3,1180(s8)
    d684:	8603000c 	lh	v1,12(s0)
    d688:	2402fffd 	li	v0,-3
    d68c:	00621024 	and	v0,v1,v0
    d690:	00021400 	sll	v0,v0,0x10
    d694:	00021403 	sra	v0,v0,0x10
    d698:	a7c20020 	sh	v0,32(s8)
    d69c:	8e020064 	lw	v0,100(s0)
    d6a0:	00000000 	nop
    d6a4:	afc20078 	sw	v0,120(s8)
    d6a8:	8602000e 	lh	v0,14(s0)
    d6ac:	00000000 	nop
    d6b0:	a7c20022 	sh	v0,34(s8)
    d6b4:	8e02001c 	lw	v0,28(s0)
    d6b8:	00000000 	nop
    d6bc:	afc20030 	sw	v0,48(s8)
    d6c0:	8e020024 	lw	v0,36(s0)
    d6c4:	00000000 	nop
    d6c8:	afc20038 	sw	v0,56(s8)
    d6cc:	27c2007c 	addiu	v0,s8,124
    d6d0:	afc20014 	sw	v0,20(s8)
    d6d4:	8fc20014 	lw	v0,20(s8)
    d6d8:	00000000 	nop
    d6dc:	afc20024 	sw	v0,36(s8)
    d6e0:	24020400 	li	v0,1024
    d6e4:	afc2001c 	sw	v0,28(s8)
    d6e8:	8fc2001c 	lw	v0,28(s8)
    d6ec:	00000000 	nop
    d6f0:	afc20028 	sw	v0,40(s8)
    d6f4:	afc0002c 	sw	zero,44(s8)
    d6f8:	27c20014 	addiu	v0,s8,20
    d6fc:	8fc40490 	lw	a0,1168(s8)
    d700:	00402821 	move	a1,v0
    d704:	8fc60498 	lw	a2,1176(s8)
    d708:	8fc7049c 	lw	a3,1180(s8)
    d70c:	0c0035fe 	jal	d7f8 <_vfiprintf_r>
    d710:	00000000 	nop
    d714:	afc20010 	sw	v0,16(s8)
    d718:	8fc20010 	lw	v0,16(s8)
    d71c:	00000000 	nop
    d720:	0440000a 	bltz	v0,d74c <__sbprintf+0xec>
    d724:	00000000 	nop
    d728:	27c20014 	addiu	v0,s8,20
    d72c:	8fc40490 	lw	a0,1168(s8)
    d730:	00402821 	move	a1,v0
    d734:	0c001b34 	jal	6cd0 <_fflush_r>
    d738:	00000000 	nop
    d73c:	10400003 	beqz	v0,d74c <__sbprintf+0xec>
    d740:	00000000 	nop
    d744:	2402ffff 	li	v0,-1
    d748:	afc20010 	sw	v0,16(s8)
    d74c:	87c20020 	lh	v0,32(s8)
    d750:	00000000 	nop
    d754:	3042ffff 	andi	v0,v0,0xffff
    d758:	30420040 	andi	v0,v0,0x40
    d75c:	10400007 	beqz	v0,d77c <__sbprintf+0x11c>
    d760:	00000000 	nop
    d764:	8602000c 	lh	v0,12(s0)
    d768:	00000000 	nop
    d76c:	34420040 	ori	v0,v0,0x40
    d770:	00021400 	sll	v0,v0,0x10
    d774:	00021403 	sra	v0,v0,0x10
    d778:	a602000c 	sh	v0,12(s0)
    d77c:	8fc20010 	lw	v0,16(s8)
    d780:	03c0e821 	move	sp,s8
    d784:	8fbf048c 	lw	ra,1164(sp)
    d788:	8fbe0488 	lw	s8,1160(sp)
    d78c:	8fb00484 	lw	s0,1156(sp)
    d790:	27bd0490 	addiu	sp,sp,1168
    d794:	03e00008 	jr	ra
    d798:	00000000 	nop

0000d79c <vfiprintf>:
    d79c:	27bdffe0 	addiu	sp,sp,-32
    d7a0:	afbf001c 	sw	ra,28(sp)
    d7a4:	afbe0018 	sw	s8,24(sp)
    d7a8:	03a0f021 	move	s8,sp
    d7ac:	afc40020 	sw	a0,32(s8)
    d7b0:	afc50024 	sw	a1,36(s8)
    d7b4:	afc60028 	sw	a2,40(s8)
    d7b8:	8f828068 	lw	v0,-32664(gp)
    d7bc:	00000000 	nop
    d7c0:	00402021 	move	a0,v0
    d7c4:	8fc50020 	lw	a1,32(s8)
    d7c8:	8fc60024 	lw	a2,36(s8)
    d7cc:	8fc70028 	lw	a3,40(s8)
    d7d0:	0c0035fe 	jal	d7f8 <_vfiprintf_r>
    d7d4:	00000000 	nop
    d7d8:	afc20010 	sw	v0,16(s8)
    d7dc:	8fc20010 	lw	v0,16(s8)
    d7e0:	03c0e821 	move	sp,s8
    d7e4:	8fbf001c 	lw	ra,28(sp)
    d7e8:	8fbe0018 	lw	s8,24(sp)
    d7ec:	27bd0020 	addiu	sp,sp,32
    d7f0:	03e00008 	jr	ra
    d7f4:	00000000 	nop

0000d7f8 <_vfiprintf_r>:
    d7f8:	27bdfe60 	addiu	sp,sp,-416
    d7fc:	afbf019c 	sw	ra,412(sp)
    d800:	afbe0198 	sw	s8,408(sp)
    d804:	afb70194 	sw	s7,404(sp)
    d808:	afb60190 	sw	s6,400(sp)
    d80c:	afb5018c 	sw	s5,396(sp)
    d810:	afb40188 	sw	s4,392(sp)
    d814:	afb30184 	sw	s3,388(sp)
    d818:	afb20180 	sw	s2,384(sp)
    d81c:	afb1017c 	sw	s1,380(sp)
    d820:	afb00178 	sw	s0,376(sp)
    d824:	03a0f021 	move	s8,sp
    d828:	afc401a0 	sw	a0,416(s8)
    d82c:	afc501a4 	sw	a1,420(s8)
    d830:	afc601a8 	sw	a2,424(s8)
    d834:	afc701ac 	sw	a3,428(s8)
    d838:	afc00028 	sw	zero,40(s8)
    d83c:	afc00048 	sw	zero,72(s8)
    d840:	afc0004c 	sw	zero,76(s8)
    d844:	8fc201a0 	lw	v0,416(s8)
    d848:	00000000 	nop
    d84c:	1040000a 	beqz	v0,d878 <_vfiprintf_r+0x80>
    d850:	00000000 	nop
    d854:	8fc201a0 	lw	v0,416(s8)
    d858:	00000000 	nop
    d85c:	8c420038 	lw	v0,56(v0)
    d860:	00000000 	nop
    d864:	14400004 	bnez	v0,d878 <_vfiprintf_r+0x80>
    d868:	00000000 	nop
    d86c:	8fc401a0 	lw	a0,416(s8)
    d870:	0c001cb6 	jal	72d8 <__sinit>
    d874:	00000000 	nop
    d878:	8fc201a4 	lw	v0,420(s8)
    d87c:	00000000 	nop
    d880:	8442000c 	lh	v0,12(v0)
    d884:	00000000 	nop
    d888:	3042ffff 	andi	v0,v0,0xffff
    d88c:	30422000 	andi	v0,v0,0x2000
    d890:	14400013 	bnez	v0,d8e0 <_vfiprintf_r+0xe8>
    d894:	00000000 	nop
    d898:	8fc201a4 	lw	v0,420(s8)
    d89c:	00000000 	nop
    d8a0:	8442000c 	lh	v0,12(v0)
    d8a4:	00000000 	nop
    d8a8:	34422000 	ori	v0,v0,0x2000
    d8ac:	00021c00 	sll	v1,v0,0x10
    d8b0:	00031c03 	sra	v1,v1,0x10
    d8b4:	8fc201a4 	lw	v0,420(s8)
    d8b8:	00000000 	nop
    d8bc:	a443000c 	sh	v1,12(v0)
    d8c0:	8fc201a4 	lw	v0,420(s8)
    d8c4:	00000000 	nop
    d8c8:	8c430064 	lw	v1,100(v0)
    d8cc:	2402dfff 	li	v0,-8193
    d8d0:	00621824 	and	v1,v1,v0
    d8d4:	8fc201a4 	lw	v0,420(s8)
    d8d8:	00000000 	nop
    d8dc:	ac430064 	sw	v1,100(v0)
    d8e0:	8fc201a4 	lw	v0,420(s8)
    d8e4:	00000000 	nop
    d8e8:	8442000c 	lh	v0,12(v0)
    d8ec:	00000000 	nop
    d8f0:	3042ffff 	andi	v0,v0,0xffff
    d8f4:	30420008 	andi	v0,v0,0x8
    d8f8:	10400007 	beqz	v0,d918 <_vfiprintf_r+0x120>
    d8fc:	00000000 	nop
    d900:	8fc201a4 	lw	v0,420(s8)
    d904:	00000000 	nop
    d908:	8c420010 	lw	v0,16(v0)
    d90c:	00000000 	nop
    d910:	1440000a 	bnez	v0,d93c <_vfiprintf_r+0x144>
    d914:	00000000 	nop
    d918:	8fc401a0 	lw	a0,416(s8)
    d91c:	8fc501a4 	lw	a1,420(s8)
    d920:	0c000fbf 	jal	3efc <__swsetup_r>
    d924:	00000000 	nop
    d928:	10400004 	beqz	v0,d93c <_vfiprintf_r+0x144>
    d92c:	00000000 	nop
    d930:	2402ffff 	li	v0,-1
    d934:	08003c78 	j	f1e0 <_vfiprintf_r+0x19e8>
    d938:	00000000 	nop
    d93c:	8fc201a4 	lw	v0,420(s8)
    d940:	00000000 	nop
    d944:	8442000c 	lh	v0,12(v0)
    d948:	00000000 	nop
    d94c:	3042ffff 	andi	v0,v0,0xffff
    d950:	3043001a 	andi	v1,v0,0x1a
    d954:	2402000a 	li	v0,10
    d958:	1462000f 	bne	v1,v0,d998 <_vfiprintf_r+0x1a0>
    d95c:	00000000 	nop
    d960:	8fc201a4 	lw	v0,420(s8)
    d964:	00000000 	nop
    d968:	8442000e 	lh	v0,14(v0)
    d96c:	00000000 	nop
    d970:	04400009 	bltz	v0,d998 <_vfiprintf_r+0x1a0>
    d974:	00000000 	nop
    d978:	8fc401a0 	lw	a0,416(s8)
    d97c:	8fc501a4 	lw	a1,420(s8)
    d980:	8fc601a8 	lw	a2,424(s8)
    d984:	8fc701ac 	lw	a3,428(s8)
    d988:	0c003598 	jal	d660 <__sbprintf>
    d98c:	00000000 	nop
    d990:	08003c78 	j	f1e0 <_vfiprintf_r+0x19e8>
    d994:	00000000 	nop
    d998:	8fd501a8 	lw	s5,424(s8)
    d99c:	27d40070 	addiu	s4,s8,112
    d9a0:	afd40064 	sw	s4,100(s8)
    d9a4:	afc0006c 	sw	zero,108(s8)
    d9a8:	afc00068 	sw	zero,104(s8)
    d9ac:	afc00010 	sw	zero,16(s8)
    d9b0:	02a09821 	move	s3,s5
    d9b4:	08003670 	j	d9c0 <_vfiprintf_r+0x1c8>
    d9b8:	00000000 	nop
    d9bc:	26b50001 	addiu	s5,s5,1
    d9c0:	82a20000 	lb	v0,0(s5)
    d9c4:	00000000 	nop
    d9c8:	10400005 	beqz	v0,d9e0 <_vfiprintf_r+0x1e8>
    d9cc:	00000000 	nop
    d9d0:	82a30000 	lb	v1,0(s5)
    d9d4:	24020025 	li	v0,37
    d9d8:	1462fff8 	bne	v1,v0,d9bc <_vfiprintf_r+0x1c4>
    d9dc:	00000000 	nop
    d9e0:	02a01821 	move	v1,s5
    d9e4:	02601021 	move	v0,s3
    d9e8:	00628023 	subu	s0,v1,v0
    d9ec:	12000021 	beqz	s0,da74 <_vfiprintf_r+0x27c>
    d9f0:	00000000 	nop
    d9f4:	ae930000 	sw	s3,0(s4)
    d9f8:	02001021 	move	v0,s0
    d9fc:	ae820004 	sw	v0,4(s4)
    da00:	8fc2006c 	lw	v0,108(s8)
    da04:	00000000 	nop
    da08:	00501021 	addu	v0,v0,s0
    da0c:	afc2006c 	sw	v0,108(s8)
    da10:	26940008 	addiu	s4,s4,8
    da14:	8fc20068 	lw	v0,104(s8)
    da18:	00000000 	nop
    da1c:	24420001 	addiu	v0,v0,1
    da20:	afc20068 	sw	v0,104(s8)
    da24:	8fc20068 	lw	v0,104(s8)
    da28:	00000000 	nop
    da2c:	28420008 	slti	v0,v0,8
    da30:	1440000c 	bnez	v0,da64 <_vfiprintf_r+0x26c>
    da34:	00000000 	nop
    da38:	27c20064 	addiu	v0,s8,100
    da3c:	8fc401a0 	lw	a0,416(s8)
    da40:	8fc501a4 	lw	a1,420(s8)
    da44:	00403021 	move	a2,v0
    da48:	0c00352c 	jal	d4b0 <__sprint_r>
    da4c:	00000000 	nop
    da50:	10400003 	beqz	v0,da60 <_vfiprintf_r+0x268>
    da54:	00000000 	nop
    da58:	08003c64 	j	f190 <_vfiprintf_r+0x1998>
    da5c:	00000000 	nop
    da60:	27d40070 	addiu	s4,s8,112
    da64:	8fc20010 	lw	v0,16(s8)
    da68:	00000000 	nop
    da6c:	00501021 	addu	v0,v0,s0
    da70:	afc20010 	sw	v0,16(s8)
    da74:	82a20000 	lb	v0,0(s5)
    da78:	00000000 	nop
    da7c:	14400003 	bnez	v0,da8c <_vfiprintf_r+0x294>
    da80:	00000000 	nop
    da84:	08003c54 	j	f150 <_vfiprintf_r+0x1958>
    da88:	00000000 	nop
    da8c:	afd50050 	sw	s5,80(s8)
    da90:	26b50001 	addiu	s5,s5,1
    da94:	00009021 	move	s2,zero
    da98:	afc0003c 	sw	zero,60(s8)
    da9c:	afc00014 	sw	zero,20(s8)
    daa0:	2402ffff 	li	v0,-1
    daa4:	afc20018 	sw	v0,24(s8)
    daa8:	a3c00060 	sb	zero,96(s8)
    daac:	afc00054 	sw	zero,84(s8)
    dab0:	8fc20054 	lw	v0,84(s8)
    dab4:	00000000 	nop
    dab8:	afc20058 	sw	v0,88(s8)
    dabc:	080036b2 	j	dac8 <_vfiprintf_r+0x2d0>
    dac0:	00000000 	nop
    dac4:	00000000 	nop
    dac8:	02a01021 	move	v0,s5
    dacc:	24550001 	addiu	s5,v0,1
    dad0:	80420000 	lb	v0,0(v0)
    dad4:	00000000 	nop
    dad8:	00408821 	move	s1,v0
    dadc:	2623ffe0 	addiu	v1,s1,-32
    dae0:	2c62005b 	sltiu	v0,v1,91
    dae4:	104003c6 	beqz	v0,ea00 <_vfiprintf_r+0x1208>
    dae8:	00000000 	nop
    daec:	00031880 	sll	v1,v1,0x2
    daf0:	3c020001 	lui	v0,0x1
    daf4:	24424e04 	addiu	v0,v0,19972
    daf8:	00621021 	addu	v0,v1,v0
    dafc:	8c420000 	lw	v0,0(v0)
    db00:	00000000 	nop
    db04:	00400008 	jr	v0
    db08:	00000000 	nop
    db0c:	8fc401a0 	lw	a0,416(s8)
    db10:	0c002097 	jal	825c <_localeconv_r>
    db14:	00000000 	nop
    db18:	8c420004 	lw	v0,4(v0)
    db1c:	00000000 	nop
    db20:	afc2001c 	sw	v0,28(s8)
    db24:	8fc4001c 	lw	a0,28(s8)
    db28:	0c0033b0 	jal	cec0 <strlen>
    db2c:	00000000 	nop
    db30:	afc20020 	sw	v0,32(s8)
    db34:	8fc401a0 	lw	a0,416(s8)
    db38:	0c002097 	jal	825c <_localeconv_r>
    db3c:	00000000 	nop
    db40:	8c420008 	lw	v0,8(v0)
    db44:	00000000 	nop
    db48:	afc20024 	sw	v0,36(s8)
    db4c:	8fc20020 	lw	v0,32(s8)
    db50:	00000000 	nop
    db54:	1040000e 	beqz	v0,db90 <_vfiprintf_r+0x398>
    db58:	00000000 	nop
    db5c:	8fc20024 	lw	v0,36(s8)
    db60:	00000000 	nop
    db64:	1040000a 	beqz	v0,db90 <_vfiprintf_r+0x398>
    db68:	00000000 	nop
    db6c:	8fc20024 	lw	v0,36(s8)
    db70:	00000000 	nop
    db74:	80420000 	lb	v0,0(v0)
    db78:	00000000 	nop
    db7c:	10400004 	beqz	v0,db90 <_vfiprintf_r+0x398>
    db80:	00000000 	nop
    db84:	36520400 	ori	s2,s2,0x400
    db88:	080036b2 	j	dac8 <_vfiprintf_r+0x2d0>
    db8c:	00000000 	nop
    db90:	080036b2 	j	dac8 <_vfiprintf_r+0x2d0>
    db94:	00000000 	nop
    db98:	83c20060 	lb	v0,96(s8)
    db9c:	00000000 	nop
    dba0:	14400005 	bnez	v0,dbb8 <_vfiprintf_r+0x3c0>
    dba4:	00000000 	nop
    dba8:	24020020 	li	v0,32
    dbac:	a3c20060 	sb	v0,96(s8)
    dbb0:	080036b2 	j	dac8 <_vfiprintf_r+0x2d0>
    dbb4:	00000000 	nop
    dbb8:	080036b2 	j	dac8 <_vfiprintf_r+0x2d0>
    dbbc:	00000000 	nop
    dbc0:	36520001 	ori	s2,s2,0x1
    dbc4:	080036b2 	j	dac8 <_vfiprintf_r+0x2d0>
    dbc8:	00000000 	nop
    dbcc:	8fc301ac 	lw	v1,428(s8)
    dbd0:	00000000 	nop
    dbd4:	24620004 	addiu	v0,v1,4
    dbd8:	afc201ac 	sw	v0,428(s8)
    dbdc:	8c620000 	lw	v0,0(v1)
    dbe0:	00000000 	nop
    dbe4:	afc20014 	sw	v0,20(s8)
    dbe8:	8fc20014 	lw	v0,20(s8)
    dbec:	00000000 	nop
    dbf0:	04400003 	bltz	v0,dc00 <_vfiprintf_r+0x408>
    dbf4:	00000000 	nop
    dbf8:	080036b2 	j	dac8 <_vfiprintf_r+0x2d0>
    dbfc:	00000000 	nop
    dc00:	8fc20014 	lw	v0,20(s8)
    dc04:	00000000 	nop
    dc08:	00021023 	negu	v0,v0
    dc0c:	afc20014 	sw	v0,20(s8)
    dc10:	36520004 	ori	s2,s2,0x4
    dc14:	080036b2 	j	dac8 <_vfiprintf_r+0x2d0>
    dc18:	00000000 	nop
    dc1c:	2402002b 	li	v0,43
    dc20:	a3c20060 	sb	v0,96(s8)
    dc24:	080036b2 	j	dac8 <_vfiprintf_r+0x2d0>
    dc28:	00000000 	nop
    dc2c:	02a01021 	move	v0,s5
    dc30:	24550001 	addiu	s5,v0,1
    dc34:	80420000 	lb	v0,0(v0)
    dc38:	00000000 	nop
    dc3c:	00408821 	move	s1,v0
    dc40:	2402002a 	li	v0,42
    dc44:	16220012 	bne	s1,v0,dc90 <_vfiprintf_r+0x498>
    dc48:	00000000 	nop
    dc4c:	8fc301ac 	lw	v1,428(s8)
    dc50:	00000000 	nop
    dc54:	24620004 	addiu	v0,v1,4
    dc58:	afc201ac 	sw	v0,428(s8)
    dc5c:	8c620000 	lw	v0,0(v1)
    dc60:	00000000 	nop
    dc64:	afc20018 	sw	v0,24(s8)
    dc68:	8fc20018 	lw	v0,24(s8)
    dc6c:	00000000 	nop
    dc70:	04410005 	bgez	v0,dc88 <_vfiprintf_r+0x490>
    dc74:	00000000 	nop
    dc78:	2402ffff 	li	v0,-1
    dc7c:	afc20018 	sw	v0,24(s8)
    dc80:	080036b2 	j	dac8 <_vfiprintf_r+0x2d0>
    dc84:	00000000 	nop
    dc88:	080036b2 	j	dac8 <_vfiprintf_r+0x2d0>
    dc8c:	00000000 	nop
    dc90:	00008021 	move	s0,zero
    dc94:	08003732 	j	dcc8 <_vfiprintf_r+0x4d0>
    dc98:	00000000 	nop
    dc9c:	02001021 	move	v0,s0
    dca0:	00021040 	sll	v0,v0,0x1
    dca4:	00021880 	sll	v1,v0,0x2
    dca8:	00431821 	addu	v1,v0,v1
    dcac:	2622ffd0 	addiu	v0,s1,-48
    dcb0:	00628021 	addu	s0,v1,v0
    dcb4:	02a01021 	move	v0,s5
    dcb8:	24550001 	addiu	s5,v0,1
    dcbc:	80420000 	lb	v0,0(v0)
    dcc0:	00000000 	nop
    dcc4:	00408821 	move	s1,v0
    dcc8:	2622ffd0 	addiu	v0,s1,-48
    dccc:	2c42000a 	sltiu	v0,v0,10
    dcd0:	1440fff2 	bnez	v0,dc9c <_vfiprintf_r+0x4a4>
    dcd4:	00000000 	nop
    dcd8:	02001021 	move	v0,s0
    dcdc:	04410002 	bgez	v0,dce8 <_vfiprintf_r+0x4f0>
    dce0:	00000000 	nop
    dce4:	2402ffff 	li	v0,-1
    dce8:	afc20018 	sw	v0,24(s8)
    dcec:	080036b7 	j	dadc <_vfiprintf_r+0x2e4>
    dcf0:	00000000 	nop
    dcf4:	36520080 	ori	s2,s2,0x80
    dcf8:	080036b2 	j	dac8 <_vfiprintf_r+0x2d0>
    dcfc:	00000000 	nop
    dd00:	00008021 	move	s0,zero
    dd04:	02001021 	move	v0,s0
    dd08:	00021040 	sll	v0,v0,0x1
    dd0c:	00021880 	sll	v1,v0,0x2
    dd10:	00431821 	addu	v1,v0,v1
    dd14:	2622ffd0 	addiu	v0,s1,-48
    dd18:	00628021 	addu	s0,v1,v0
    dd1c:	02a01021 	move	v0,s5
    dd20:	24550001 	addiu	s5,v0,1
    dd24:	80420000 	lb	v0,0(v0)
    dd28:	00000000 	nop
    dd2c:	00408821 	move	s1,v0
    dd30:	2622ffd0 	addiu	v0,s1,-48
    dd34:	2c42000a 	sltiu	v0,v0,10
    dd38:	1440fff2 	bnez	v0,dd04 <_vfiprintf_r+0x50c>
    dd3c:	00000000 	nop
    dd40:	afd00014 	sw	s0,20(s8)
    dd44:	080036b7 	j	dadc <_vfiprintf_r+0x2e4>
    dd48:	00000000 	nop
    dd4c:	82a30000 	lb	v1,0(s5)
    dd50:	24020068 	li	v0,104
    dd54:	14620005 	bne	v1,v0,dd6c <_vfiprintf_r+0x574>
    dd58:	00000000 	nop
    dd5c:	26b50001 	addiu	s5,s5,1
    dd60:	36520200 	ori	s2,s2,0x200
    dd64:	080036b2 	j	dac8 <_vfiprintf_r+0x2d0>
    dd68:	00000000 	nop
    dd6c:	36520040 	ori	s2,s2,0x40
    dd70:	080036b2 	j	dac8 <_vfiprintf_r+0x2d0>
    dd74:	00000000 	nop
    dd78:	82a30000 	lb	v1,0(s5)
    dd7c:	2402006c 	li	v0,108
    dd80:	14620005 	bne	v1,v0,dd98 <_vfiprintf_r+0x5a0>
    dd84:	00000000 	nop
    dd88:	26b50001 	addiu	s5,s5,1
    dd8c:	36520020 	ori	s2,s2,0x20
    dd90:	080036b2 	j	dac8 <_vfiprintf_r+0x2d0>
    dd94:	00000000 	nop
    dd98:	36520010 	ori	s2,s2,0x10
    dd9c:	080036b2 	j	dac8 <_vfiprintf_r+0x2d0>
    dda0:	00000000 	nop
    dda4:	36520020 	ori	s2,s2,0x20
    dda8:	080036b2 	j	dac8 <_vfiprintf_r+0x2d0>
    ddac:	00000000 	nop
    ddb0:	36520020 	ori	s2,s2,0x20
    ddb4:	080036b2 	j	dac8 <_vfiprintf_r+0x2d0>
    ddb8:	00000000 	nop
    ddbc:	27d300b0 	addiu	s3,s8,176
    ddc0:	8fc301ac 	lw	v1,428(s8)
    ddc4:	00000000 	nop
    ddc8:	24620004 	addiu	v0,v1,4
    ddcc:	afc201ac 	sw	v0,428(s8)
    ddd0:	8c620000 	lw	v0,0(v1)
    ddd4:	00000000 	nop
    ddd8:	00021600 	sll	v0,v0,0x18
    dddc:	00021603 	sra	v0,v0,0x18
    dde0:	a2620000 	sb	v0,0(s3)
    dde4:	24020001 	li	v0,1
    dde8:	afc20044 	sw	v0,68(s8)
    ddec:	a3c00060 	sb	zero,96(s8)
    ddf0:	08003a8c 	j	ea30 <_vfiprintf_r+0x1238>
    ddf4:	00000000 	nop
    ddf8:	36520010 	ori	s2,s2,0x10
    ddfc:	32420020 	andi	v0,s2,0x20
    de00:	1040000c 	beqz	v0,de34 <_vfiprintf_r+0x63c>
    de04:	00000000 	nop
    de08:	8fc201ac 	lw	v0,428(s8)
    de0c:	00000000 	nop
    de10:	24430007 	addiu	v1,v0,7
    de14:	2402fff8 	li	v0,-8
    de18:	00621824 	and	v1,v1,v0
    de1c:	24620008 	addiu	v0,v1,8
    de20:	afc201ac 	sw	v0,428(s8)
    de24:	8c620000 	lw	v0,0(v1)
    de28:	8c630004 	lw	v1,4(v1)
    de2c:	080037cc 	j	df30 <_vfiprintf_r+0x738>
    de30:	00000000 	nop
    de34:	32420010 	andi	v0,s2,0x10
    de38:	1040000c 	beqz	v0,de6c <_vfiprintf_r+0x674>
    de3c:	00000000 	nop
    de40:	8fc301ac 	lw	v1,428(s8)
    de44:	00000000 	nop
    de48:	24620004 	addiu	v0,v1,4
    de4c:	afc201ac 	sw	v0,428(s8)
    de50:	8c620000 	lw	v0,0(v1)
    de54:	00000000 	nop
    de58:	afc2011c 	sw	v0,284(s8)
    de5c:	000217c3 	sra	v0,v0,0x1f
    de60:	afc20118 	sw	v0,280(s8)
    de64:	080037ca 	j	df28 <_vfiprintf_r+0x730>
    de68:	00000000 	nop
    de6c:	32420040 	andi	v0,s2,0x40
    de70:	1040000e 	beqz	v0,deac <_vfiprintf_r+0x6b4>
    de74:	00000000 	nop
    de78:	8fc301ac 	lw	v1,428(s8)
    de7c:	00000000 	nop
    de80:	24620004 	addiu	v0,v1,4
    de84:	afc201ac 	sw	v0,428(s8)
    de88:	8c620000 	lw	v0,0(v1)
    de8c:	00000000 	nop
    de90:	00021400 	sll	v0,v0,0x10
    de94:	00021403 	sra	v0,v0,0x10
    de98:	afc20124 	sw	v0,292(s8)
    de9c:	000217c3 	sra	v0,v0,0x1f
    dea0:	afc20120 	sw	v0,288(s8)
    dea4:	080037c6 	j	df18 <_vfiprintf_r+0x720>
    dea8:	00000000 	nop
    deac:	32420200 	andi	v0,s2,0x200
    deb0:	1040000e 	beqz	v0,deec <_vfiprintf_r+0x6f4>
    deb4:	00000000 	nop
    deb8:	8fc201ac 	lw	v0,428(s8)
    debc:	00000000 	nop
    dec0:	24430004 	addiu	v1,v0,4
    dec4:	afc301ac 	sw	v1,428(s8)
    dec8:	8c420000 	lw	v0,0(v0)
    decc:	00000000 	nop
    ded0:	00021600 	sll	v0,v0,0x18
    ded4:	00021603 	sra	v0,v0,0x18
    ded8:	0040b821 	move	s7,v0
    dedc:	000217c3 	sra	v0,v0,0x1f
    dee0:	0040b021 	move	s6,v0
    dee4:	080037c4 	j	df10 <_vfiprintf_r+0x718>
    dee8:	00000000 	nop
    deec:	8fc201ac 	lw	v0,428(s8)
    def0:	00000000 	nop
    def4:	24430004 	addiu	v1,v0,4
    def8:	afc301ac 	sw	v1,428(s8)
    defc:	8c420000 	lw	v0,0(v0)
    df00:	00000000 	nop
    df04:	0040b821 	move	s7,v0
    df08:	000217c3 	sra	v0,v0,0x1f
    df0c:	0040b021 	move	s6,v0
    df10:	afd70124 	sw	s7,292(s8)
    df14:	afd60120 	sw	s6,288(s8)
    df18:	8fc30124 	lw	v1,292(s8)
    df1c:	8fc20120 	lw	v0,288(s8)
    df20:	afc3011c 	sw	v1,284(s8)
    df24:	afc20118 	sw	v0,280(s8)
    df28:	8fc3011c 	lw	v1,284(s8)
    df2c:	8fc20118 	lw	v0,280(s8)
    df30:	afc30034 	sw	v1,52(s8)
    df34:	afc20030 	sw	v0,48(s8)
    df38:	8fc30034 	lw	v1,52(s8)
    df3c:	8fc20030 	lw	v0,48(s8)
    df40:	00000000 	nop
    df44:	0441000e 	bgez	v0,df80 <_vfiprintf_r+0x788>
    df48:	00000000 	nop
    df4c:	00001821 	move	v1,zero
    df50:	00001021 	move	v0,zero
    df54:	8fc50034 	lw	a1,52(s8)
    df58:	8fc40030 	lw	a0,48(s8)
    df5c:	00653823 	subu	a3,v1,a1
    df60:	0067402b 	sltu	t0,v1,a3
    df64:	00443023 	subu	a2,v0,a0
    df68:	00c81023 	subu	v0,a2,t0
    df6c:	00403021 	move	a2,v0
    df70:	afc70034 	sw	a3,52(s8)
    df74:	afc60030 	sw	a2,48(s8)
    df78:	2402002d 	li	v0,45
    df7c:	a3c20060 	sb	v0,96(s8)
    df80:	24020001 	li	v0,1
    df84:	a3c20038 	sb	v0,56(s8)
    df88:	0800398d 	j	e634 <_vfiprintf_r+0xe3c>
    df8c:	00000000 	nop
    df90:	32420020 	andi	v0,s2,0x20
    df94:	10400011 	beqz	v0,dfdc <_vfiprintf_r+0x7e4>
    df98:	00000000 	nop
    df9c:	8fc301ac 	lw	v1,428(s8)
    dfa0:	00000000 	nop
    dfa4:	24620004 	addiu	v0,v1,4
    dfa8:	afc201ac 	sw	v0,428(s8)
    dfac:	8c630000 	lw	v1,0(v1)
    dfb0:	8fc20010 	lw	v0,16(s8)
    dfb4:	00000000 	nop
    dfb8:	afc20174 	sw	v0,372(s8)
    dfbc:	000217c3 	sra	v0,v0,0x1f
    dfc0:	afc20170 	sw	v0,368(s8)
    dfc4:	8fc50174 	lw	a1,372(s8)
    dfc8:	8fc40170 	lw	a0,368(s8)
    dfcc:	ac650004 	sw	a1,4(v1)
    dfd0:	ac640000 	sw	a0,0(v1)
    dfd4:	0800382c 	j	e0b0 <_vfiprintf_r+0x8b8>
    dfd8:	00000000 	nop
    dfdc:	32420010 	andi	v0,s2,0x10
    dfe0:	1040000b 	beqz	v0,e010 <_vfiprintf_r+0x818>
    dfe4:	00000000 	nop
    dfe8:	8fc301ac 	lw	v1,428(s8)
    dfec:	00000000 	nop
    dff0:	24620004 	addiu	v0,v1,4
    dff4:	afc201ac 	sw	v0,428(s8)
    dff8:	8c630000 	lw	v1,0(v1)
    dffc:	8fc20010 	lw	v0,16(s8)
    e000:	00000000 	nop
    e004:	ac620000 	sw	v0,0(v1)
    e008:	0800382c 	j	e0b0 <_vfiprintf_r+0x8b8>
    e00c:	00000000 	nop
    e010:	32420040 	andi	v0,s2,0x40
    e014:	1040000d 	beqz	v0,e04c <_vfiprintf_r+0x854>
    e018:	00000000 	nop
    e01c:	8fc301ac 	lw	v1,428(s8)
    e020:	00000000 	nop
    e024:	24620004 	addiu	v0,v1,4
    e028:	afc201ac 	sw	v0,428(s8)
    e02c:	8c630000 	lw	v1,0(v1)
    e030:	8fc20010 	lw	v0,16(s8)
    e034:	00000000 	nop
    e038:	00021400 	sll	v0,v0,0x10
    e03c:	00021403 	sra	v0,v0,0x10
    e040:	a4620000 	sh	v0,0(v1)
    e044:	0800382c 	j	e0b0 <_vfiprintf_r+0x8b8>
    e048:	00000000 	nop
    e04c:	32420200 	andi	v0,s2,0x200
    e050:	1040000d 	beqz	v0,e088 <_vfiprintf_r+0x890>
    e054:	00000000 	nop
    e058:	8fc301ac 	lw	v1,428(s8)
    e05c:	00000000 	nop
    e060:	24620004 	addiu	v0,v1,4
    e064:	afc201ac 	sw	v0,428(s8)
    e068:	8c630000 	lw	v1,0(v1)
    e06c:	8fc20010 	lw	v0,16(s8)
    e070:	00000000 	nop
    e074:	00021600 	sll	v0,v0,0x18
    e078:	00021603 	sra	v0,v0,0x18
    e07c:	a0620000 	sb	v0,0(v1)
    e080:	0800382c 	j	e0b0 <_vfiprintf_r+0x8b8>
    e084:	00000000 	nop
    e088:	8fc301ac 	lw	v1,428(s8)
    e08c:	00000000 	nop
    e090:	24620004 	addiu	v0,v1,4
    e094:	afc201ac 	sw	v0,428(s8)
    e098:	8c630000 	lw	v1,0(v1)
    e09c:	8fc20010 	lw	v0,16(s8)
    e0a0:	00000000 	nop
    e0a4:	ac620000 	sw	v0,0(v1)
    e0a8:	08003c52 	j	f148 <_vfiprintf_r+0x1950>
    e0ac:	00000000 	nop
    e0b0:	08003c52 	j	f148 <_vfiprintf_r+0x1950>
    e0b4:	00000000 	nop
    e0b8:	36520010 	ori	s2,s2,0x10
    e0bc:	32420020 	andi	v0,s2,0x20
    e0c0:	1040000c 	beqz	v0,e0f4 <_vfiprintf_r+0x8fc>
    e0c4:	00000000 	nop
    e0c8:	8fc201ac 	lw	v0,428(s8)
    e0cc:	00000000 	nop
    e0d0:	24430007 	addiu	v1,v0,7
    e0d4:	2402fff8 	li	v0,-8
    e0d8:	00621824 	and	v1,v1,v0
    e0dc:	24620008 	addiu	v0,v1,8
    e0e0:	afc201ac 	sw	v0,428(s8)
    e0e4:	8c620000 	lw	v0,0(v1)
    e0e8:	8c630004 	lw	v1,4(v1)
    e0ec:	08003878 	j	e1e0 <_vfiprintf_r+0x9e8>
    e0f0:	00000000 	nop
    e0f4:	32420010 	andi	v0,s2,0x10
    e0f8:	1040000b 	beqz	v0,e128 <_vfiprintf_r+0x930>
    e0fc:	00000000 	nop
    e100:	8fc301ac 	lw	v1,428(s8)
    e104:	00000000 	nop
    e108:	24620004 	addiu	v0,v1,4
    e10c:	afc201ac 	sw	v0,428(s8)
    e110:	8c620000 	lw	v0,0(v1)
    e114:	00000000 	nop
    e118:	afc2012c 	sw	v0,300(s8)
    e11c:	afc00128 	sw	zero,296(s8)
    e120:	08003876 	j	e1d8 <_vfiprintf_r+0x9e0>
    e124:	00000000 	nop
    e128:	32420040 	andi	v0,s2,0x40
    e12c:	1040000c 	beqz	v0,e160 <_vfiprintf_r+0x968>
    e130:	00000000 	nop
    e134:	8fc301ac 	lw	v1,428(s8)
    e138:	00000000 	nop
    e13c:	24620004 	addiu	v0,v1,4
    e140:	afc201ac 	sw	v0,428(s8)
    e144:	8c620000 	lw	v0,0(v1)
    e148:	00000000 	nop
    e14c:	3042ffff 	andi	v0,v0,0xffff
    e150:	afc20134 	sw	v0,308(s8)
    e154:	afc00130 	sw	zero,304(s8)
    e158:	08003872 	j	e1c8 <_vfiprintf_r+0x9d0>
    e15c:	00000000 	nop
    e160:	32420200 	andi	v0,s2,0x200
    e164:	1040000c 	beqz	v0,e198 <_vfiprintf_r+0x9a0>
    e168:	00000000 	nop
    e16c:	8fc201ac 	lw	v0,428(s8)
    e170:	00000000 	nop
    e174:	24430004 	addiu	v1,v0,4
    e178:	afc301ac 	sw	v1,428(s8)
    e17c:	8c420000 	lw	v0,0(v0)
    e180:	00000000 	nop
    e184:	304200ff 	andi	v0,v0,0xff
    e188:	afc2013c 	sw	v0,316(s8)
    e18c:	afc00138 	sw	zero,312(s8)
    e190:	0800386e 	j	e1b8 <_vfiprintf_r+0x9c0>
    e194:	00000000 	nop
    e198:	8fc201ac 	lw	v0,428(s8)
    e19c:	00000000 	nop
    e1a0:	24430004 	addiu	v1,v0,4
    e1a4:	afc301ac 	sw	v1,428(s8)
    e1a8:	8c420000 	lw	v0,0(v0)
    e1ac:	00000000 	nop
    e1b0:	afc2013c 	sw	v0,316(s8)
    e1b4:	afc00138 	sw	zero,312(s8)
    e1b8:	8fc3013c 	lw	v1,316(s8)
    e1bc:	8fc20138 	lw	v0,312(s8)
    e1c0:	afc30134 	sw	v1,308(s8)
    e1c4:	afc20130 	sw	v0,304(s8)
    e1c8:	8fc50134 	lw	a1,308(s8)
    e1cc:	8fc40130 	lw	a0,304(s8)
    e1d0:	afc5012c 	sw	a1,300(s8)
    e1d4:	afc40128 	sw	a0,296(s8)
    e1d8:	8fc3012c 	lw	v1,300(s8)
    e1dc:	8fc20128 	lw	v0,296(s8)
    e1e0:	afc30034 	sw	v1,52(s8)
    e1e4:	afc20030 	sw	v0,48(s8)
    e1e8:	a3c00038 	sb	zero,56(s8)
    e1ec:	2402fbff 	li	v0,-1025
    e1f0:	02429024 	and	s2,s2,v0
    e1f4:	0800398c 	j	e630 <_vfiprintf_r+0xe38>
    e1f8:	00000000 	nop
    e1fc:	8fc301ac 	lw	v1,428(s8)
    e200:	00000000 	nop
    e204:	24620004 	addiu	v0,v1,4
    e208:	afc201ac 	sw	v0,428(s8)
    e20c:	8c620000 	lw	v0,0(v1)
    e210:	00000000 	nop
    e214:	afc20034 	sw	v0,52(s8)
    e218:	afc00030 	sw	zero,48(s8)
    e21c:	24020002 	li	v0,2
    e220:	a3c20038 	sb	v0,56(s8)
    e224:	3c020001 	lui	v0,0x1
    e228:	24424db8 	addiu	v0,v0,19896
    e22c:	afc20048 	sw	v0,72(s8)
    e230:	36520002 	ori	s2,s2,0x2
    e234:	24020030 	li	v0,48
    e238:	a3c20114 	sb	v0,276(s8)
    e23c:	24110078 	li	s1,120
    e240:	24020078 	li	v0,120
    e244:	a3c20115 	sb	v0,277(s8)
    e248:	0800398c 	j	e630 <_vfiprintf_r+0xe38>
    e24c:	00000000 	nop
    e250:	a3c00060 	sb	zero,96(s8)
    e254:	8fc301ac 	lw	v1,428(s8)
    e258:	00000000 	nop
    e25c:	24620004 	addiu	v0,v1,4
    e260:	afc201ac 	sw	v0,428(s8)
    e264:	8c730000 	lw	s3,0(v1)
    e268:	00000000 	nop
    e26c:	1660000d 	bnez	s3,e2a4 <_vfiprintf_r+0xaac>
    e270:	00000000 	nop
    e274:	3c020001 	lui	v0,0x1
    e278:	24534dcc 	addiu	s3,v0,19916
    e27c:	8fc20018 	lw	v0,24(s8)
    e280:	00000000 	nop
    e284:	00401821 	move	v1,v0
    e288:	2c620007 	sltiu	v0,v1,7
    e28c:	14400002 	bnez	v0,e298 <_vfiprintf_r+0xaa0>
    e290:	00000000 	nop
    e294:	24030006 	li	v1,6
    e298:	afc30044 	sw	v1,68(s8)
    e29c:	080038d4 	j	e350 <_vfiprintf_r+0xb58>
    e2a0:	00000000 	nop
    e2a4:	8fc20018 	lw	v0,24(s8)
    e2a8:	00000000 	nop
    e2ac:	04400022 	bltz	v0,e338 <_vfiprintf_r+0xb40>
    e2b0:	00000000 	nop
    e2b4:	8fc20018 	lw	v0,24(s8)
    e2b8:	02602021 	move	a0,s3
    e2bc:	00002821 	move	a1,zero
    e2c0:	00403021 	move	a2,v0
    e2c4:	0c002687 	jal	9a1c <memchr>
    e2c8:	00000000 	nop
    e2cc:	afc2005c 	sw	v0,92(s8)
    e2d0:	8fc2005c 	lw	v0,92(s8)
    e2d4:	00000000 	nop
    e2d8:	10400010 	beqz	v0,e31c <_vfiprintf_r+0xb24>
    e2dc:	00000000 	nop
    e2e0:	8fc3005c 	lw	v1,92(s8)
    e2e4:	02601021 	move	v0,s3
    e2e8:	00621023 	subu	v0,v1,v0
    e2ec:	afc20044 	sw	v0,68(s8)
    e2f0:	8fc30044 	lw	v1,68(s8)
    e2f4:	8fc20018 	lw	v0,24(s8)
    e2f8:	00000000 	nop
    e2fc:	0043102a 	slt	v0,v0,v1
    e300:	1040000b 	beqz	v0,e330 <_vfiprintf_r+0xb38>
    e304:	00000000 	nop
    e308:	8fc20018 	lw	v0,24(s8)
    e30c:	00000000 	nop
    e310:	afc20044 	sw	v0,68(s8)
    e314:	080038d4 	j	e350 <_vfiprintf_r+0xb58>
    e318:	00000000 	nop
    e31c:	8fc20018 	lw	v0,24(s8)
    e320:	00000000 	nop
    e324:	afc20044 	sw	v0,68(s8)
    e328:	080038d4 	j	e350 <_vfiprintf_r+0xb58>
    e32c:	00000000 	nop
    e330:	080038d4 	j	e350 <_vfiprintf_r+0xb58>
    e334:	00000000 	nop
    e338:	02602021 	move	a0,s3
    e33c:	0c0033b0 	jal	cec0 <strlen>
    e340:	00000000 	nop
    e344:	afc20044 	sw	v0,68(s8)
    e348:	08003a8c 	j	ea30 <_vfiprintf_r+0x1238>
    e34c:	00000000 	nop
    e350:	08003a8c 	j	ea30 <_vfiprintf_r+0x1238>
    e354:	00000000 	nop
    e358:	36520010 	ori	s2,s2,0x10
    e35c:	32420020 	andi	v0,s2,0x20
    e360:	1040000c 	beqz	v0,e394 <_vfiprintf_r+0xb9c>
    e364:	00000000 	nop
    e368:	8fc201ac 	lw	v0,428(s8)
    e36c:	00000000 	nop
    e370:	24430007 	addiu	v1,v0,7
    e374:	2402fff8 	li	v0,-8
    e378:	00621824 	and	v1,v1,v0
    e37c:	24620008 	addiu	v0,v1,8
    e380:	afc201ac 	sw	v0,428(s8)
    e384:	8c620000 	lw	v0,0(v1)
    e388:	8c630004 	lw	v1,4(v1)
    e38c:	08003920 	j	e480 <_vfiprintf_r+0xc88>
    e390:	00000000 	nop
    e394:	32420010 	andi	v0,s2,0x10
    e398:	1040000b 	beqz	v0,e3c8 <_vfiprintf_r+0xbd0>
    e39c:	00000000 	nop
    e3a0:	8fc301ac 	lw	v1,428(s8)
    e3a4:	00000000 	nop
    e3a8:	24620004 	addiu	v0,v1,4
    e3ac:	afc201ac 	sw	v0,428(s8)
    e3b0:	8c620000 	lw	v0,0(v1)
    e3b4:	00000000 	nop
    e3b8:	afc20144 	sw	v0,324(s8)
    e3bc:	afc00140 	sw	zero,320(s8)
    e3c0:	0800391e 	j	e478 <_vfiprintf_r+0xc80>
    e3c4:	00000000 	nop
    e3c8:	32420040 	andi	v0,s2,0x40
    e3cc:	1040000c 	beqz	v0,e400 <_vfiprintf_r+0xc08>
    e3d0:	00000000 	nop
    e3d4:	8fc301ac 	lw	v1,428(s8)
    e3d8:	00000000 	nop
    e3dc:	24620004 	addiu	v0,v1,4
    e3e0:	afc201ac 	sw	v0,428(s8)
    e3e4:	8c620000 	lw	v0,0(v1)
    e3e8:	00000000 	nop
    e3ec:	3042ffff 	andi	v0,v0,0xffff
    e3f0:	afc2014c 	sw	v0,332(s8)
    e3f4:	afc00148 	sw	zero,328(s8)
    e3f8:	0800391a 	j	e468 <_vfiprintf_r+0xc70>
    e3fc:	00000000 	nop
    e400:	32420200 	andi	v0,s2,0x200
    e404:	1040000c 	beqz	v0,e438 <_vfiprintf_r+0xc40>
    e408:	00000000 	nop
    e40c:	8fc201ac 	lw	v0,428(s8)
    e410:	00000000 	nop
    e414:	24430004 	addiu	v1,v0,4
    e418:	afc301ac 	sw	v1,428(s8)
    e41c:	8c420000 	lw	v0,0(v0)
    e420:	00000000 	nop
    e424:	304200ff 	andi	v0,v0,0xff
    e428:	afc20154 	sw	v0,340(s8)
    e42c:	afc00150 	sw	zero,336(s8)
    e430:	08003916 	j	e458 <_vfiprintf_r+0xc60>
    e434:	00000000 	nop
    e438:	8fc201ac 	lw	v0,428(s8)
    e43c:	00000000 	nop
    e440:	24430004 	addiu	v1,v0,4
    e444:	afc301ac 	sw	v1,428(s8)
    e448:	8c420000 	lw	v0,0(v0)
    e44c:	00000000 	nop
    e450:	afc20154 	sw	v0,340(s8)
    e454:	afc00150 	sw	zero,336(s8)
    e458:	8fc30154 	lw	v1,340(s8)
    e45c:	8fc20150 	lw	v0,336(s8)
    e460:	afc3014c 	sw	v1,332(s8)
    e464:	afc20148 	sw	v0,328(s8)
    e468:	8fc5014c 	lw	a1,332(s8)
    e46c:	8fc40148 	lw	a0,328(s8)
    e470:	afc50144 	sw	a1,324(s8)
    e474:	afc40140 	sw	a0,320(s8)
    e478:	8fc30144 	lw	v1,324(s8)
    e47c:	8fc20140 	lw	v0,320(s8)
    e480:	afc30034 	sw	v1,52(s8)
    e484:	afc20030 	sw	v0,48(s8)
    e488:	24020001 	li	v0,1
    e48c:	a3c20038 	sb	v0,56(s8)
    e490:	0800398c 	j	e630 <_vfiprintf_r+0xe38>
    e494:	00000000 	nop
    e498:	3c020001 	lui	v0,0x1
    e49c:	24424dd4 	addiu	v0,v0,19924
    e4a0:	afc20048 	sw	v0,72(s8)
    e4a4:	0800392e 	j	e4b8 <_vfiprintf_r+0xcc0>
    e4a8:	00000000 	nop
    e4ac:	3c020001 	lui	v0,0x1
    e4b0:	24424db8 	addiu	v0,v0,19896
    e4b4:	afc20048 	sw	v0,72(s8)
    e4b8:	32420020 	andi	v0,s2,0x20
    e4bc:	1040000c 	beqz	v0,e4f0 <_vfiprintf_r+0xcf8>
    e4c0:	00000000 	nop
    e4c4:	8fc201ac 	lw	v0,428(s8)
    e4c8:	00000000 	nop
    e4cc:	24430007 	addiu	v1,v0,7
    e4d0:	2402fff8 	li	v0,-8
    e4d4:	00621824 	and	v1,v1,v0
    e4d8:	24620008 	addiu	v0,v1,8
    e4dc:	afc201ac 	sw	v0,428(s8)
    e4e0:	8c620000 	lw	v0,0(v1)
    e4e4:	8c630004 	lw	v1,4(v1)
    e4e8:	08003977 	j	e5dc <_vfiprintf_r+0xde4>
    e4ec:	00000000 	nop
    e4f0:	32420010 	andi	v0,s2,0x10
    e4f4:	1040000b 	beqz	v0,e524 <_vfiprintf_r+0xd2c>
    e4f8:	00000000 	nop
    e4fc:	8fc301ac 	lw	v1,428(s8)
    e500:	00000000 	nop
    e504:	24620004 	addiu	v0,v1,4
    e508:	afc201ac 	sw	v0,428(s8)
    e50c:	8c620000 	lw	v0,0(v1)
    e510:	00000000 	nop
    e514:	afc2015c 	sw	v0,348(s8)
    e518:	afc00158 	sw	zero,344(s8)
    e51c:	08003975 	j	e5d4 <_vfiprintf_r+0xddc>
    e520:	00000000 	nop
    e524:	32420040 	andi	v0,s2,0x40
    e528:	1040000c 	beqz	v0,e55c <_vfiprintf_r+0xd64>
    e52c:	00000000 	nop
    e530:	8fc301ac 	lw	v1,428(s8)
    e534:	00000000 	nop
    e538:	24620004 	addiu	v0,v1,4
    e53c:	afc201ac 	sw	v0,428(s8)
    e540:	8c620000 	lw	v0,0(v1)
    e544:	00000000 	nop
    e548:	3042ffff 	andi	v0,v0,0xffff
    e54c:	afc20164 	sw	v0,356(s8)
    e550:	afc00160 	sw	zero,352(s8)
    e554:	08003971 	j	e5c4 <_vfiprintf_r+0xdcc>
    e558:	00000000 	nop
    e55c:	32420200 	andi	v0,s2,0x200
    e560:	1040000c 	beqz	v0,e594 <_vfiprintf_r+0xd9c>
    e564:	00000000 	nop
    e568:	8fc301ac 	lw	v1,428(s8)
    e56c:	00000000 	nop
    e570:	24620004 	addiu	v0,v1,4
    e574:	afc201ac 	sw	v0,428(s8)
    e578:	8c620000 	lw	v0,0(v1)
    e57c:	00000000 	nop
    e580:	304200ff 	andi	v0,v0,0xff
    e584:	afc2016c 	sw	v0,364(s8)
    e588:	afc00168 	sw	zero,360(s8)
    e58c:	0800396d 	j	e5b4 <_vfiprintf_r+0xdbc>
    e590:	00000000 	nop
    e594:	8fc301ac 	lw	v1,428(s8)
    e598:	00000000 	nop
    e59c:	24620004 	addiu	v0,v1,4
    e5a0:	afc201ac 	sw	v0,428(s8)
    e5a4:	8c620000 	lw	v0,0(v1)
    e5a8:	00000000 	nop
    e5ac:	afc2016c 	sw	v0,364(s8)
    e5b0:	afc00168 	sw	zero,360(s8)
    e5b4:	8fc3016c 	lw	v1,364(s8)
    e5b8:	8fc20168 	lw	v0,360(s8)
    e5bc:	afc30164 	sw	v1,356(s8)
    e5c0:	afc20160 	sw	v0,352(s8)
    e5c4:	8fc50164 	lw	a1,356(s8)
    e5c8:	8fc40160 	lw	a0,352(s8)
    e5cc:	afc5015c 	sw	a1,348(s8)
    e5d0:	afc40158 	sw	a0,344(s8)
    e5d4:	8fc3015c 	lw	v1,348(s8)
    e5d8:	8fc20158 	lw	v0,344(s8)
    e5dc:	afc30034 	sw	v1,52(s8)
    e5e0:	afc20030 	sw	v0,48(s8)
    e5e4:	24020002 	li	v0,2
    e5e8:	a3c20038 	sb	v0,56(s8)
    e5ec:	32420001 	andi	v0,s2,0x1
    e5f0:	1040000d 	beqz	v0,e628 <_vfiprintf_r+0xe30>
    e5f4:	00000000 	nop
    e5f8:	8fc30030 	lw	v1,48(s8)
    e5fc:	8fc20034 	lw	v0,52(s8)
    e600:	00000000 	nop
    e604:	00621825 	or	v1,v1,v0
    e608:	10600007 	beqz	v1,e628 <_vfiprintf_r+0xe30>
    e60c:	00000000 	nop
    e610:	24020030 	li	v0,48
    e614:	a3c20114 	sb	v0,276(s8)
    e618:	00111600 	sll	v0,s1,0x18
    e61c:	00021603 	sra	v0,v0,0x18
    e620:	a3c20115 	sb	v0,277(s8)
    e624:	36520002 	ori	s2,s2,0x2
    e628:	2402fbff 	li	v0,-1025
    e62c:	02429024 	and	s2,s2,v0
    e630:	a3c00060 	sb	zero,96(s8)
    e634:	8fc20018 	lw	v0,24(s8)
    e638:	00000000 	nop
    e63c:	afc2003c 	sw	v0,60(s8)
    e640:	8fc2003c 	lw	v0,60(s8)
    e644:	00000000 	nop
    e648:	04400003 	bltz	v0,e658 <_vfiprintf_r+0xe60>
    e64c:	00000000 	nop
    e650:	2402ff7f 	li	v0,-129
    e654:	02429024 	and	s2,s2,v0
    e658:	27d300b0 	addiu	s3,s8,176
    e65c:	26730064 	addiu	s3,s3,100
    e660:	8fc30030 	lw	v1,48(s8)
    e664:	8fc20034 	lw	v0,52(s8)
    e668:	00000000 	nop
    e66c:	00621825 	or	v1,v1,v0
    e670:	14600005 	bnez	v1,e688 <_vfiprintf_r+0xe90>
    e674:	00000000 	nop
    e678:	8fc20018 	lw	v0,24(s8)
    e67c:	00000000 	nop
    e680:	104000ce 	beqz	v0,e9bc <_vfiprintf_r+0x11c4>
    e684:	00000000 	nop
    e688:	93c30038 	lbu	v1,56(s8)
    e68c:	24020001 	li	v0,1
    e690:	10620030 	beq	v1,v0,e754 <_vfiprintf_r+0xf5c>
    e694:	00000000 	nop
    e698:	24020002 	li	v0,2
    e69c:	1062009e 	beq	v1,v0,e918 <_vfiprintf_r+0x1120>
    e6a0:	00000000 	nop
    e6a4:	146000ba 	bnez	v1,e990 <_vfiprintf_r+0x1198>
    e6a8:	00000000 	nop
    e6ac:	2673ffff 	addiu	s3,s3,-1
    e6b0:	93c20037 	lbu	v0,55(s8)
    e6b4:	00000000 	nop
    e6b8:	30420007 	andi	v0,v0,0x7
    e6bc:	304200ff 	andi	v0,v0,0xff
    e6c0:	24420030 	addiu	v0,v0,48
    e6c4:	304200ff 	andi	v0,v0,0xff
    e6c8:	00021600 	sll	v0,v0,0x18
    e6cc:	00021603 	sra	v0,v0,0x18
    e6d0:	a2620000 	sb	v0,0(s3)
    e6d4:	8fc20030 	lw	v0,48(s8)
    e6d8:	00000000 	nop
    e6dc:	00021f40 	sll	v1,v0,0x1d
    e6e0:	8fc20034 	lw	v0,52(s8)
    e6e4:	00000000 	nop
    e6e8:	000210c2 	srl	v0,v0,0x3
    e6ec:	00431025 	or	v0,v0,v1
    e6f0:	afc20034 	sw	v0,52(s8)
    e6f4:	8fc20030 	lw	v0,48(s8)
    e6f8:	00000000 	nop
    e6fc:	000210c2 	srl	v0,v0,0x3
    e700:	afc20030 	sw	v0,48(s8)
    e704:	8fc30030 	lw	v1,48(s8)
    e708:	8fc20034 	lw	v0,52(s8)
    e70c:	00000000 	nop
    e710:	00621825 	or	v1,v1,v0
    e714:	1460ffe5 	bnez	v1,e6ac <_vfiprintf_r+0xeb4>
    e718:	00000000 	nop
    e71c:	32420001 	andi	v0,s2,0x1
    e720:	1040000a 	beqz	v0,e74c <_vfiprintf_r+0xf54>
    e724:	00000000 	nop
    e728:	82630000 	lb	v1,0(s3)
    e72c:	24020030 	li	v0,48
    e730:	10620006 	beq	v1,v0,e74c <_vfiprintf_r+0xf54>
    e734:	00000000 	nop
    e738:	2673ffff 	addiu	s3,s3,-1
    e73c:	24020030 	li	v0,48
    e740:	a2620000 	sb	v0,0(s3)
    e744:	08003a6d 	j	e9b4 <_vfiprintf_r+0x11bc>
    e748:	00000000 	nop
    e74c:	08003a6d 	j	e9b4 <_vfiprintf_r+0x11bc>
    e750:	00000000 	nop
    e754:	8fc20030 	lw	v0,48(s8)
    e758:	00000000 	nop
    e75c:	14400014 	bnez	v0,e7b0 <_vfiprintf_r+0xfb8>
    e760:	00000000 	nop
    e764:	8fc20030 	lw	v0,48(s8)
    e768:	00000000 	nop
    e76c:	14400006 	bnez	v0,e788 <_vfiprintf_r+0xf90>
    e770:	00000000 	nop
    e774:	8fc20034 	lw	v0,52(s8)
    e778:	00000000 	nop
    e77c:	2c42000a 	sltiu	v0,v0,10
    e780:	1040000b 	beqz	v0,e7b0 <_vfiprintf_r+0xfb8>
    e784:	00000000 	nop
    e788:	2673ffff 	addiu	s3,s3,-1
    e78c:	93c20037 	lbu	v0,55(s8)
    e790:	00000000 	nop
    e794:	24420030 	addiu	v0,v0,48
    e798:	304200ff 	andi	v0,v0,0xff
    e79c:	00021600 	sll	v0,v0,0x18
    e7a0:	00021603 	sra	v0,v0,0x18
    e7a4:	a2620000 	sb	v0,0(s3)
    e7a8:	08003a6d 	j	e9b4 <_vfiprintf_r+0x11bc>
    e7ac:	00000000 	nop
    e7b0:	afc00028 	sw	zero,40(s8)
    e7b4:	2673ffff 	addiu	s3,s3,-1
    e7b8:	8fc30034 	lw	v1,52(s8)
    e7bc:	8fc20030 	lw	v0,48(s8)
    e7c0:	00602821 	move	a1,v1
    e7c4:	00402021 	move	a0,v0
    e7c8:	2407000a 	li	a3,10
    e7cc:	00003021 	move	a2,zero
    e7d0:	0c004bdd 	jal	12f74 <__umoddi3>
    e7d4:	00000000 	nop
    e7d8:	306200ff 	andi	v0,v1,0xff
    e7dc:	24420030 	addiu	v0,v0,48
    e7e0:	304200ff 	andi	v0,v0,0xff
    e7e4:	00021600 	sll	v0,v0,0x18
    e7e8:	00021603 	sra	v0,v0,0x18
    e7ec:	a2620000 	sb	v0,0(s3)
    e7f0:	8fc20028 	lw	v0,40(s8)
    e7f4:	00000000 	nop
    e7f8:	24420001 	addiu	v0,v0,1
    e7fc:	afc20028 	sw	v0,40(s8)
    e800:	32420400 	andi	v0,s2,0x400
    e804:	10400032 	beqz	v0,e8d0 <_vfiprintf_r+0x10d8>
    e808:	00000000 	nop
    e80c:	8fc20024 	lw	v0,36(s8)
    e810:	00000000 	nop
    e814:	80420000 	lb	v0,0(v0)
    e818:	00000000 	nop
    e81c:	00401821 	move	v1,v0
    e820:	8fc20028 	lw	v0,40(s8)
    e824:	00000000 	nop
    e828:	14620029 	bne	v1,v0,e8d0 <_vfiprintf_r+0x10d8>
    e82c:	00000000 	nop
    e830:	8fc20024 	lw	v0,36(s8)
    e834:	00000000 	nop
    e838:	80430000 	lb	v1,0(v0)
    e83c:	2402007f 	li	v0,127
    e840:	10620023 	beq	v1,v0,e8d0 <_vfiprintf_r+0x10d8>
    e844:	00000000 	nop
    e848:	8fc20030 	lw	v0,48(s8)
    e84c:	00000000 	nop
    e850:	1440000a 	bnez	v0,e87c <_vfiprintf_r+0x1084>
    e854:	00000000 	nop
    e858:	8fc20030 	lw	v0,48(s8)
    e85c:	00000000 	nop
    e860:	1440001b 	bnez	v0,e8d0 <_vfiprintf_r+0x10d8>
    e864:	00000000 	nop
    e868:	8fc20034 	lw	v0,52(s8)
    e86c:	00000000 	nop
    e870:	2c42000a 	sltiu	v0,v0,10
    e874:	14400016 	bnez	v0,e8d0 <_vfiprintf_r+0x10d8>
    e878:	00000000 	nop
    e87c:	8fc20020 	lw	v0,32(s8)
    e880:	00000000 	nop
    e884:	00021023 	negu	v0,v0
    e888:	02629821 	addu	s3,s3,v0
    e88c:	02602021 	move	a0,s3
    e890:	8fc5001c 	lw	a1,28(s8)
    e894:	8fc60020 	lw	a2,32(s8)
    e898:	0c0033b7 	jal	cedc <strncpy>
    e89c:	00000000 	nop
    e8a0:	afc00028 	sw	zero,40(s8)
    e8a4:	8fc20024 	lw	v0,36(s8)
    e8a8:	00000000 	nop
    e8ac:	24420001 	addiu	v0,v0,1
    e8b0:	80420000 	lb	v0,0(v0)
    e8b4:	00000000 	nop
    e8b8:	10400005 	beqz	v0,e8d0 <_vfiprintf_r+0x10d8>
    e8bc:	00000000 	nop
    e8c0:	8fc20024 	lw	v0,36(s8)
    e8c4:	00000000 	nop
    e8c8:	24420001 	addiu	v0,v0,1
    e8cc:	afc20024 	sw	v0,36(s8)
    e8d0:	8fc30034 	lw	v1,52(s8)
    e8d4:	8fc20030 	lw	v0,48(s8)
    e8d8:	00602821 	move	a1,v1
    e8dc:	00402021 	move	a0,v0
    e8e0:	2407000a 	li	a3,10
    e8e4:	00003021 	move	a2,zero
    e8e8:	0c004a49 	jal	12924 <__udivdi3>
    e8ec:	00000000 	nop
    e8f0:	afc30034 	sw	v1,52(s8)
    e8f4:	afc20030 	sw	v0,48(s8)
    e8f8:	8fc30030 	lw	v1,48(s8)
    e8fc:	8fc20034 	lw	v0,52(s8)
    e900:	00000000 	nop
    e904:	00621825 	or	v1,v1,v0
    e908:	1460ffaa 	bnez	v1,e7b4 <_vfiprintf_r+0xfbc>
    e90c:	00000000 	nop
    e910:	08003a6d 	j	e9b4 <_vfiprintf_r+0x11bc>
    e914:	00000000 	nop
    e918:	2673ffff 	addiu	s3,s3,-1
    e91c:	8fc20034 	lw	v0,52(s8)
    e920:	00000000 	nop
    e924:	3043000f 	andi	v1,v0,0xf
    e928:	8fc20048 	lw	v0,72(s8)
    e92c:	00000000 	nop
    e930:	00431021 	addu	v0,v0,v1
    e934:	80420000 	lb	v0,0(v0)
    e938:	00000000 	nop
    e93c:	a2620000 	sb	v0,0(s3)
    e940:	8fc20030 	lw	v0,48(s8)
    e944:	00000000 	nop
    e948:	00021f00 	sll	v1,v0,0x1c
    e94c:	8fc20034 	lw	v0,52(s8)
    e950:	00000000 	nop
    e954:	00021102 	srl	v0,v0,0x4
    e958:	00431025 	or	v0,v0,v1
    e95c:	afc20034 	sw	v0,52(s8)
    e960:	8fc20030 	lw	v0,48(s8)
    e964:	00000000 	nop
    e968:	00021102 	srl	v0,v0,0x4
    e96c:	afc20030 	sw	v0,48(s8)
    e970:	8fc30030 	lw	v1,48(s8)
    e974:	8fc20034 	lw	v0,52(s8)
    e978:	00000000 	nop
    e97c:	00621825 	or	v1,v1,v0
    e980:	1460ffe5 	bnez	v1,e918 <_vfiprintf_r+0x1120>
    e984:	00000000 	nop
    e988:	08003a6d 	j	e9b4 <_vfiprintf_r+0x11bc>
    e98c:	00000000 	nop
    e990:	3c020001 	lui	v0,0x1
    e994:	24534de8 	addiu	s3,v0,19944
    e998:	02602021 	move	a0,s3
    e99c:	0c0033b0 	jal	cec0 <strlen>
    e9a0:	00000000 	nop
    e9a4:	afc20044 	sw	v0,68(s8)
    e9a8:	00000000 	nop
    e9ac:	08003a8c 	j	ea30 <_vfiprintf_r+0x1238>
    e9b0:	00000000 	nop
    e9b4:	08003a79 	j	e9e4 <_vfiprintf_r+0x11ec>
    e9b8:	00000000 	nop
    e9bc:	93c20038 	lbu	v0,56(s8)
    e9c0:	00000000 	nop
    e9c4:	14400007 	bnez	v0,e9e4 <_vfiprintf_r+0x11ec>
    e9c8:	00000000 	nop
    e9cc:	32420001 	andi	v0,s2,0x1
    e9d0:	10400004 	beqz	v0,e9e4 <_vfiprintf_r+0x11ec>
    e9d4:	00000000 	nop
    e9d8:	2673ffff 	addiu	s3,s3,-1
    e9dc:	24020030 	li	v0,48
    e9e0:	a2620000 	sb	v0,0(s3)
    e9e4:	27c300b0 	addiu	v1,s8,176
    e9e8:	24630064 	addiu	v1,v1,100
    e9ec:	02601021 	move	v0,s3
    e9f0:	00621023 	subu	v0,v1,v0
    e9f4:	afc20044 	sw	v0,68(s8)
    e9f8:	08003a8c 	j	ea30 <_vfiprintf_r+0x1238>
    e9fc:	00000000 	nop
    ea00:	16200003 	bnez	s1,ea10 <_vfiprintf_r+0x1218>
    ea04:	00000000 	nop
    ea08:	08003c54 	j	f150 <_vfiprintf_r+0x1958>
    ea0c:	00000000 	nop
    ea10:	27d300b0 	addiu	s3,s8,176
    ea14:	00111600 	sll	v0,s1,0x18
    ea18:	00021603 	sra	v0,v0,0x18
    ea1c:	a2620000 	sb	v0,0(s3)
    ea20:	24020001 	li	v0,1
    ea24:	afc20044 	sw	v0,68(s8)
    ea28:	a3c00060 	sb	zero,96(s8)
    ea2c:	00000000 	nop
    ea30:	8fc4003c 	lw	a0,60(s8)
    ea34:	8fc30044 	lw	v1,68(s8)
    ea38:	00000000 	nop
    ea3c:	0064102a 	slt	v0,v1,a0
    ea40:	10400002 	beqz	v0,ea4c <_vfiprintf_r+0x1254>
    ea44:	00000000 	nop
    ea48:	00801821 	move	v1,a0
    ea4c:	afc30040 	sw	v1,64(s8)
    ea50:	83c20060 	lb	v0,96(s8)
    ea54:	00000000 	nop
    ea58:	10400005 	beqz	v0,ea70 <_vfiprintf_r+0x1278>
    ea5c:	00000000 	nop
    ea60:	8fc20040 	lw	v0,64(s8)
    ea64:	00000000 	nop
    ea68:	24420001 	addiu	v0,v0,1
    ea6c:	afc20040 	sw	v0,64(s8)
    ea70:	32420002 	andi	v0,s2,0x2
    ea74:	10400005 	beqz	v0,ea8c <_vfiprintf_r+0x1294>
    ea78:	00000000 	nop
    ea7c:	8fc20040 	lw	v0,64(s8)
    ea80:	00000000 	nop
    ea84:	24420002 	addiu	v0,v0,2
    ea88:	afc20040 	sw	v0,64(s8)
    ea8c:	32420084 	andi	v0,s2,0x84
    ea90:	14400049 	bnez	v0,ebb8 <_vfiprintf_r+0x13c0>
    ea94:	00000000 	nop
    ea98:	8fc30014 	lw	v1,20(s8)
    ea9c:	8fc20040 	lw	v0,64(s8)
    eaa0:	00000000 	nop
    eaa4:	00628023 	subu	s0,v1,v0
    eaa8:	1a000043 	blez	s0,ebb8 <_vfiprintf_r+0x13c0>
    eaac:	00000000 	nop
    eab0:	08003acd 	j	eb34 <_vfiprintf_r+0x133c>
    eab4:	00000000 	nop
    eab8:	3c020001 	lui	v0,0x1
    eabc:	24424f70 	addiu	v0,v0,20336
    eac0:	ae820000 	sw	v0,0(s4)
    eac4:	24020010 	li	v0,16
    eac8:	ae820004 	sw	v0,4(s4)
    eacc:	8fc2006c 	lw	v0,108(s8)
    ead0:	00000000 	nop
    ead4:	24420010 	addiu	v0,v0,16
    ead8:	afc2006c 	sw	v0,108(s8)
    eadc:	26940008 	addiu	s4,s4,8
    eae0:	8fc20068 	lw	v0,104(s8)
    eae4:	00000000 	nop
    eae8:	24420001 	addiu	v0,v0,1
    eaec:	afc20068 	sw	v0,104(s8)
    eaf0:	8fc20068 	lw	v0,104(s8)
    eaf4:	00000000 	nop
    eaf8:	28420008 	slti	v0,v0,8
    eafc:	1440000c 	bnez	v0,eb30 <_vfiprintf_r+0x1338>
    eb00:	00000000 	nop
    eb04:	27c20064 	addiu	v0,s8,100
    eb08:	8fc401a0 	lw	a0,416(s8)
    eb0c:	8fc501a4 	lw	a1,420(s8)
    eb10:	00403021 	move	a2,v0
    eb14:	0c00352c 	jal	d4b0 <__sprint_r>
    eb18:	00000000 	nop
    eb1c:	10400003 	beqz	v0,eb2c <_vfiprintf_r+0x1334>
    eb20:	00000000 	nop
    eb24:	08003c64 	j	f190 <_vfiprintf_r+0x1998>
    eb28:	00000000 	nop
    eb2c:	27d40070 	addiu	s4,s8,112
    eb30:	2610fff0 	addiu	s0,s0,-16
    eb34:	2a020011 	slti	v0,s0,17
    eb38:	1040ffdf 	beqz	v0,eab8 <_vfiprintf_r+0x12c0>
    eb3c:	00000000 	nop
    eb40:	3c020001 	lui	v0,0x1
    eb44:	24424f70 	addiu	v0,v0,20336
    eb48:	ae820000 	sw	v0,0(s4)
    eb4c:	02001021 	move	v0,s0
    eb50:	ae820004 	sw	v0,4(s4)
    eb54:	8fc2006c 	lw	v0,108(s8)
    eb58:	00000000 	nop
    eb5c:	00501021 	addu	v0,v0,s0
    eb60:	afc2006c 	sw	v0,108(s8)
    eb64:	26940008 	addiu	s4,s4,8
    eb68:	8fc20068 	lw	v0,104(s8)
    eb6c:	00000000 	nop
    eb70:	24420001 	addiu	v0,v0,1
    eb74:	afc20068 	sw	v0,104(s8)
    eb78:	8fc20068 	lw	v0,104(s8)
    eb7c:	00000000 	nop
    eb80:	28420008 	slti	v0,v0,8
    eb84:	1440000c 	bnez	v0,ebb8 <_vfiprintf_r+0x13c0>
    eb88:	00000000 	nop
    eb8c:	27c20064 	addiu	v0,s8,100
    eb90:	8fc401a0 	lw	a0,416(s8)
    eb94:	8fc501a4 	lw	a1,420(s8)
    eb98:	00403021 	move	a2,v0
    eb9c:	0c00352c 	jal	d4b0 <__sprint_r>
    eba0:	00000000 	nop
    eba4:	10400003 	beqz	v0,ebb4 <_vfiprintf_r+0x13bc>
    eba8:	00000000 	nop
    ebac:	08003c64 	j	f190 <_vfiprintf_r+0x1998>
    ebb0:	00000000 	nop
    ebb4:	27d40070 	addiu	s4,s8,112
    ebb8:	83c20060 	lb	v0,96(s8)
    ebbc:	00000000 	nop
    ebc0:	1040001e 	beqz	v0,ec3c <_vfiprintf_r+0x1444>
    ebc4:	00000000 	nop
    ebc8:	27c20060 	addiu	v0,s8,96
    ebcc:	ae820000 	sw	v0,0(s4)
    ebd0:	24020001 	li	v0,1
    ebd4:	ae820004 	sw	v0,4(s4)
    ebd8:	8fc2006c 	lw	v0,108(s8)
    ebdc:	00000000 	nop
    ebe0:	24420001 	addiu	v0,v0,1
    ebe4:	afc2006c 	sw	v0,108(s8)
    ebe8:	26940008 	addiu	s4,s4,8
    ebec:	8fc20068 	lw	v0,104(s8)
    ebf0:	00000000 	nop
    ebf4:	24420001 	addiu	v0,v0,1
    ebf8:	afc20068 	sw	v0,104(s8)
    ebfc:	8fc20068 	lw	v0,104(s8)
    ec00:	00000000 	nop
    ec04:	28420008 	slti	v0,v0,8
    ec08:	1440000c 	bnez	v0,ec3c <_vfiprintf_r+0x1444>
    ec0c:	00000000 	nop
    ec10:	27c20064 	addiu	v0,s8,100
    ec14:	8fc401a0 	lw	a0,416(s8)
    ec18:	8fc501a4 	lw	a1,420(s8)
    ec1c:	00403021 	move	a2,v0
    ec20:	0c00352c 	jal	d4b0 <__sprint_r>
    ec24:	00000000 	nop
    ec28:	10400003 	beqz	v0,ec38 <_vfiprintf_r+0x1440>
    ec2c:	00000000 	nop
    ec30:	08003c64 	j	f190 <_vfiprintf_r+0x1998>
    ec34:	00000000 	nop
    ec38:	27d40070 	addiu	s4,s8,112
    ec3c:	32420002 	andi	v0,s2,0x2
    ec40:	1040001e 	beqz	v0,ecbc <_vfiprintf_r+0x14c4>
    ec44:	00000000 	nop
    ec48:	27c20114 	addiu	v0,s8,276
    ec4c:	ae820000 	sw	v0,0(s4)
    ec50:	24020002 	li	v0,2
    ec54:	ae820004 	sw	v0,4(s4)
    ec58:	8fc2006c 	lw	v0,108(s8)
    ec5c:	00000000 	nop
    ec60:	24420002 	addiu	v0,v0,2
    ec64:	afc2006c 	sw	v0,108(s8)
    ec68:	26940008 	addiu	s4,s4,8
    ec6c:	8fc20068 	lw	v0,104(s8)
    ec70:	00000000 	nop
    ec74:	24420001 	addiu	v0,v0,1
    ec78:	afc20068 	sw	v0,104(s8)
    ec7c:	8fc20068 	lw	v0,104(s8)
    ec80:	00000000 	nop
    ec84:	28420008 	slti	v0,v0,8
    ec88:	1440000c 	bnez	v0,ecbc <_vfiprintf_r+0x14c4>
    ec8c:	00000000 	nop
    ec90:	27c20064 	addiu	v0,s8,100
    ec94:	8fc401a0 	lw	a0,416(s8)
    ec98:	8fc501a4 	lw	a1,420(s8)
    ec9c:	00403021 	move	a2,v0
    eca0:	0c00352c 	jal	d4b0 <__sprint_r>
    eca4:	00000000 	nop
    eca8:	10400003 	beqz	v0,ecb8 <_vfiprintf_r+0x14c0>
    ecac:	00000000 	nop
    ecb0:	08003c64 	j	f190 <_vfiprintf_r+0x1998>
    ecb4:	00000000 	nop
    ecb8:	27d40070 	addiu	s4,s8,112
    ecbc:	32430084 	andi	v1,s2,0x84
    ecc0:	24020080 	li	v0,128
    ecc4:	14620049 	bne	v1,v0,edec <_vfiprintf_r+0x15f4>
    ecc8:	00000000 	nop
    eccc:	8fc30014 	lw	v1,20(s8)
    ecd0:	8fc20040 	lw	v0,64(s8)
    ecd4:	00000000 	nop
    ecd8:	00628023 	subu	s0,v1,v0
    ecdc:	1a000043 	blez	s0,edec <_vfiprintf_r+0x15f4>
    ece0:	00000000 	nop
    ece4:	08003b5a 	j	ed68 <_vfiprintf_r+0x1570>
    ece8:	00000000 	nop
    ecec:	3c020001 	lui	v0,0x1
    ecf0:	24424f80 	addiu	v0,v0,20352
    ecf4:	ae820000 	sw	v0,0(s4)
    ecf8:	24020010 	li	v0,16
    ecfc:	ae820004 	sw	v0,4(s4)
    ed00:	8fc2006c 	lw	v0,108(s8)
    ed04:	00000000 	nop
    ed08:	24420010 	addiu	v0,v0,16
    ed0c:	afc2006c 	sw	v0,108(s8)
    ed10:	26940008 	addiu	s4,s4,8
    ed14:	8fc20068 	lw	v0,104(s8)
    ed18:	00000000 	nop
    ed1c:	24420001 	addiu	v0,v0,1
    ed20:	afc20068 	sw	v0,104(s8)
    ed24:	8fc20068 	lw	v0,104(s8)
    ed28:	00000000 	nop
    ed2c:	28420008 	slti	v0,v0,8
    ed30:	1440000c 	bnez	v0,ed64 <_vfiprintf_r+0x156c>
    ed34:	00000000 	nop
    ed38:	27c20064 	addiu	v0,s8,100
    ed3c:	8fc401a0 	lw	a0,416(s8)
    ed40:	8fc501a4 	lw	a1,420(s8)
    ed44:	00403021 	move	a2,v0
    ed48:	0c00352c 	jal	d4b0 <__sprint_r>
    ed4c:	00000000 	nop
    ed50:	10400003 	beqz	v0,ed60 <_vfiprintf_r+0x1568>
    ed54:	00000000 	nop
    ed58:	08003c64 	j	f190 <_vfiprintf_r+0x1998>
    ed5c:	00000000 	nop
    ed60:	27d40070 	addiu	s4,s8,112
    ed64:	2610fff0 	addiu	s0,s0,-16
    ed68:	2a020011 	slti	v0,s0,17
    ed6c:	1040ffdf 	beqz	v0,ecec <_vfiprintf_r+0x14f4>
    ed70:	00000000 	nop
    ed74:	3c020001 	lui	v0,0x1
    ed78:	24424f80 	addiu	v0,v0,20352
    ed7c:	ae820000 	sw	v0,0(s4)
    ed80:	02001021 	move	v0,s0
    ed84:	ae820004 	sw	v0,4(s4)
    ed88:	8fc2006c 	lw	v0,108(s8)
    ed8c:	00000000 	nop
    ed90:	00501021 	addu	v0,v0,s0
    ed94:	afc2006c 	sw	v0,108(s8)
    ed98:	26940008 	addiu	s4,s4,8
    ed9c:	8fc20068 	lw	v0,104(s8)
    eda0:	00000000 	nop
    eda4:	24420001 	addiu	v0,v0,1
    eda8:	afc20068 	sw	v0,104(s8)
    edac:	8fc20068 	lw	v0,104(s8)
    edb0:	00000000 	nop
    edb4:	28420008 	slti	v0,v0,8
    edb8:	1440000c 	bnez	v0,edec <_vfiprintf_r+0x15f4>
    edbc:	00000000 	nop
    edc0:	27c20064 	addiu	v0,s8,100
    edc4:	8fc401a0 	lw	a0,416(s8)
    edc8:	8fc501a4 	lw	a1,420(s8)
    edcc:	00403021 	move	a2,v0
    edd0:	0c00352c 	jal	d4b0 <__sprint_r>
    edd4:	00000000 	nop
    edd8:	10400003 	beqz	v0,ede8 <_vfiprintf_r+0x15f0>
    eddc:	00000000 	nop
    ede0:	08003c64 	j	f190 <_vfiprintf_r+0x1998>
    ede4:	00000000 	nop
    ede8:	27d40070 	addiu	s4,s8,112
    edec:	8fc3003c 	lw	v1,60(s8)
    edf0:	8fc20044 	lw	v0,68(s8)
    edf4:	00000000 	nop
    edf8:	00628023 	subu	s0,v1,v0
    edfc:	1a000043 	blez	s0,ef0c <_vfiprintf_r+0x1714>
    ee00:	00000000 	nop
    ee04:	08003ba2 	j	ee88 <_vfiprintf_r+0x1690>
    ee08:	00000000 	nop
    ee0c:	3c020001 	lui	v0,0x1
    ee10:	24424f80 	addiu	v0,v0,20352
    ee14:	ae820000 	sw	v0,0(s4)
    ee18:	24020010 	li	v0,16
    ee1c:	ae820004 	sw	v0,4(s4)
    ee20:	8fc2006c 	lw	v0,108(s8)
    ee24:	00000000 	nop
    ee28:	24420010 	addiu	v0,v0,16
    ee2c:	afc2006c 	sw	v0,108(s8)
    ee30:	26940008 	addiu	s4,s4,8
    ee34:	8fc20068 	lw	v0,104(s8)
    ee38:	00000000 	nop
    ee3c:	24420001 	addiu	v0,v0,1
    ee40:	afc20068 	sw	v0,104(s8)
    ee44:	8fc20068 	lw	v0,104(s8)
    ee48:	00000000 	nop
    ee4c:	28420008 	slti	v0,v0,8
    ee50:	1440000c 	bnez	v0,ee84 <_vfiprintf_r+0x168c>
    ee54:	00000000 	nop
    ee58:	27c20064 	addiu	v0,s8,100
    ee5c:	8fc401a0 	lw	a0,416(s8)
    ee60:	8fc501a4 	lw	a1,420(s8)
    ee64:	00403021 	move	a2,v0
    ee68:	0c00352c 	jal	d4b0 <__sprint_r>
    ee6c:	00000000 	nop
    ee70:	10400003 	beqz	v0,ee80 <_vfiprintf_r+0x1688>
    ee74:	00000000 	nop
    ee78:	08003c64 	j	f190 <_vfiprintf_r+0x1998>
    ee7c:	00000000 	nop
    ee80:	27d40070 	addiu	s4,s8,112
    ee84:	2610fff0 	addiu	s0,s0,-16
    ee88:	2a020011 	slti	v0,s0,17
    ee8c:	1040ffdf 	beqz	v0,ee0c <_vfiprintf_r+0x1614>
    ee90:	00000000 	nop
    ee94:	3c020001 	lui	v0,0x1
    ee98:	24424f80 	addiu	v0,v0,20352
    ee9c:	ae820000 	sw	v0,0(s4)
    eea0:	02001021 	move	v0,s0
    eea4:	ae820004 	sw	v0,4(s4)
    eea8:	8fc2006c 	lw	v0,108(s8)
    eeac:	00000000 	nop
    eeb0:	00501021 	addu	v0,v0,s0
    eeb4:	afc2006c 	sw	v0,108(s8)
    eeb8:	26940008 	addiu	s4,s4,8
    eebc:	8fc20068 	lw	v0,104(s8)
    eec0:	00000000 	nop
    eec4:	24420001 	addiu	v0,v0,1
    eec8:	afc20068 	sw	v0,104(s8)
    eecc:	8fc20068 	lw	v0,104(s8)
    eed0:	00000000 	nop
    eed4:	28420008 	slti	v0,v0,8
    eed8:	1440000c 	bnez	v0,ef0c <_vfiprintf_r+0x1714>
    eedc:	00000000 	nop
    eee0:	27c20064 	addiu	v0,s8,100
    eee4:	8fc401a0 	lw	a0,416(s8)
    eee8:	8fc501a4 	lw	a1,420(s8)
    eeec:	00403021 	move	a2,v0
    eef0:	0c00352c 	jal	d4b0 <__sprint_r>
    eef4:	00000000 	nop
    eef8:	10400003 	beqz	v0,ef08 <_vfiprintf_r+0x1710>
    eefc:	00000000 	nop
    ef00:	08003c64 	j	f190 <_vfiprintf_r+0x1998>
    ef04:	00000000 	nop
    ef08:	27d40070 	addiu	s4,s8,112
    ef0c:	ae930000 	sw	s3,0(s4)
    ef10:	8fc20044 	lw	v0,68(s8)
    ef14:	00000000 	nop
    ef18:	ae820004 	sw	v0,4(s4)
    ef1c:	8fc3006c 	lw	v1,108(s8)
    ef20:	8fc20044 	lw	v0,68(s8)
    ef24:	00000000 	nop
    ef28:	00621021 	addu	v0,v1,v0
    ef2c:	afc2006c 	sw	v0,108(s8)
    ef30:	26940008 	addiu	s4,s4,8
    ef34:	8fc20068 	lw	v0,104(s8)
    ef38:	00000000 	nop
    ef3c:	24420001 	addiu	v0,v0,1
    ef40:	afc20068 	sw	v0,104(s8)
    ef44:	8fc20068 	lw	v0,104(s8)
    ef48:	00000000 	nop
    ef4c:	28420008 	slti	v0,v0,8
    ef50:	1440000c 	bnez	v0,ef84 <_vfiprintf_r+0x178c>
    ef54:	00000000 	nop
    ef58:	27c20064 	addiu	v0,s8,100
    ef5c:	8fc401a0 	lw	a0,416(s8)
    ef60:	8fc501a4 	lw	a1,420(s8)
    ef64:	00403021 	move	a2,v0
    ef68:	0c00352c 	jal	d4b0 <__sprint_r>
    ef6c:	00000000 	nop
    ef70:	10400003 	beqz	v0,ef80 <_vfiprintf_r+0x1788>
    ef74:	00000000 	nop
    ef78:	08003c64 	j	f190 <_vfiprintf_r+0x1998>
    ef7c:	00000000 	nop
    ef80:	27d40070 	addiu	s4,s8,112
    ef84:	32420004 	andi	v0,s2,0x4
    ef88:	10400049 	beqz	v0,f0b0 <_vfiprintf_r+0x18b8>
    ef8c:	00000000 	nop
    ef90:	8fc30014 	lw	v1,20(s8)
    ef94:	8fc20040 	lw	v0,64(s8)
    ef98:	00000000 	nop
    ef9c:	00628023 	subu	s0,v1,v0
    efa0:	1a000043 	blez	s0,f0b0 <_vfiprintf_r+0x18b8>
    efa4:	00000000 	nop
    efa8:	08003c0b 	j	f02c <_vfiprintf_r+0x1834>
    efac:	00000000 	nop
    efb0:	3c020001 	lui	v0,0x1
    efb4:	24424f70 	addiu	v0,v0,20336
    efb8:	ae820000 	sw	v0,0(s4)
    efbc:	24020010 	li	v0,16
    efc0:	ae820004 	sw	v0,4(s4)
    efc4:	8fc2006c 	lw	v0,108(s8)
    efc8:	00000000 	nop
    efcc:	24420010 	addiu	v0,v0,16
    efd0:	afc2006c 	sw	v0,108(s8)
    efd4:	26940008 	addiu	s4,s4,8
    efd8:	8fc20068 	lw	v0,104(s8)
    efdc:	00000000 	nop
    efe0:	24420001 	addiu	v0,v0,1
    efe4:	afc20068 	sw	v0,104(s8)
    efe8:	8fc20068 	lw	v0,104(s8)
    efec:	00000000 	nop
    eff0:	28420008 	slti	v0,v0,8
    eff4:	1440000c 	bnez	v0,f028 <_vfiprintf_r+0x1830>
    eff8:	00000000 	nop
    effc:	27c20064 	addiu	v0,s8,100
    f000:	8fc401a0 	lw	a0,416(s8)
    f004:	8fc501a4 	lw	a1,420(s8)
    f008:	00403021 	move	a2,v0
    f00c:	0c00352c 	jal	d4b0 <__sprint_r>
    f010:	00000000 	nop
    f014:	10400003 	beqz	v0,f024 <_vfiprintf_r+0x182c>
    f018:	00000000 	nop
    f01c:	08003c64 	j	f190 <_vfiprintf_r+0x1998>
    f020:	00000000 	nop
    f024:	27d40070 	addiu	s4,s8,112
    f028:	2610fff0 	addiu	s0,s0,-16
    f02c:	2a020011 	slti	v0,s0,17
    f030:	1040ffdf 	beqz	v0,efb0 <_vfiprintf_r+0x17b8>
    f034:	00000000 	nop
    f038:	3c020001 	lui	v0,0x1
    f03c:	24424f70 	addiu	v0,v0,20336
    f040:	ae820000 	sw	v0,0(s4)
    f044:	02001021 	move	v0,s0
    f048:	ae820004 	sw	v0,4(s4)
    f04c:	8fc2006c 	lw	v0,108(s8)
    f050:	00000000 	nop
    f054:	00501021 	addu	v0,v0,s0
    f058:	afc2006c 	sw	v0,108(s8)
    f05c:	26940008 	addiu	s4,s4,8
    f060:	8fc20068 	lw	v0,104(s8)
    f064:	00000000 	nop
    f068:	24420001 	addiu	v0,v0,1
    f06c:	afc20068 	sw	v0,104(s8)
    f070:	8fc20068 	lw	v0,104(s8)
    f074:	00000000 	nop
    f078:	28420008 	slti	v0,v0,8
    f07c:	1440000c 	bnez	v0,f0b0 <_vfiprintf_r+0x18b8>
    f080:	00000000 	nop
    f084:	27c20064 	addiu	v0,s8,100
    f088:	8fc401a0 	lw	a0,416(s8)
    f08c:	8fc501a4 	lw	a1,420(s8)
    f090:	00403021 	move	a2,v0
    f094:	0c00352c 	jal	d4b0 <__sprint_r>
    f098:	00000000 	nop
    f09c:	10400003 	beqz	v0,f0ac <_vfiprintf_r+0x18b4>
    f0a0:	00000000 	nop
    f0a4:	08003c64 	j	f190 <_vfiprintf_r+0x1998>
    f0a8:	00000000 	nop
    f0ac:	27d40070 	addiu	s4,s8,112
    f0b0:	8fc40014 	lw	a0,20(s8)
    f0b4:	8fc30040 	lw	v1,64(s8)
    f0b8:	00000000 	nop
    f0bc:	0064102a 	slt	v0,v1,a0
    f0c0:	10400002 	beqz	v0,f0cc <_vfiprintf_r+0x18d4>
    f0c4:	00000000 	nop
    f0c8:	00801821 	move	v1,a0
    f0cc:	8fc20010 	lw	v0,16(s8)
    f0d0:	00000000 	nop
    f0d4:	00431021 	addu	v0,v0,v1
    f0d8:	afc20010 	sw	v0,16(s8)
    f0dc:	8fc2006c 	lw	v0,108(s8)
    f0e0:	00000000 	nop
    f0e4:	1040000b 	beqz	v0,f114 <_vfiprintf_r+0x191c>
    f0e8:	00000000 	nop
    f0ec:	27c20064 	addiu	v0,s8,100
    f0f0:	8fc401a0 	lw	a0,416(s8)
    f0f4:	8fc501a4 	lw	a1,420(s8)
    f0f8:	00403021 	move	a2,v0
    f0fc:	0c00352c 	jal	d4b0 <__sprint_r>
    f100:	00000000 	nop
    f104:	10400003 	beqz	v0,f114 <_vfiprintf_r+0x191c>
    f108:	00000000 	nop
    f10c:	08003c64 	j	f190 <_vfiprintf_r+0x1998>
    f110:	00000000 	nop
    f114:	afc00068 	sw	zero,104(s8)
    f118:	27d40070 	addiu	s4,s8,112
    f11c:	8fc2004c 	lw	v0,76(s8)
    f120:	00000000 	nop
    f124:	10400008 	beqz	v0,f148 <_vfiprintf_r+0x1950>
    f128:	00000000 	nop
    f12c:	8fc401a0 	lw	a0,416(s8)
    f130:	8fc5004c 	lw	a1,76(s8)
    f134:	0c001d5a 	jal	7568 <_free_r>
    f138:	00000000 	nop
    f13c:	afc0004c 	sw	zero,76(s8)
    f140:	0800366c 	j	d9b0 <_vfiprintf_r+0x1b8>
    f144:	00000000 	nop
    f148:	0800366c 	j	d9b0 <_vfiprintf_r+0x1b8>
    f14c:	00000000 	nop
    f150:	8fc2006c 	lw	v0,108(s8)
    f154:	00000000 	nop
    f158:	1040000b 	beqz	v0,f188 <_vfiprintf_r+0x1990>
    f15c:	00000000 	nop
    f160:	27c20064 	addiu	v0,s8,100
    f164:	8fc401a0 	lw	a0,416(s8)
    f168:	8fc501a4 	lw	a1,420(s8)
    f16c:	00403021 	move	a2,v0
    f170:	0c00352c 	jal	d4b0 <__sprint_r>
    f174:	00000000 	nop
    f178:	10400003 	beqz	v0,f188 <_vfiprintf_r+0x1990>
    f17c:	00000000 	nop
    f180:	08003c64 	j	f190 <_vfiprintf_r+0x1998>
    f184:	00000000 	nop
    f188:	afc00068 	sw	zero,104(s8)
    f18c:	27d40070 	addiu	s4,s8,112
    f190:	8fc2004c 	lw	v0,76(s8)
    f194:	00000000 	nop
    f198:	10400005 	beqz	v0,f1b0 <_vfiprintf_r+0x19b8>
    f19c:	00000000 	nop
    f1a0:	8fc401a0 	lw	a0,416(s8)
    f1a4:	8fc5004c 	lw	a1,76(s8)
    f1a8:	0c001d5a 	jal	7568 <_free_r>
    f1ac:	00000000 	nop
    f1b0:	8fc201a4 	lw	v0,420(s8)
    f1b4:	00000000 	nop
    f1b8:	8442000c 	lh	v0,12(v0)
    f1bc:	00000000 	nop
    f1c0:	3042ffff 	andi	v0,v0,0xffff
    f1c4:	30420040 	andi	v0,v0,0x40
    f1c8:	14400004 	bnez	v0,f1dc <_vfiprintf_r+0x19e4>
    f1cc:	00000000 	nop
    f1d0:	8fc20010 	lw	v0,16(s8)
    f1d4:	08003c78 	j	f1e0 <_vfiprintf_r+0x19e8>
    f1d8:	00000000 	nop
    f1dc:	2402ffff 	li	v0,-1
    f1e0:	03c0e821 	move	sp,s8
    f1e4:	8fbf019c 	lw	ra,412(sp)
    f1e8:	8fbe0198 	lw	s8,408(sp)
    f1ec:	8fb70194 	lw	s7,404(sp)
    f1f0:	8fb60190 	lw	s6,400(sp)
    f1f4:	8fb5018c 	lw	s5,396(sp)
    f1f8:	8fb40188 	lw	s4,392(sp)
    f1fc:	8fb30184 	lw	s3,388(sp)
    f200:	8fb20180 	lw	s2,384(sp)
    f204:	8fb1017c 	lw	s1,380(sp)
    f208:	8fb00178 	lw	s0,376(sp)
    f20c:	27bd01a0 	addiu	sp,sp,416
    f210:	03e00008 	jr	ra
    f214:	00000000 	nop

0000f218 <_write_r>:
    f218:	27bdffe0 	addiu	sp,sp,-32
    f21c:	afbf001c 	sw	ra,28(sp)
    f220:	afbe0018 	sw	s8,24(sp)
    f224:	03a0f021 	move	s8,sp
    f228:	afc40020 	sw	a0,32(s8)
    f22c:	afc50024 	sw	a1,36(s8)
    f230:	afc60028 	sw	a2,40(s8)
    f234:	afc7002c 	sw	a3,44(s8)
    f238:	af8080cc 	sw	zero,-32564(gp)
    f23c:	8fc40024 	lw	a0,36(s8)
    f240:	8fc50028 	lw	a1,40(s8)
    f244:	8fc6002c 	lw	a2,44(s8)
    f248:	0c00488c 	jal	12230 <write>
    f24c:	00000000 	nop
    f250:	afc20010 	sw	v0,16(s8)
    f254:	8fc30010 	lw	v1,16(s8)
    f258:	2402ffff 	li	v0,-1
    f25c:	14620009 	bne	v1,v0,f284 <_write_r+0x6c>
    f260:	00000000 	nop
    f264:	8f8280cc 	lw	v0,-32564(gp)
    f268:	00000000 	nop
    f26c:	10400005 	beqz	v0,f284 <_write_r+0x6c>
    f270:	00000000 	nop
    f274:	8f8380cc 	lw	v1,-32564(gp)
    f278:	8fc20020 	lw	v0,32(s8)
    f27c:	00000000 	nop
    f280:	ac430000 	sw	v1,0(v0)
    f284:	8fc20010 	lw	v0,16(s8)
    f288:	03c0e821 	move	sp,s8
    f28c:	8fbf001c 	lw	ra,28(sp)
    f290:	8fbe0018 	lw	s8,24(sp)
    f294:	27bd0020 	addiu	sp,sp,32
    f298:	03e00008 	jr	ra
    f29c:	00000000 	nop

0000f2a0 <_calloc_r>:
    f2a0:	27bdffd0 	addiu	sp,sp,-48
    f2a4:	afbf002c 	sw	ra,44(sp)
    f2a8:	afbe0028 	sw	s8,40(sp)
    f2ac:	03a0f021 	move	s8,sp
    f2b0:	afc40030 	sw	a0,48(s8)
    f2b4:	afc50034 	sw	a1,52(s8)
    f2b8:	afc60038 	sw	a2,56(s8)
    f2bc:	8fc30034 	lw	v1,52(s8)
    f2c0:	8fc20038 	lw	v0,56(s8)
    f2c4:	00000000 	nop
    f2c8:	00620018 	mult	v1,v0
    f2cc:	00001012 	mflo	v0
    f2d0:	afc20014 	sw	v0,20(s8)
    f2d4:	8fc40030 	lw	a0,48(s8)
    f2d8:	8fc50014 	lw	a1,20(s8)
    f2dc:	0c002291 	jal	8a44 <_malloc_r>
    f2e0:	00000000 	nop
    f2e4:	afc20018 	sw	v0,24(s8)
    f2e8:	8fc20018 	lw	v0,24(s8)
    f2ec:	00000000 	nop
    f2f0:	14400004 	bnez	v0,f304 <_calloc_r+0x64>
    f2f4:	00000000 	nop
    f2f8:	00001021 	move	v0,zero
    f2fc:	08003d19 	j	f464 <_calloc_r+0x1c4>
    f300:	00000000 	nop
    f304:	8fc20018 	lw	v0,24(s8)
    f308:	00000000 	nop
    f30c:	2442fff8 	addiu	v0,v0,-8
    f310:	afc2001c 	sw	v0,28(s8)
    f314:	8fc2001c 	lw	v0,28(s8)
    f318:	00000000 	nop
    f31c:	8c430004 	lw	v1,4(v0)
    f320:	2402fffc 	li	v0,-4
    f324:	00621024 	and	v0,v1,v0
    f328:	afc20020 	sw	v0,32(s8)
    f32c:	8fc20020 	lw	v0,32(s8)
    f330:	00000000 	nop
    f334:	2442fffc 	addiu	v0,v0,-4
    f338:	afc20024 	sw	v0,36(s8)
    f33c:	8fc20024 	lw	v0,36(s8)
    f340:	00000000 	nop
    f344:	2c420025 	sltiu	v0,v0,37
    f348:	10400040 	beqz	v0,f44c <_calloc_r+0x1ac>
    f34c:	00000000 	nop
    f350:	8fc20018 	lw	v0,24(s8)
    f354:	00000000 	nop
    f358:	afc20010 	sw	v0,16(s8)
    f35c:	8fc20024 	lw	v0,36(s8)
    f360:	00000000 	nop
    f364:	2c420014 	sltiu	v0,v0,20
    f368:	14400029 	bnez	v0,f410 <_calloc_r+0x170>
    f36c:	00000000 	nop
    f370:	8fc20010 	lw	v0,16(s8)
    f374:	00000000 	nop
    f378:	24430004 	addiu	v1,v0,4
    f37c:	afc30010 	sw	v1,16(s8)
    f380:	ac400000 	sw	zero,0(v0)
    f384:	8fc20010 	lw	v0,16(s8)
    f388:	00000000 	nop
    f38c:	24430004 	addiu	v1,v0,4
    f390:	afc30010 	sw	v1,16(s8)
    f394:	ac400000 	sw	zero,0(v0)
    f398:	8fc20024 	lw	v0,36(s8)
    f39c:	00000000 	nop
    f3a0:	2c42001c 	sltiu	v0,v0,28
    f3a4:	1440001a 	bnez	v0,f410 <_calloc_r+0x170>
    f3a8:	00000000 	nop
    f3ac:	8fc20010 	lw	v0,16(s8)
    f3b0:	00000000 	nop
    f3b4:	24430004 	addiu	v1,v0,4
    f3b8:	afc30010 	sw	v1,16(s8)
    f3bc:	ac400000 	sw	zero,0(v0)
    f3c0:	8fc20010 	lw	v0,16(s8)
    f3c4:	00000000 	nop
    f3c8:	24430004 	addiu	v1,v0,4
    f3cc:	afc30010 	sw	v1,16(s8)
    f3d0:	ac400000 	sw	zero,0(v0)
    f3d4:	8fc20024 	lw	v0,36(s8)
    f3d8:	00000000 	nop
    f3dc:	2c420024 	sltiu	v0,v0,36
    f3e0:	1440000b 	bnez	v0,f410 <_calloc_r+0x170>
    f3e4:	00000000 	nop
    f3e8:	8fc20010 	lw	v0,16(s8)
    f3ec:	00000000 	nop
    f3f0:	24430004 	addiu	v1,v0,4
    f3f4:	afc30010 	sw	v1,16(s8)
    f3f8:	ac400000 	sw	zero,0(v0)
    f3fc:	8fc20010 	lw	v0,16(s8)
    f400:	00000000 	nop
    f404:	24430004 	addiu	v1,v0,4
    f408:	afc30010 	sw	v1,16(s8)
    f40c:	ac400000 	sw	zero,0(v0)
    f410:	8fc20010 	lw	v0,16(s8)
    f414:	00000000 	nop
    f418:	24430004 	addiu	v1,v0,4
    f41c:	afc30010 	sw	v1,16(s8)
    f420:	ac400000 	sw	zero,0(v0)
    f424:	8fc20010 	lw	v0,16(s8)
    f428:	00000000 	nop
    f42c:	24430004 	addiu	v1,v0,4
    f430:	afc30010 	sw	v1,16(s8)
    f434:	ac400000 	sw	zero,0(v0)
    f438:	8fc20010 	lw	v0,16(s8)
    f43c:	00000000 	nop
    f440:	ac400000 	sw	zero,0(v0)
    f444:	08003d18 	j	f460 <_calloc_r+0x1c0>
    f448:	00000000 	nop
    f44c:	8fc40018 	lw	a0,24(s8)
    f450:	00002821 	move	a1,zero
    f454:	8fc60024 	lw	a2,36(s8)
    f458:	0c002816 	jal	a058 <memset>
    f45c:	00000000 	nop
    f460:	8fc20018 	lw	v0,24(s8)
    f464:	03c0e821 	move	sp,s8
    f468:	8fbf002c 	lw	ra,44(sp)
    f46c:	8fbe0028 	lw	s8,40(sp)
    f470:	27bd0030 	addiu	sp,sp,48
    f474:	03e00008 	jr	ra
    f478:	00000000 	nop

0000f47c <_close_r>:
    f47c:	27bdffe0 	addiu	sp,sp,-32
    f480:	afbf001c 	sw	ra,28(sp)
    f484:	afbe0018 	sw	s8,24(sp)
    f488:	03a0f021 	move	s8,sp
    f48c:	afc40020 	sw	a0,32(s8)
    f490:	afc50024 	sw	a1,36(s8)
    f494:	af8080cc 	sw	zero,-32564(gp)
    f498:	8fc40024 	lw	a0,36(s8)
    f49c:	0c004886 	jal	12218 <close>
    f4a0:	00000000 	nop
    f4a4:	afc20010 	sw	v0,16(s8)
    f4a8:	8fc30010 	lw	v1,16(s8)
    f4ac:	2402ffff 	li	v0,-1
    f4b0:	14620009 	bne	v1,v0,f4d8 <_close_r+0x5c>
    f4b4:	00000000 	nop
    f4b8:	8f8280cc 	lw	v0,-32564(gp)
    f4bc:	00000000 	nop
    f4c0:	10400005 	beqz	v0,f4d8 <_close_r+0x5c>
    f4c4:	00000000 	nop
    f4c8:	8f8380cc 	lw	v1,-32564(gp)
    f4cc:	8fc20020 	lw	v0,32(s8)
    f4d0:	00000000 	nop
    f4d4:	ac430000 	sw	v1,0(v0)
    f4d8:	8fc20010 	lw	v0,16(s8)
    f4dc:	03c0e821 	move	sp,s8
    f4e0:	8fbf001c 	lw	ra,28(sp)
    f4e4:	8fbe0018 	lw	s8,24(sp)
    f4e8:	27bd0020 	addiu	sp,sp,32
    f4ec:	03e00008 	jr	ra
    f4f0:	00000000 	nop

0000f4f4 <_fclose_r>:
    f4f4:	27bdffd8 	addiu	sp,sp,-40
    f4f8:	afbf0024 	sw	ra,36(sp)
    f4fc:	afbe0020 	sw	s8,32(sp)
    f500:	afb0001c 	sw	s0,28(sp)
    f504:	03a0f021 	move	s8,sp
    f508:	afc40028 	sw	a0,40(s8)
    f50c:	00a08021 	move	s0,a1
    f510:	16000004 	bnez	s0,f524 <_fclose_r+0x30>
    f514:	00000000 	nop
    f518:	00001021 	move	v0,zero
    f51c:	08003d99 	j	f664 <_fclose_r+0x170>
    f520:	00000000 	nop
    f524:	8fc20028 	lw	v0,40(s8)
    f528:	00000000 	nop
    f52c:	1040000a 	beqz	v0,f558 <_fclose_r+0x64>
    f530:	00000000 	nop
    f534:	8fc20028 	lw	v0,40(s8)
    f538:	00000000 	nop
    f53c:	8c420038 	lw	v0,56(v0)
    f540:	00000000 	nop
    f544:	14400004 	bnez	v0,f558 <_fclose_r+0x64>
    f548:	00000000 	nop
    f54c:	8fc40028 	lw	a0,40(s8)
    f550:	0c001cb6 	jal	72d8 <__sinit>
    f554:	00000000 	nop
    f558:	8602000c 	lh	v0,12(s0)
    f55c:	00000000 	nop
    f560:	14400004 	bnez	v0,f574 <_fclose_r+0x80>
    f564:	00000000 	nop
    f568:	00001021 	move	v0,zero
    f56c:	08003d99 	j	f664 <_fclose_r+0x170>
    f570:	00000000 	nop
    f574:	8fc40028 	lw	a0,40(s8)
    f578:	02002821 	move	a1,s0
    f57c:	0c001b34 	jal	6cd0 <_fflush_r>
    f580:	00000000 	nop
    f584:	afc20010 	sw	v0,16(s8)
    f588:	8e02002c 	lw	v0,44(s0)
    f58c:	00000000 	nop
    f590:	1040000b 	beqz	v0,f5c0 <_fclose_r+0xcc>
    f594:	00000000 	nop
    f598:	8e02002c 	lw	v0,44(s0)
    f59c:	8e03001c 	lw	v1,28(s0)
    f5a0:	8fc40028 	lw	a0,40(s8)
    f5a4:	00602821 	move	a1,v1
    f5a8:	0040f809 	jalr	v0
    f5ac:	00000000 	nop
    f5b0:	04410003 	bgez	v0,f5c0 <_fclose_r+0xcc>
    f5b4:	00000000 	nop
    f5b8:	2402ffff 	li	v0,-1
    f5bc:	afc20010 	sw	v0,16(s8)
    f5c0:	8602000c 	lh	v0,12(s0)
    f5c4:	00000000 	nop
    f5c8:	3042ffff 	andi	v0,v0,0xffff
    f5cc:	30420080 	andi	v0,v0,0x80
    f5d0:	10400006 	beqz	v0,f5ec <_fclose_r+0xf8>
    f5d4:	00000000 	nop
    f5d8:	8e020010 	lw	v0,16(s0)
    f5dc:	8fc40028 	lw	a0,40(s8)
    f5e0:	00402821 	move	a1,v0
    f5e4:	0c001d5a 	jal	7568 <_free_r>
    f5e8:	00000000 	nop
    f5ec:	8e020030 	lw	v0,48(s0)
    f5f0:	00000000 	nop
    f5f4:	1040000b 	beqz	v0,f624 <_fclose_r+0x130>
    f5f8:	00000000 	nop
    f5fc:	8e030030 	lw	v1,48(s0)
    f600:	26020040 	addiu	v0,s0,64
    f604:	10620006 	beq	v1,v0,f620 <_fclose_r+0x12c>
    f608:	00000000 	nop
    f60c:	8e020030 	lw	v0,48(s0)
    f610:	8fc40028 	lw	a0,40(s8)
    f614:	00402821 	move	a1,v0
    f618:	0c001d5a 	jal	7568 <_free_r>
    f61c:	00000000 	nop
    f620:	ae000030 	sw	zero,48(s0)
    f624:	8e020044 	lw	v0,68(s0)
    f628:	00000000 	nop
    f62c:	10400007 	beqz	v0,f64c <_fclose_r+0x158>
    f630:	00000000 	nop
    f634:	8e020044 	lw	v0,68(s0)
    f638:	8fc40028 	lw	a0,40(s8)
    f63c:	00402821 	move	a1,v0
    f640:	0c001d5a 	jal	7568 <_free_r>
    f644:	00000000 	nop
    f648:	ae000044 	sw	zero,68(s0)
    f64c:	0c001d00 	jal	7400 <__sfp_lock_acquire>
    f650:	00000000 	nop
    f654:	a600000c 	sh	zero,12(s0)
    f658:	0c001d08 	jal	7420 <__sfp_lock_release>
    f65c:	00000000 	nop
    f660:	8fc20010 	lw	v0,16(s8)
    f664:	03c0e821 	move	sp,s8
    f668:	8fbf0024 	lw	ra,36(sp)
    f66c:	8fbe0020 	lw	s8,32(sp)
    f670:	8fb0001c 	lw	s0,28(sp)
    f674:	27bd0028 	addiu	sp,sp,40
    f678:	03e00008 	jr	ra
    f67c:	00000000 	nop

0000f680 <fclose>:
    f680:	27bdffe8 	addiu	sp,sp,-24
    f684:	afbf0014 	sw	ra,20(sp)
    f688:	afbe0010 	sw	s8,16(sp)
    f68c:	03a0f021 	move	s8,sp
    f690:	00801021 	move	v0,a0
    f694:	8f838068 	lw	v1,-32664(gp)
    f698:	00000000 	nop
    f69c:	00602021 	move	a0,v1
    f6a0:	00402821 	move	a1,v0
    f6a4:	0c003d3d 	jal	f4f4 <_fclose_r>
    f6a8:	00000000 	nop
    f6ac:	03c0e821 	move	sp,s8
    f6b0:	8fbf0014 	lw	ra,20(sp)
    f6b4:	8fbe0010 	lw	s8,16(sp)
    f6b8:	27bd0018 	addiu	sp,sp,24
    f6bc:	03e00008 	jr	ra
    f6c0:	00000000 	nop

0000f6c4 <__fputwc>:
    f6c4:	27bdffd8 	addiu	sp,sp,-40
    f6c8:	afbf0024 	sw	ra,36(sp)
    f6cc:	afbe0020 	sw	s8,32(sp)
    f6d0:	03a0f021 	move	s8,sp
    f6d4:	afc40028 	sw	a0,40(s8)
    f6d8:	afc5002c 	sw	a1,44(s8)
    f6dc:	afc60030 	sw	a2,48(s8)
    f6e0:	0c00207b 	jal	81ec <__locale_mb_cur_max>
    f6e4:	00000000 	nop
    f6e8:	00401821 	move	v1,v0
    f6ec:	24020001 	li	v0,1
    f6f0:	14620013 	bne	v1,v0,f740 <__fputwc+0x7c>
    f6f4:	00000000 	nop
    f6f8:	8fc2002c 	lw	v0,44(s8)
    f6fc:	00000000 	nop
    f700:	1840000f 	blez	v0,f740 <__fputwc+0x7c>
    f704:	00000000 	nop
    f708:	8fc2002c 	lw	v0,44(s8)
    f70c:	00000000 	nop
    f710:	28420100 	slti	v0,v0,256
    f714:	1040000a 	beqz	v0,f740 <__fputwc+0x7c>
    f718:	00000000 	nop
    f71c:	8fc2002c 	lw	v0,44(s8)
    f720:	00000000 	nop
    f724:	00021600 	sll	v0,v0,0x18
    f728:	00021603 	sra	v0,v0,0x18
    f72c:	a3c20018 	sb	v0,24(s8)
    f730:	24020001 	li	v0,1
    f734:	afc20014 	sw	v0,20(s8)
    f738:	08003dec 	j	f7b0 <__fputwc+0xec>
    f73c:	00000000 	nop
    f740:	8fc20030 	lw	v0,48(s8)
    f744:	00000000 	nop
    f748:	2442005c 	addiu	v0,v0,92
    f74c:	27c30018 	addiu	v1,s8,24
    f750:	8fc40028 	lw	a0,40(s8)
    f754:	00602821 	move	a1,v1
    f758:	8fc6002c 	lw	a2,44(s8)
    f75c:	00403821 	move	a3,v0
    f760:	0c0047b5 	jal	11ed4 <_wcrtomb_r>
    f764:	00000000 	nop
    f768:	afc20014 	sw	v0,20(s8)
    f76c:	8fc30014 	lw	v1,20(s8)
    f770:	2402ffff 	li	v0,-1
    f774:	1462000e 	bne	v1,v0,f7b0 <__fputwc+0xec>
    f778:	00000000 	nop
    f77c:	8fc20030 	lw	v0,48(s8)
    f780:	00000000 	nop
    f784:	8442000c 	lh	v0,12(v0)
    f788:	00000000 	nop
    f78c:	34420040 	ori	v0,v0,0x40
    f790:	00021c00 	sll	v1,v0,0x10
    f794:	00031c03 	sra	v1,v1,0x10
    f798:	8fc20030 	lw	v0,48(s8)
    f79c:	00000000 	nop
    f7a0:	a443000c 	sh	v1,12(v0)
    f7a4:	2402ffff 	li	v0,-1
    f7a8:	08003e69 	j	f9a4 <__fputwc+0x2e0>
    f7ac:	00000000 	nop
    f7b0:	afc00010 	sw	zero,16(s8)
    f7b4:	08003e62 	j	f988 <__fputwc+0x2c4>
    f7b8:	00000000 	nop
    f7bc:	8fc20030 	lw	v0,48(s8)
    f7c0:	00000000 	nop
    f7c4:	8c420008 	lw	v0,8(v0)
    f7c8:	00000000 	nop
    f7cc:	2443ffff 	addiu	v1,v0,-1
    f7d0:	8fc20030 	lw	v0,48(s8)
    f7d4:	00000000 	nop
    f7d8:	ac430008 	sw	v1,8(v0)
    f7dc:	8fc20030 	lw	v0,48(s8)
    f7e0:	00000000 	nop
    f7e4:	8c420008 	lw	v0,8(v0)
    f7e8:	00000000 	nop
    f7ec:	04410046 	bgez	v0,f908 <__fputwc+0x244>
    f7f0:	00000000 	nop
    f7f4:	8fc20030 	lw	v0,48(s8)
    f7f8:	00000000 	nop
    f7fc:	8c430008 	lw	v1,8(v0)
    f800:	8fc20030 	lw	v0,48(s8)
    f804:	00000000 	nop
    f808:	8c420018 	lw	v0,24(v0)
    f80c:	00000000 	nop
    f810:	0062102a 	slt	v0,v1,v0
    f814:	1440002c 	bnez	v0,f8c8 <__fputwc+0x204>
    f818:	00000000 	nop
    f81c:	8fc20030 	lw	v0,48(s8)
    f820:	00000000 	nop
    f824:	8c420000 	lw	v0,0(v0)
    f828:	8fc30010 	lw	v1,16(s8)
    f82c:	27c40010 	addiu	a0,s8,16
    f830:	00831821 	addu	v1,a0,v1
    f834:	80630008 	lb	v1,8(v1)
    f838:	00000000 	nop
    f83c:	306300ff 	andi	v1,v1,0xff
    f840:	a0430000 	sb	v1,0(v0)
    f844:	8fc20030 	lw	v0,48(s8)
    f848:	00000000 	nop
    f84c:	8c420000 	lw	v0,0(v0)
    f850:	00000000 	nop
    f854:	90430000 	lbu	v1,0(v0)
    f858:	2402000a 	li	v0,10
    f85c:	10620010 	beq	v1,v0,f8a0 <__fputwc+0x1dc>
    f860:	00000000 	nop
    f864:	8fc20030 	lw	v0,48(s8)
    f868:	00000000 	nop
    f86c:	8c420000 	lw	v0,0(v0)
    f870:	00000000 	nop
    f874:	24440001 	addiu	a0,v0,1
    f878:	8fc30030 	lw	v1,48(s8)
    f87c:	00000000 	nop
    f880:	ac640000 	sw	a0,0(v1)
    f884:	90420000 	lbu	v0,0(v0)
    f888:	00000000 	nop
    f88c:	24420001 	addiu	v0,v0,1
    f890:	2c420001 	sltiu	v0,v0,1
    f894:	304200ff 	andi	v0,v0,0xff
    f898:	08003e59 	j	f964 <__fputwc+0x2a0>
    f89c:	00000000 	nop
    f8a0:	8fc40028 	lw	a0,40(s8)
    f8a4:	2405000a 	li	a1,10
    f8a8:	8fc60030 	lw	a2,48(s8)
    f8ac:	0c004725 	jal	11c94 <__swbuf_r>
    f8b0:	00000000 	nop
    f8b4:	24420001 	addiu	v0,v0,1
    f8b8:	2c420001 	sltiu	v0,v0,1
    f8bc:	304200ff 	andi	v0,v0,0xff
    f8c0:	08003e59 	j	f964 <__fputwc+0x2a0>
    f8c4:	00000000 	nop
    f8c8:	8fc20010 	lw	v0,16(s8)
    f8cc:	27c30010 	addiu	v1,s8,16
    f8d0:	00621021 	addu	v0,v1,v0
    f8d4:	80420008 	lb	v0,8(v0)
    f8d8:	00000000 	nop
    f8dc:	304200ff 	andi	v0,v0,0xff
    f8e0:	8fc40028 	lw	a0,40(s8)
    f8e4:	00402821 	move	a1,v0
    f8e8:	8fc60030 	lw	a2,48(s8)
    f8ec:	0c004725 	jal	11c94 <__swbuf_r>
    f8f0:	00000000 	nop
    f8f4:	24420001 	addiu	v0,v0,1
    f8f8:	2c420001 	sltiu	v0,v0,1
    f8fc:	304200ff 	andi	v0,v0,0xff
    f900:	08003e59 	j	f964 <__fputwc+0x2a0>
    f904:	00000000 	nop
    f908:	8fc20030 	lw	v0,48(s8)
    f90c:	00000000 	nop
    f910:	8c420000 	lw	v0,0(v0)
    f914:	8fc30010 	lw	v1,16(s8)
    f918:	27c40010 	addiu	a0,s8,16
    f91c:	00831821 	addu	v1,a0,v1
    f920:	80630008 	lb	v1,8(v1)
    f924:	00000000 	nop
    f928:	306300ff 	andi	v1,v1,0xff
    f92c:	a0430000 	sb	v1,0(v0)
    f930:	8fc20030 	lw	v0,48(s8)
    f934:	00000000 	nop
    f938:	8c420000 	lw	v0,0(v0)
    f93c:	00000000 	nop
    f940:	24440001 	addiu	a0,v0,1
    f944:	8fc30030 	lw	v1,48(s8)
    f948:	00000000 	nop
    f94c:	ac640000 	sw	a0,0(v1)
    f950:	90420000 	lbu	v0,0(v0)
    f954:	00000000 	nop
    f958:	24420001 	addiu	v0,v0,1
    f95c:	2c420001 	sltiu	v0,v0,1
    f960:	304200ff 	andi	v0,v0,0xff
    f964:	10400004 	beqz	v0,f978 <__fputwc+0x2b4>
    f968:	00000000 	nop
    f96c:	2402ffff 	li	v0,-1
    f970:	08003e69 	j	f9a4 <__fputwc+0x2e0>
    f974:	00000000 	nop
    f978:	8fc20010 	lw	v0,16(s8)
    f97c:	00000000 	nop
    f980:	24420001 	addiu	v0,v0,1
    f984:	afc20010 	sw	v0,16(s8)
    f988:	8fc30010 	lw	v1,16(s8)
    f98c:	8fc20014 	lw	v0,20(s8)
    f990:	00000000 	nop
    f994:	0062102b 	sltu	v0,v1,v0
    f998:	1440ff88 	bnez	v0,f7bc <__fputwc+0xf8>
    f99c:	00000000 	nop
    f9a0:	8fc2002c 	lw	v0,44(s8)
    f9a4:	03c0e821 	move	sp,s8
    f9a8:	8fbf0024 	lw	ra,36(sp)
    f9ac:	8fbe0020 	lw	s8,32(sp)
    f9b0:	27bd0028 	addiu	sp,sp,40
    f9b4:	03e00008 	jr	ra
    f9b8:	00000000 	nop

0000f9bc <_fputwc_r>:
    f9bc:	27bdffe0 	addiu	sp,sp,-32
    f9c0:	afbf001c 	sw	ra,28(sp)
    f9c4:	afbe0018 	sw	s8,24(sp)
    f9c8:	03a0f021 	move	s8,sp
    f9cc:	afc40020 	sw	a0,32(s8)
    f9d0:	afc50024 	sw	a1,36(s8)
    f9d4:	afc60028 	sw	a2,40(s8)
    f9d8:	8fc20028 	lw	v0,40(s8)
    f9dc:	00000000 	nop
    f9e0:	8442000c 	lh	v0,12(v0)
    f9e4:	00000000 	nop
    f9e8:	3042ffff 	andi	v0,v0,0xffff
    f9ec:	30422000 	andi	v0,v0,0x2000
    f9f0:	14400013 	bnez	v0,fa40 <_fputwc_r+0x84>
    f9f4:	00000000 	nop
    f9f8:	8fc20028 	lw	v0,40(s8)
    f9fc:	00000000 	nop
    fa00:	8442000c 	lh	v0,12(v0)
    fa04:	00000000 	nop
    fa08:	34422000 	ori	v0,v0,0x2000
    fa0c:	00021c00 	sll	v1,v0,0x10
    fa10:	00031c03 	sra	v1,v1,0x10
    fa14:	8fc20028 	lw	v0,40(s8)
    fa18:	00000000 	nop
    fa1c:	a443000c 	sh	v1,12(v0)
    fa20:	8fc20028 	lw	v0,40(s8)
    fa24:	00000000 	nop
    fa28:	8c420064 	lw	v0,100(v0)
    fa2c:	00000000 	nop
    fa30:	34432000 	ori	v1,v0,0x2000
    fa34:	8fc20028 	lw	v0,40(s8)
    fa38:	00000000 	nop
    fa3c:	ac430064 	sw	v1,100(v0)
    fa40:	8fc40020 	lw	a0,32(s8)
    fa44:	8fc50024 	lw	a1,36(s8)
    fa48:	8fc60028 	lw	a2,40(s8)
    fa4c:	0c003db1 	jal	f6c4 <__fputwc>
    fa50:	00000000 	nop
    fa54:	afc20010 	sw	v0,16(s8)
    fa58:	8fc20010 	lw	v0,16(s8)
    fa5c:	03c0e821 	move	sp,s8
    fa60:	8fbf001c 	lw	ra,28(sp)
    fa64:	8fbe0018 	lw	s8,24(sp)
    fa68:	27bd0020 	addiu	sp,sp,32
    fa6c:	03e00008 	jr	ra
    fa70:	00000000 	nop

0000fa74 <fputwc>:
    fa74:	27bdffe8 	addiu	sp,sp,-24
    fa78:	afbf0014 	sw	ra,20(sp)
    fa7c:	afbe0010 	sw	s8,16(sp)
    fa80:	03a0f021 	move	s8,sp
    fa84:	afc40018 	sw	a0,24(s8)
    fa88:	afc5001c 	sw	a1,28(s8)
    fa8c:	8f828068 	lw	v0,-32664(gp)
    fa90:	00000000 	nop
    fa94:	1040000c 	beqz	v0,fac8 <fputwc+0x54>
    fa98:	00000000 	nop
    fa9c:	8f828068 	lw	v0,-32664(gp)
    faa0:	00000000 	nop
    faa4:	8c420038 	lw	v0,56(v0)
    faa8:	00000000 	nop
    faac:	14400006 	bnez	v0,fac8 <fputwc+0x54>
    fab0:	00000000 	nop
    fab4:	8f828068 	lw	v0,-32664(gp)
    fab8:	00000000 	nop
    fabc:	00402021 	move	a0,v0
    fac0:	0c001cb6 	jal	72d8 <__sinit>
    fac4:	00000000 	nop
    fac8:	8f828068 	lw	v0,-32664(gp)
    facc:	00000000 	nop
    fad0:	00402021 	move	a0,v0
    fad4:	8fc50018 	lw	a1,24(s8)
    fad8:	8fc6001c 	lw	a2,28(s8)
    fadc:	0c003e6f 	jal	f9bc <_fputwc_r>
    fae0:	00000000 	nop
    fae4:	03c0e821 	move	sp,s8
    fae8:	8fbf0014 	lw	ra,20(sp)
    faec:	8fbe0010 	lw	s8,16(sp)
    faf0:	27bd0018 	addiu	sp,sp,24
    faf4:	03e00008 	jr	ra
    faf8:	00000000 	nop

0000fafc <_fstat_r>:
    fafc:	27bdffe0 	addiu	sp,sp,-32
    fb00:	afbf001c 	sw	ra,28(sp)
    fb04:	afbe0018 	sw	s8,24(sp)
    fb08:	03a0f021 	move	s8,sp
    fb0c:	afc40020 	sw	a0,32(s8)
    fb10:	afc50024 	sw	a1,36(s8)
    fb14:	afc60028 	sw	a2,40(s8)
    fb18:	af8080cc 	sw	zero,-32564(gp)
    fb1c:	8fc40024 	lw	a0,36(s8)
    fb20:	8fc50028 	lw	a1,40(s8)
    fb24:	0c0049f1 	jal	127c4 <fstat>
    fb28:	00000000 	nop
    fb2c:	afc20010 	sw	v0,16(s8)
    fb30:	8fc30010 	lw	v1,16(s8)
    fb34:	2402ffff 	li	v0,-1
    fb38:	14620009 	bne	v1,v0,fb60 <_fstat_r+0x64>
    fb3c:	00000000 	nop
    fb40:	8f8280cc 	lw	v0,-32564(gp)
    fb44:	00000000 	nop
    fb48:	10400005 	beqz	v0,fb60 <_fstat_r+0x64>
    fb4c:	00000000 	nop
    fb50:	8f8380cc 	lw	v1,-32564(gp)
    fb54:	8fc20020 	lw	v0,32(s8)
    fb58:	00000000 	nop
    fb5c:	ac430000 	sw	v1,0(v0)
    fb60:	8fc20010 	lw	v0,16(s8)
    fb64:	03c0e821 	move	sp,s8
    fb68:	8fbf001c 	lw	ra,28(sp)
    fb6c:	8fbe0018 	lw	s8,24(sp)
    fb70:	27bd0020 	addiu	sp,sp,32
    fb74:	03e00008 	jr	ra
    fb78:	00000000 	nop

0000fb7c <__sfvwrite_r>:
    fb7c:	27bdffb0 	addiu	sp,sp,-80
    fb80:	afbf004c 	sw	ra,76(sp)
    fb84:	afbe0048 	sw	s8,72(sp)
    fb88:	afb60044 	sw	s6,68(sp)
    fb8c:	afb50040 	sw	s5,64(sp)
    fb90:	afb4003c 	sw	s4,60(sp)
    fb94:	afb30038 	sw	s3,56(sp)
    fb98:	afb20034 	sw	s2,52(sp)
    fb9c:	afb10030 	sw	s1,48(sp)
    fba0:	afb0002c 	sw	s0,44(sp)
    fba4:	03a0f021 	move	s8,sp
    fba8:	afc40050 	sw	a0,80(s8)
    fbac:	00a08021 	move	s0,a1
    fbb0:	00c0a821 	move	s5,a2
    fbb4:	00009821 	move	s3,zero
    fbb8:	8ea20008 	lw	v0,8(s5)
    fbbc:	00000000 	nop
    fbc0:	00409021 	move	s2,v0
    fbc4:	16400004 	bnez	s2,fbd8 <__sfvwrite_r+0x5c>
    fbc8:	00000000 	nop
    fbcc:	00001021 	move	v0,zero
    fbd0:	080040bf 	j	102fc <__sfvwrite_r+0x780>
    fbd4:	00000000 	nop
    fbd8:	8602000c 	lh	v0,12(s0)
    fbdc:	00000000 	nop
    fbe0:	3042ffff 	andi	v0,v0,0xffff
    fbe4:	30420008 	andi	v0,v0,0x8
    fbe8:	10400005 	beqz	v0,fc00 <__sfvwrite_r+0x84>
    fbec:	00000000 	nop
    fbf0:	8e020010 	lw	v0,16(s0)
    fbf4:	00000000 	nop
    fbf8:	1440000a 	bnez	v0,fc24 <__sfvwrite_r+0xa8>
    fbfc:	00000000 	nop
    fc00:	8fc40050 	lw	a0,80(s8)
    fc04:	02002821 	move	a1,s0
    fc08:	0c000fbf 	jal	3efc <__swsetup_r>
    fc0c:	00000000 	nop
    fc10:	10400004 	beqz	v0,fc24 <__sfvwrite_r+0xa8>
    fc14:	00000000 	nop
    fc18:	2402ffff 	li	v0,-1
    fc1c:	080040bf 	j	102fc <__sfvwrite_r+0x780>
    fc20:	00000000 	nop
    fc24:	8eb40000 	lw	s4,0(s5)
    fc28:	00009021 	move	s2,zero
    fc2c:	8602000c 	lh	v0,12(s0)
    fc30:	00000000 	nop
    fc34:	3042ffff 	andi	v0,v0,0xffff
    fc38:	30420002 	andi	v0,v0,0x2
    fc3c:	10400027 	beqz	v0,fcdc <__sfvwrite_r+0x160>
    fc40:	00000000 	nop
    fc44:	08003f16 	j	fc58 <__sfvwrite_r+0xdc>
    fc48:	00000000 	nop
    fc4c:	8e930000 	lw	s3,0(s4)
    fc50:	8e920004 	lw	s2,4(s4)
    fc54:	26940008 	addiu	s4,s4,8
    fc58:	1240fffc 	beqz	s2,fc4c <__sfvwrite_r+0xd0>
    fc5c:	00000000 	nop
    fc60:	8e030024 	lw	v1,36(s0)
    fc64:	8e05001c 	lw	a1,28(s0)
    fc68:	02401021 	move	v0,s2
    fc6c:	2c440401 	sltiu	a0,v0,1025
    fc70:	14800002 	bnez	a0,fc7c <__sfvwrite_r+0x100>
    fc74:	00000000 	nop
    fc78:	24020400 	li	v0,1024
    fc7c:	8fc40050 	lw	a0,80(s8)
    fc80:	02603021 	move	a2,s3
    fc84:	00403821 	move	a3,v0
    fc88:	0060f809 	jalr	v1
    fc8c:	00000000 	nop
    fc90:	00408821 	move	s1,v0
    fc94:	1e200003 	bgtz	s1,fca4 <__sfvwrite_r+0x128>
    fc98:	00000000 	nop
    fc9c:	080040b8 	j	102e0 <__sfvwrite_r+0x764>
    fca0:	00000000 	nop
    fca4:	02201021 	move	v0,s1
    fca8:	02629821 	addu	s3,s3,v0
    fcac:	02201021 	move	v0,s1
    fcb0:	02429023 	subu	s2,s2,v0
    fcb4:	8ea20008 	lw	v0,8(s5)
    fcb8:	00000000 	nop
    fcbc:	00511023 	subu	v0,v0,s1
    fcc0:	aea20008 	sw	v0,8(s5)
    fcc4:	8ea20008 	lw	v0,8(s5)
    fcc8:	00000000 	nop
    fccc:	1440ffdd 	bnez	v0,fc44 <__sfvwrite_r+0xc8>
    fcd0:	00000000 	nop
    fcd4:	080040b5 	j	102d4 <__sfvwrite_r+0x758>
    fcd8:	00000000 	nop
    fcdc:	8602000c 	lh	v0,12(s0)
    fce0:	00000000 	nop
    fce4:	3042ffff 	andi	v0,v0,0xffff
    fce8:	30420001 	andi	v0,v0,0x1
    fcec:	144000eb 	bnez	v0,1009c <__sfvwrite_r+0x520>
    fcf0:	00000000 	nop
    fcf4:	08003f42 	j	fd08 <__sfvwrite_r+0x18c>
    fcf8:	00000000 	nop
    fcfc:	8e930000 	lw	s3,0(s4)
    fd00:	8e920004 	lw	s2,4(s4)
    fd04:	26940008 	addiu	s4,s4,8
    fd08:	1240fffc 	beqz	s2,fcfc <__sfvwrite_r+0x180>
    fd0c:	00000000 	nop
    fd10:	8e110008 	lw	s1,8(s0)
    fd14:	8602000c 	lh	v0,12(s0)
    fd18:	00000000 	nop
    fd1c:	3042ffff 	andi	v0,v0,0xffff
    fd20:	30420200 	andi	v0,v0,0x200
    fd24:	1040008d 	beqz	v0,ff5c <__sfvwrite_r+0x3e0>
    fd28:	00000000 	nop
    fd2c:	02201021 	move	v0,s1
    fd30:	0242102b 	sltu	v0,s2,v0
    fd34:	14400072 	bnez	v0,ff00 <__sfvwrite_r+0x384>
    fd38:	00000000 	nop
    fd3c:	8602000c 	lh	v0,12(s0)
    fd40:	00000000 	nop
    fd44:	3042ffff 	andi	v0,v0,0xffff
    fd48:	30420480 	andi	v0,v0,0x480
    fd4c:	1040006c 	beqz	v0,ff00 <__sfvwrite_r+0x384>
    fd50:	00000000 	nop
    fd54:	8e020000 	lw	v0,0(s0)
    fd58:	00000000 	nop
    fd5c:	00401821 	move	v1,v0
    fd60:	8e020010 	lw	v0,16(s0)
    fd64:	00000000 	nop
    fd68:	00621023 	subu	v0,v1,v0
    fd6c:	afc20020 	sw	v0,32(s8)
    fd70:	8e030014 	lw	v1,20(s0)
    fd74:	00000000 	nop
    fd78:	00601021 	move	v0,v1
    fd7c:	00021040 	sll	v0,v0,0x1
    fd80:	00431021 	addu	v0,v0,v1
    fd84:	00021fc2 	srl	v1,v0,0x1f
    fd88:	00621021 	addu	v0,v1,v0
    fd8c:	00021043 	sra	v0,v0,0x1
    fd90:	afc2001c 	sw	v0,28(s8)
    fd94:	8fc3001c 	lw	v1,28(s8)
    fd98:	8fc20020 	lw	v0,32(s8)
    fd9c:	00000000 	nop
    fda0:	00521021 	addu	v0,v0,s2
    fda4:	24420001 	addiu	v0,v0,1
    fda8:	0062102b 	sltu	v0,v1,v0
    fdac:	10400006 	beqz	v0,fdc8 <__sfvwrite_r+0x24c>
    fdb0:	00000000 	nop
    fdb4:	8fc20020 	lw	v0,32(s8)
    fdb8:	00000000 	nop
    fdbc:	00521021 	addu	v0,v0,s2
    fdc0:	24420001 	addiu	v0,v0,1
    fdc4:	afc2001c 	sw	v0,28(s8)
    fdc8:	8602000c 	lh	v0,12(s0)
    fdcc:	00000000 	nop
    fdd0:	3042ffff 	andi	v0,v0,0xffff
    fdd4:	30420400 	andi	v0,v0,0x400
    fdd8:	10400022 	beqz	v0,fe64 <__sfvwrite_r+0x2e8>
    fddc:	00000000 	nop
    fde0:	8fc2001c 	lw	v0,28(s8)
    fde4:	8fc40050 	lw	a0,80(s8)
    fde8:	00402821 	move	a1,v0
    fdec:	0c002291 	jal	8a44 <_malloc_r>
    fdf0:	00000000 	nop
    fdf4:	afc20018 	sw	v0,24(s8)
    fdf8:	8fc20018 	lw	v0,24(s8)
    fdfc:	00000000 	nop
    fe00:	14400006 	bnez	v0,fe1c <__sfvwrite_r+0x2a0>
    fe04:	00000000 	nop
    fe08:	8fc20050 	lw	v0,80(s8)
    fe0c:	2403000c 	li	v1,12
    fe10:	ac430000 	sw	v1,0(v0)
    fe14:	080040b8 	j	102e0 <__sfvwrite_r+0x764>
    fe18:	00000000 	nop
    fe1c:	8e030010 	lw	v1,16(s0)
    fe20:	8fc20020 	lw	v0,32(s8)
    fe24:	8fc40018 	lw	a0,24(s8)
    fe28:	00602821 	move	a1,v1
    fe2c:	00403021 	move	a2,v0
    fe30:	0c002724 	jal	9c90 <memcpy>
    fe34:	00000000 	nop
    fe38:	8603000c 	lh	v1,12(s0)
    fe3c:	2402fb7f 	li	v0,-1153
    fe40:	00621024 	and	v0,v1,v0
    fe44:	00021400 	sll	v0,v0,0x10
    fe48:	00021403 	sra	v0,v0,0x10
    fe4c:	34420080 	ori	v0,v0,0x80
    fe50:	00021400 	sll	v0,v0,0x10
    fe54:	00021403 	sra	v0,v0,0x10
    fe58:	a602000c 	sh	v0,12(s0)
    fe5c:	08003faf 	j	febc <__sfvwrite_r+0x340>
    fe60:	00000000 	nop
    fe64:	8e030010 	lw	v1,16(s0)
    fe68:	8fc2001c 	lw	v0,28(s8)
    fe6c:	8fc40050 	lw	a0,80(s8)
    fe70:	00602821 	move	a1,v1
    fe74:	00403021 	move	a2,v0
    fe78:	0c0041eb 	jal	107ac <_realloc_r>
    fe7c:	00000000 	nop
    fe80:	afc20018 	sw	v0,24(s8)
    fe84:	8fc20018 	lw	v0,24(s8)
    fe88:	00000000 	nop
    fe8c:	1440000b 	bnez	v0,febc <__sfvwrite_r+0x340>
    fe90:	00000000 	nop
    fe94:	8e020010 	lw	v0,16(s0)
    fe98:	8fc40050 	lw	a0,80(s8)
    fe9c:	00402821 	move	a1,v0
    fea0:	0c001d5a 	jal	7568 <_free_r>
    fea4:	00000000 	nop
    fea8:	8fc20050 	lw	v0,80(s8)
    feac:	2403000c 	li	v1,12
    feb0:	ac430000 	sw	v1,0(v0)
    feb4:	080040b8 	j	102e0 <__sfvwrite_r+0x764>
    feb8:	00000000 	nop
    febc:	8fc20018 	lw	v0,24(s8)
    fec0:	00000000 	nop
    fec4:	ae020010 	sw	v0,16(s0)
    fec8:	8fc20020 	lw	v0,32(s8)
    fecc:	8fc30018 	lw	v1,24(s8)
    fed0:	00000000 	nop
    fed4:	00621021 	addu	v0,v1,v0
    fed8:	ae020000 	sw	v0,0(s0)
    fedc:	8fc2001c 	lw	v0,28(s8)
    fee0:	00000000 	nop
    fee4:	ae020014 	sw	v0,20(s0)
    fee8:	02408821 	move	s1,s2
    feec:	8fc3001c 	lw	v1,28(s8)
    fef0:	8fc20020 	lw	v0,32(s8)
    fef4:	00000000 	nop
    fef8:	00621023 	subu	v0,v1,v0
    fefc:	ae020008 	sw	v0,8(s0)
    ff00:	02201021 	move	v0,s1
    ff04:	0242102b 	sltu	v0,s2,v0
    ff08:	10400002 	beqz	v0,ff14 <__sfvwrite_r+0x398>
    ff0c:	00000000 	nop
    ff10:	02408821 	move	s1,s2
    ff14:	8e030000 	lw	v1,0(s0)
    ff18:	02201021 	move	v0,s1
    ff1c:	00602021 	move	a0,v1
    ff20:	02602821 	move	a1,s3
    ff24:	00403021 	move	a2,v0
    ff28:	0c00410c 	jal	10430 <memmove>
    ff2c:	00000000 	nop
    ff30:	8e020008 	lw	v0,8(s0)
    ff34:	00000000 	nop
    ff38:	00511023 	subu	v0,v0,s1
    ff3c:	ae020008 	sw	v0,8(s0)
    ff40:	8e030000 	lw	v1,0(s0)
    ff44:	02201021 	move	v0,s1
    ff48:	00621021 	addu	v0,v1,v0
    ff4c:	ae020000 	sw	v0,0(s0)
    ff50:	02408821 	move	s1,s2
    ff54:	08004019 	j	10064 <__sfvwrite_r+0x4e8>
    ff58:	00000000 	nop
    ff5c:	8e030000 	lw	v1,0(s0)
    ff60:	8e020010 	lw	v0,16(s0)
    ff64:	00000000 	nop
    ff68:	0043102b 	sltu	v0,v0,v1
    ff6c:	1040001a 	beqz	v0,ffd8 <__sfvwrite_r+0x45c>
    ff70:	00000000 	nop
    ff74:	02201021 	move	v0,s1
    ff78:	0052102b 	sltu	v0,v0,s2
    ff7c:	10400016 	beqz	v0,ffd8 <__sfvwrite_r+0x45c>
    ff80:	00000000 	nop
    ff84:	8e030000 	lw	v1,0(s0)
    ff88:	02201021 	move	v0,s1
    ff8c:	00602021 	move	a0,v1
    ff90:	02602821 	move	a1,s3
    ff94:	00403021 	move	a2,v0
    ff98:	0c00410c 	jal	10430 <memmove>
    ff9c:	00000000 	nop
    ffa0:	8e030000 	lw	v1,0(s0)
    ffa4:	02201021 	move	v0,s1
    ffa8:	00621021 	addu	v0,v1,v0
    ffac:	ae020000 	sw	v0,0(s0)
    ffb0:	8fc40050 	lw	a0,80(s8)
    ffb4:	02002821 	move	a1,s0
    ffb8:	0c001b34 	jal	6cd0 <_fflush_r>
    ffbc:	00000000 	nop
    ffc0:	10400003 	beqz	v0,ffd0 <__sfvwrite_r+0x454>
    ffc4:	00000000 	nop
    ffc8:	080040b8 	j	102e0 <__sfvwrite_r+0x764>
    ffcc:	00000000 	nop
    ffd0:	08004019 	j	10064 <__sfvwrite_r+0x4e8>
    ffd4:	00000000 	nop
    ffd8:	8e110014 	lw	s1,20(s0)
    ffdc:	00000000 	nop
    ffe0:	02201021 	move	v0,s1
    ffe4:	0242102b 	sltu	v0,s2,v0
    ffe8:	1440000e 	bnez	v0,10024 <__sfvwrite_r+0x4a8>
    ffec:	00000000 	nop
    fff0:	8e020024 	lw	v0,36(s0)
    fff4:	8e03001c 	lw	v1,28(s0)
    fff8:	8fc40050 	lw	a0,80(s8)
    fffc:	00602821 	move	a1,v1
   10000:	02603021 	move	a2,s3
   10004:	02203821 	move	a3,s1
   10008:	0040f809 	jalr	v0
   1000c:	00000000 	nop
   10010:	00408821 	move	s1,v0
   10014:	1e200013 	bgtz	s1,10064 <__sfvwrite_r+0x4e8>
   10018:	00000000 	nop
   1001c:	080040b8 	j	102e0 <__sfvwrite_r+0x764>
   10020:	00000000 	nop
   10024:	02408821 	move	s1,s2
   10028:	8e030000 	lw	v1,0(s0)
   1002c:	02201021 	move	v0,s1
   10030:	00602021 	move	a0,v1
   10034:	02602821 	move	a1,s3
   10038:	00403021 	move	a2,v0
   1003c:	0c00410c 	jal	10430 <memmove>
   10040:	00000000 	nop
   10044:	8e020008 	lw	v0,8(s0)
   10048:	00000000 	nop
   1004c:	00511023 	subu	v0,v0,s1
   10050:	ae020008 	sw	v0,8(s0)
   10054:	8e030000 	lw	v1,0(s0)
   10058:	02201021 	move	v0,s1
   1005c:	00621021 	addu	v0,v1,v0
   10060:	ae020000 	sw	v0,0(s0)
   10064:	02201021 	move	v0,s1
   10068:	02629821 	addu	s3,s3,v0
   1006c:	02201021 	move	v0,s1
   10070:	02429023 	subu	s2,s2,v0
   10074:	8ea20008 	lw	v0,8(s5)
   10078:	00000000 	nop
   1007c:	00511023 	subu	v0,v0,s1
   10080:	aea20008 	sw	v0,8(s5)
   10084:	8ea20008 	lw	v0,8(s5)
   10088:	00000000 	nop
   1008c:	1440ff19 	bnez	v0,fcf4 <__sfvwrite_r+0x178>
   10090:	00000000 	nop
   10094:	080040b5 	j	102d4 <__sfvwrite_r+0x758>
   10098:	00000000 	nop
   1009c:	afc00010 	sw	zero,16(s8)
   100a0:	afc00014 	sw	zero,20(s8)
   100a4:	08004031 	j	100c4 <__sfvwrite_r+0x548>
   100a8:	00000000 	nop
   100ac:	08004031 	j	100c4 <__sfvwrite_r+0x548>
   100b0:	00000000 	nop
   100b4:	afc00010 	sw	zero,16(s8)
   100b8:	8e930000 	lw	s3,0(s4)
   100bc:	8e920004 	lw	s2,4(s4)
   100c0:	26940008 	addiu	s4,s4,8
   100c4:	1240fffb 	beqz	s2,100b4 <__sfvwrite_r+0x538>
   100c8:	00000000 	nop
   100cc:	8fc20010 	lw	v0,16(s8)
   100d0:	00000000 	nop
   100d4:	14400017 	bnez	v0,10134 <__sfvwrite_r+0x5b8>
   100d8:	00000000 	nop
   100dc:	02602021 	move	a0,s3
   100e0:	2405000a 	li	a1,10
   100e4:	02403021 	move	a2,s2
   100e8:	0c002687 	jal	9a1c <memchr>
   100ec:	00000000 	nop
   100f0:	afc20024 	sw	v0,36(s8)
   100f4:	8fc20024 	lw	v0,36(s8)
   100f8:	00000000 	nop
   100fc:	10400009 	beqz	v0,10124 <__sfvwrite_r+0x5a8>
   10100:	00000000 	nop
   10104:	8fc20024 	lw	v0,36(s8)
   10108:	00000000 	nop
   1010c:	24420001 	addiu	v0,v0,1
   10110:	00401821 	move	v1,v0
   10114:	02601021 	move	v0,s3
   10118:	00621023 	subu	v0,v1,v0
   1011c:	0800404a 	j	10128 <__sfvwrite_r+0x5ac>
   10120:	00000000 	nop
   10124:	26420001 	addiu	v0,s2,1
   10128:	afc20014 	sw	v0,20(s8)
   1012c:	24020001 	li	v0,1
   10130:	afc20010 	sw	v0,16(s8)
   10134:	8fc20014 	lw	v0,20(s8)
   10138:	00000000 	nop
   1013c:	0242182b 	sltu	v1,s2,v0
   10140:	10600002 	beqz	v1,1014c <__sfvwrite_r+0x5d0>
   10144:	00000000 	nop
   10148:	02401021 	move	v0,s2
   1014c:	0040b021 	move	s6,v0
   10150:	8e030008 	lw	v1,8(s0)
   10154:	8e020014 	lw	v0,20(s0)
   10158:	00000000 	nop
   1015c:	00628821 	addu	s1,v1,v0
   10160:	8e030000 	lw	v1,0(s0)
   10164:	8e020010 	lw	v0,16(s0)
   10168:	00000000 	nop
   1016c:	0043102b 	sltu	v0,v0,v1
   10170:	10400019 	beqz	v0,101d8 <__sfvwrite_r+0x65c>
   10174:	00000000 	nop
   10178:	0236102a 	slt	v0,s1,s6
   1017c:	10400016 	beqz	v0,101d8 <__sfvwrite_r+0x65c>
   10180:	00000000 	nop
   10184:	8e030000 	lw	v1,0(s0)
   10188:	02201021 	move	v0,s1
   1018c:	00602021 	move	a0,v1
   10190:	02602821 	move	a1,s3
   10194:	00403021 	move	a2,v0
   10198:	0c00410c 	jal	10430 <memmove>
   1019c:	00000000 	nop
   101a0:	8e030000 	lw	v1,0(s0)
   101a4:	02201021 	move	v0,s1
   101a8:	00621021 	addu	v0,v1,v0
   101ac:	ae020000 	sw	v0,0(s0)
   101b0:	8fc40050 	lw	a0,80(s8)
   101b4:	02002821 	move	a1,s0
   101b8:	0c001b34 	jal	6cd0 <_fflush_r>
   101bc:	00000000 	nop
   101c0:	10400003 	beqz	v0,101d0 <__sfvwrite_r+0x654>
   101c4:	00000000 	nop
   101c8:	080040b8 	j	102e0 <__sfvwrite_r+0x764>
   101cc:	00000000 	nop
   101d0:	08004098 	j	10260 <__sfvwrite_r+0x6e4>
   101d4:	00000000 	nop
   101d8:	8e110014 	lw	s1,20(s0)
   101dc:	00000000 	nop
   101e0:	02d1102a 	slt	v0,s6,s1
   101e4:	1440000e 	bnez	v0,10220 <__sfvwrite_r+0x6a4>
   101e8:	00000000 	nop
   101ec:	8e020024 	lw	v0,36(s0)
   101f0:	8e03001c 	lw	v1,28(s0)
   101f4:	8fc40050 	lw	a0,80(s8)
   101f8:	00602821 	move	a1,v1
   101fc:	02603021 	move	a2,s3
   10200:	02203821 	move	a3,s1
   10204:	0040f809 	jalr	v0
   10208:	00000000 	nop
   1020c:	00408821 	move	s1,v0
   10210:	1e200013 	bgtz	s1,10260 <__sfvwrite_r+0x6e4>
   10214:	00000000 	nop
   10218:	080040b8 	j	102e0 <__sfvwrite_r+0x764>
   1021c:	00000000 	nop
   10220:	02c08821 	move	s1,s6
   10224:	8e030000 	lw	v1,0(s0)
   10228:	02201021 	move	v0,s1
   1022c:	00602021 	move	a0,v1
   10230:	02602821 	move	a1,s3
   10234:	00403021 	move	a2,v0
   10238:	0c00410c 	jal	10430 <memmove>
   1023c:	00000000 	nop
   10240:	8e020008 	lw	v0,8(s0)
   10244:	00000000 	nop
   10248:	00511023 	subu	v0,v0,s1
   1024c:	ae020008 	sw	v0,8(s0)
   10250:	8e030000 	lw	v1,0(s0)
   10254:	02201021 	move	v0,s1
   10258:	00621021 	addu	v0,v1,v0
   1025c:	ae020000 	sw	v0,0(s0)
   10260:	8fc20014 	lw	v0,20(s8)
   10264:	00000000 	nop
   10268:	00511023 	subu	v0,v0,s1
   1026c:	afc20014 	sw	v0,20(s8)
   10270:	8fc20014 	lw	v0,20(s8)
   10274:	00000000 	nop
   10278:	1440000a 	bnez	v0,102a4 <__sfvwrite_r+0x728>
   1027c:	00000000 	nop
   10280:	8fc40050 	lw	a0,80(s8)
   10284:	02002821 	move	a1,s0
   10288:	0c001b34 	jal	6cd0 <_fflush_r>
   1028c:	00000000 	nop
   10290:	10400003 	beqz	v0,102a0 <__sfvwrite_r+0x724>
   10294:	00000000 	nop
   10298:	080040b8 	j	102e0 <__sfvwrite_r+0x764>
   1029c:	00000000 	nop
   102a0:	afc00010 	sw	zero,16(s8)
   102a4:	02201021 	move	v0,s1
   102a8:	02629821 	addu	s3,s3,v0
   102ac:	02201021 	move	v0,s1
   102b0:	02429023 	subu	s2,s2,v0
   102b4:	8ea20008 	lw	v0,8(s5)
   102b8:	00000000 	nop
   102bc:	00511023 	subu	v0,v0,s1
   102c0:	aea20008 	sw	v0,8(s5)
   102c4:	8ea20008 	lw	v0,8(s5)
   102c8:	00000000 	nop
   102cc:	1440ff77 	bnez	v0,100ac <__sfvwrite_r+0x530>
   102d0:	00000000 	nop
   102d4:	00001021 	move	v0,zero
   102d8:	080040bf 	j	102fc <__sfvwrite_r+0x780>
   102dc:	00000000 	nop
   102e0:	8602000c 	lh	v0,12(s0)
   102e4:	00000000 	nop
   102e8:	34420040 	ori	v0,v0,0x40
   102ec:	00021400 	sll	v0,v0,0x10
   102f0:	00021403 	sra	v0,v0,0x10
   102f4:	a602000c 	sh	v0,12(s0)
   102f8:	2402ffff 	li	v0,-1
   102fc:	03c0e821 	move	sp,s8
   10300:	8fbf004c 	lw	ra,76(sp)
   10304:	8fbe0048 	lw	s8,72(sp)
   10308:	8fb60044 	lw	s6,68(sp)
   1030c:	8fb50040 	lw	s5,64(sp)
   10310:	8fb4003c 	lw	s4,60(sp)
   10314:	8fb30038 	lw	s3,56(sp)
   10318:	8fb20034 	lw	s2,52(sp)
   1031c:	8fb10030 	lw	s1,48(sp)
   10320:	8fb0002c 	lw	s0,44(sp)
   10324:	27bd0050 	addiu	sp,sp,80
   10328:	03e00008 	jr	ra
   1032c:	00000000 	nop

00010330 <_isatty_r>:
   10330:	27bdffe0 	addiu	sp,sp,-32
   10334:	afbf001c 	sw	ra,28(sp)
   10338:	afbe0018 	sw	s8,24(sp)
   1033c:	03a0f021 	move	s8,sp
   10340:	afc40020 	sw	a0,32(s8)
   10344:	afc50024 	sw	a1,36(s8)
   10348:	af8080cc 	sw	zero,-32564(gp)
   1034c:	8fc40024 	lw	a0,36(s8)
   10350:	0c00488f 	jal	1223c <isatty>
   10354:	00000000 	nop
   10358:	afc20010 	sw	v0,16(s8)
   1035c:	8fc30010 	lw	v1,16(s8)
   10360:	2402ffff 	li	v0,-1
   10364:	14620009 	bne	v1,v0,1038c <_isatty_r+0x5c>
   10368:	00000000 	nop
   1036c:	8f8280cc 	lw	v0,-32564(gp)
   10370:	00000000 	nop
   10374:	10400005 	beqz	v0,1038c <_isatty_r+0x5c>
   10378:	00000000 	nop
   1037c:	8f8380cc 	lw	v1,-32564(gp)
   10380:	8fc20020 	lw	v0,32(s8)
   10384:	00000000 	nop
   10388:	ac430000 	sw	v1,0(v0)
   1038c:	8fc20010 	lw	v0,16(s8)
   10390:	03c0e821 	move	sp,s8
   10394:	8fbf001c 	lw	ra,28(sp)
   10398:	8fbe0018 	lw	s8,24(sp)
   1039c:	27bd0020 	addiu	sp,sp,32
   103a0:	03e00008 	jr	ra
   103a4:	00000000 	nop

000103a8 <_lseek_r>:
   103a8:	27bdffe0 	addiu	sp,sp,-32
   103ac:	afbf001c 	sw	ra,28(sp)
   103b0:	afbe0018 	sw	s8,24(sp)
   103b4:	03a0f021 	move	s8,sp
   103b8:	afc40020 	sw	a0,32(s8)
   103bc:	afc50024 	sw	a1,36(s8)
   103c0:	afc60028 	sw	a2,40(s8)
   103c4:	afc7002c 	sw	a3,44(s8)
   103c8:	af8080cc 	sw	zero,-32564(gp)
   103cc:	8fc40024 	lw	a0,36(s8)
   103d0:	8fc50028 	lw	a1,40(s8)
   103d4:	8fc6002c 	lw	a2,44(s8)
   103d8:	0c004895 	jal	12254 <lseek>
   103dc:	00000000 	nop
   103e0:	afc20010 	sw	v0,16(s8)
   103e4:	8fc30010 	lw	v1,16(s8)
   103e8:	2402ffff 	li	v0,-1
   103ec:	14620009 	bne	v1,v0,10414 <_lseek_r+0x6c>
   103f0:	00000000 	nop
   103f4:	8f8280cc 	lw	v0,-32564(gp)
   103f8:	00000000 	nop
   103fc:	10400005 	beqz	v0,10414 <_lseek_r+0x6c>
   10400:	00000000 	nop
   10404:	8f8380cc 	lw	v1,-32564(gp)
   10408:	8fc20020 	lw	v0,32(s8)
   1040c:	00000000 	nop
   10410:	ac430000 	sw	v1,0(v0)
   10414:	8fc20010 	lw	v0,16(s8)
   10418:	03c0e821 	move	sp,s8
   1041c:	8fbf001c 	lw	ra,28(sp)
   10420:	8fbe0018 	lw	s8,24(sp)
   10424:	27bd0020 	addiu	sp,sp,32
   10428:	03e00008 	jr	ra
   1042c:	00000000 	nop

00010430 <memmove>:
   10430:	27bdffe8 	addiu	sp,sp,-24
   10434:	afbe0014 	sw	s8,20(sp)
   10438:	03a0f021 	move	s8,sp
   1043c:	afc40018 	sw	a0,24(s8)
   10440:	afc5001c 	sw	a1,28(s8)
   10444:	afc60020 	sw	a2,32(s8)
   10448:	8fc20018 	lw	v0,24(s8)
   1044c:	00000000 	nop
   10450:	afc20000 	sw	v0,0(s8)
   10454:	8fc2001c 	lw	v0,28(s8)
   10458:	00000000 	nop
   1045c:	afc20004 	sw	v0,4(s8)
   10460:	8fc30004 	lw	v1,4(s8)
   10464:	8fc20000 	lw	v0,0(s8)
   10468:	00000000 	nop
   1046c:	0062102b 	sltu	v0,v1,v0
   10470:	1040002c 	beqz	v0,10524 <memmove+0xf4>
   10474:	00000000 	nop
   10478:	8fc30004 	lw	v1,4(s8)
   1047c:	8fc20020 	lw	v0,32(s8)
   10480:	00000000 	nop
   10484:	00621821 	addu	v1,v1,v0
   10488:	8fc20000 	lw	v0,0(s8)
   1048c:	00000000 	nop
   10490:	0043102b 	sltu	v0,v0,v1
   10494:	10400023 	beqz	v0,10524 <memmove+0xf4>
   10498:	00000000 	nop
   1049c:	8fc30004 	lw	v1,4(s8)
   104a0:	8fc20020 	lw	v0,32(s8)
   104a4:	00000000 	nop
   104a8:	00621021 	addu	v0,v1,v0
   104ac:	afc20004 	sw	v0,4(s8)
   104b0:	8fc30000 	lw	v1,0(s8)
   104b4:	8fc20020 	lw	v0,32(s8)
   104b8:	00000000 	nop
   104bc:	00621021 	addu	v0,v1,v0
   104c0:	afc20000 	sw	v0,0(s8)
   104c4:	08004141 	j	10504 <memmove+0xd4>
   104c8:	00000000 	nop
   104cc:	8fc20000 	lw	v0,0(s8)
   104d0:	00000000 	nop
   104d4:	2442ffff 	addiu	v0,v0,-1
   104d8:	afc20000 	sw	v0,0(s8)
   104dc:	8fc20004 	lw	v0,4(s8)
   104e0:	00000000 	nop
   104e4:	2442ffff 	addiu	v0,v0,-1
   104e8:	afc20004 	sw	v0,4(s8)
   104ec:	8fc20004 	lw	v0,4(s8)
   104f0:	00000000 	nop
   104f4:	80430000 	lb	v1,0(v0)
   104f8:	8fc20000 	lw	v0,0(s8)
   104fc:	00000000 	nop
   10500:	a0430000 	sb	v1,0(v0)
   10504:	8fc20020 	lw	v0,32(s8)
   10508:	00000000 	nop
   1050c:	2443ffff 	addiu	v1,v0,-1
   10510:	afc30020 	sw	v1,32(s8)
   10514:	1440ffed 	bnez	v0,104cc <memmove+0x9c>
   10518:	00000000 	nop
   1051c:	080041c3 	j	1070c <memmove+0x2dc>
   10520:	00000000 	nop
   10524:	8fc20020 	lw	v0,32(s8)
   10528:	00000000 	nop
   1052c:	2c420010 	sltiu	v0,v0,16
   10530:	14400063 	bnez	v0,106c0 <memmove+0x290>
   10534:	00000000 	nop
   10538:	8fc30004 	lw	v1,4(s8)
   1053c:	8fc20000 	lw	v0,0(s8)
   10540:	00000000 	nop
   10544:	00621025 	or	v0,v1,v0
   10548:	30420003 	andi	v0,v0,0x3
   1054c:	1440005c 	bnez	v0,106c0 <memmove+0x290>
   10550:	00000000 	nop
   10554:	8fc20000 	lw	v0,0(s8)
   10558:	00000000 	nop
   1055c:	afc20008 	sw	v0,8(s8)
   10560:	8fc20004 	lw	v0,4(s8)
   10564:	00000000 	nop
   10568:	afc2000c 	sw	v0,12(s8)
   1056c:	0800418d 	j	10634 <memmove+0x204>
   10570:	00000000 	nop
   10574:	8fc20008 	lw	v0,8(s8)
   10578:	00000000 	nop
   1057c:	24430004 	addiu	v1,v0,4
   10580:	afc30008 	sw	v1,8(s8)
   10584:	8fc3000c 	lw	v1,12(s8)
   10588:	00000000 	nop
   1058c:	24640004 	addiu	a0,v1,4
   10590:	afc4000c 	sw	a0,12(s8)
   10594:	8c630000 	lw	v1,0(v1)
   10598:	00000000 	nop
   1059c:	ac430000 	sw	v1,0(v0)
   105a0:	8fc20008 	lw	v0,8(s8)
   105a4:	00000000 	nop
   105a8:	24430004 	addiu	v1,v0,4
   105ac:	afc30008 	sw	v1,8(s8)
   105b0:	8fc3000c 	lw	v1,12(s8)
   105b4:	00000000 	nop
   105b8:	24640004 	addiu	a0,v1,4
   105bc:	afc4000c 	sw	a0,12(s8)
   105c0:	8c630000 	lw	v1,0(v1)
   105c4:	00000000 	nop
   105c8:	ac430000 	sw	v1,0(v0)
   105cc:	8fc20008 	lw	v0,8(s8)
   105d0:	00000000 	nop
   105d4:	24430004 	addiu	v1,v0,4
   105d8:	afc30008 	sw	v1,8(s8)
   105dc:	8fc3000c 	lw	v1,12(s8)
   105e0:	00000000 	nop
   105e4:	24640004 	addiu	a0,v1,4
   105e8:	afc4000c 	sw	a0,12(s8)
   105ec:	8c630000 	lw	v1,0(v1)
   105f0:	00000000 	nop
   105f4:	ac430000 	sw	v1,0(v0)
   105f8:	8fc20008 	lw	v0,8(s8)
   105fc:	00000000 	nop
   10600:	24430004 	addiu	v1,v0,4
   10604:	afc30008 	sw	v1,8(s8)
   10608:	8fc3000c 	lw	v1,12(s8)
   1060c:	00000000 	nop
   10610:	24640004 	addiu	a0,v1,4
   10614:	afc4000c 	sw	a0,12(s8)
   10618:	8c630000 	lw	v1,0(v1)
   1061c:	00000000 	nop
   10620:	ac430000 	sw	v1,0(v0)
   10624:	8fc20020 	lw	v0,32(s8)
   10628:	00000000 	nop
   1062c:	2442fff0 	addiu	v0,v0,-16
   10630:	afc20020 	sw	v0,32(s8)
   10634:	8fc20020 	lw	v0,32(s8)
   10638:	00000000 	nop
   1063c:	2c420010 	sltiu	v0,v0,16
   10640:	1040ffcc 	beqz	v0,10574 <memmove+0x144>
   10644:	00000000 	nop
   10648:	080041a3 	j	1068c <memmove+0x25c>
   1064c:	00000000 	nop
   10650:	8fc20008 	lw	v0,8(s8)
   10654:	00000000 	nop
   10658:	24430004 	addiu	v1,v0,4
   1065c:	afc30008 	sw	v1,8(s8)
   10660:	8fc3000c 	lw	v1,12(s8)
   10664:	00000000 	nop
   10668:	24640004 	addiu	a0,v1,4
   1066c:	afc4000c 	sw	a0,12(s8)
   10670:	8c630000 	lw	v1,0(v1)
   10674:	00000000 	nop
   10678:	ac430000 	sw	v1,0(v0)
   1067c:	8fc20020 	lw	v0,32(s8)
   10680:	00000000 	nop
   10684:	2442fffc 	addiu	v0,v0,-4
   10688:	afc20020 	sw	v0,32(s8)
   1068c:	8fc20020 	lw	v0,32(s8)
   10690:	00000000 	nop
   10694:	2c420004 	sltiu	v0,v0,4
   10698:	1040ffed 	beqz	v0,10650 <memmove+0x220>
   1069c:	00000000 	nop
   106a0:	8fc20008 	lw	v0,8(s8)
   106a4:	00000000 	nop
   106a8:	afc20000 	sw	v0,0(s8)
   106ac:	8fc2000c 	lw	v0,12(s8)
   106b0:	00000000 	nop
   106b4:	afc20004 	sw	v0,4(s8)
   106b8:	080041bd 	j	106f4 <memmove+0x2c4>
   106bc:	00000000 	nop
   106c0:	080041bd 	j	106f4 <memmove+0x2c4>
   106c4:	00000000 	nop
   106c8:	8fc20000 	lw	v0,0(s8)
   106cc:	00000000 	nop
   106d0:	24430001 	addiu	v1,v0,1
   106d4:	afc30000 	sw	v1,0(s8)
   106d8:	8fc30004 	lw	v1,4(s8)
   106dc:	00000000 	nop
   106e0:	24640001 	addiu	a0,v1,1
   106e4:	afc40004 	sw	a0,4(s8)
   106e8:	80630000 	lb	v1,0(v1)
   106ec:	00000000 	nop
   106f0:	a0430000 	sb	v1,0(v0)
   106f4:	8fc20020 	lw	v0,32(s8)
   106f8:	00000000 	nop
   106fc:	2443ffff 	addiu	v1,v0,-1
   10700:	afc30020 	sw	v1,32(s8)
   10704:	1440fff0 	bnez	v0,106c8 <memmove+0x298>
   10708:	00000000 	nop
   1070c:	8fc20018 	lw	v0,24(s8)
   10710:	03c0e821 	move	sp,s8
   10714:	8fbe0014 	lw	s8,20(sp)
   10718:	27bd0018 	addiu	sp,sp,24
   1071c:	03e00008 	jr	ra
   10720:	00000000 	nop

00010724 <_read_r>:
   10724:	27bdffe0 	addiu	sp,sp,-32
   10728:	afbf001c 	sw	ra,28(sp)
   1072c:	afbe0018 	sw	s8,24(sp)
   10730:	03a0f021 	move	s8,sp
   10734:	afc40020 	sw	a0,32(s8)
   10738:	afc50024 	sw	a1,36(s8)
   1073c:	afc60028 	sw	a2,40(s8)
   10740:	afc7002c 	sw	a3,44(s8)
   10744:	af8080cc 	sw	zero,-32564(gp)
   10748:	8fc40024 	lw	a0,36(s8)
   1074c:	8fc50028 	lw	a1,40(s8)
   10750:	8fc6002c 	lw	a2,44(s8)
   10754:	0c004889 	jal	12224 <read>
   10758:	00000000 	nop
   1075c:	afc20010 	sw	v0,16(s8)
   10760:	8fc30010 	lw	v1,16(s8)
   10764:	2402ffff 	li	v0,-1
   10768:	14620009 	bne	v1,v0,10790 <_read_r+0x6c>
   1076c:	00000000 	nop
   10770:	8f8280cc 	lw	v0,-32564(gp)
   10774:	00000000 	nop
   10778:	10400005 	beqz	v0,10790 <_read_r+0x6c>
   1077c:	00000000 	nop
   10780:	8f8380cc 	lw	v1,-32564(gp)
   10784:	8fc20020 	lw	v0,32(s8)
   10788:	00000000 	nop
   1078c:	ac430000 	sw	v1,0(v0)
   10790:	8fc20010 	lw	v0,16(s8)
   10794:	03c0e821 	move	sp,s8
   10798:	8fbf001c 	lw	ra,28(sp)
   1079c:	8fbe0018 	lw	s8,24(sp)
   107a0:	27bd0020 	addiu	sp,sp,32
   107a4:	03e00008 	jr	ra
   107a8:	00000000 	nop

000107ac <_realloc_r>:
   107ac:	27bdff80 	addiu	sp,sp,-128
   107b0:	afbf007c 	sw	ra,124(sp)
   107b4:	afbe0078 	sw	s8,120(sp)
   107b8:	03a0f021 	move	s8,sp
   107bc:	afc40080 	sw	a0,128(s8)
   107c0:	afc50084 	sw	a1,132(s8)
   107c4:	afc60088 	sw	a2,136(s8)
   107c8:	8fc20084 	lw	v0,132(s8)
   107cc:	00000000 	nop
   107d0:	14400007 	bnez	v0,107f0 <_realloc_r+0x44>
   107d4:	00000000 	nop
   107d8:	8fc40080 	lw	a0,128(s8)
   107dc:	8fc50088 	lw	a1,136(s8)
   107e0:	0c002291 	jal	8a44 <_malloc_r>
   107e4:	00000000 	nop
   107e8:	0800462a 	j	118a8 <_realloc_r+0x10fc>
   107ec:	00000000 	nop
   107f0:	8fc40080 	lw	a0,128(s8)
   107f4:	0c0028ac 	jal	a2b0 <__malloc_lock>
   107f8:	00000000 	nop
   107fc:	8fc20084 	lw	v0,132(s8)
   10800:	00000000 	nop
   10804:	2442fff8 	addiu	v0,v0,-8
   10808:	afc20040 	sw	v0,64(s8)
   1080c:	8fc20040 	lw	v0,64(s8)
   10810:	00000000 	nop
   10814:	afc20010 	sw	v0,16(s8)
   10818:	8fc20040 	lw	v0,64(s8)
   1081c:	00000000 	nop
   10820:	8c430004 	lw	v1,4(v0)
   10824:	2402fffc 	li	v0,-4
   10828:	00621024 	and	v0,v1,v0
   1082c:	afc20044 	sw	v0,68(s8)
   10830:	8fc20044 	lw	v0,68(s8)
   10834:	00000000 	nop
   10838:	afc20014 	sw	v0,20(s8)
   1083c:	8fc20088 	lw	v0,136(s8)
   10840:	00000000 	nop
   10844:	2442000b 	addiu	v0,v0,11
   10848:	2c420017 	sltiu	v0,v0,23
   1084c:	14400008 	bnez	v0,10870 <_realloc_r+0xc4>
   10850:	00000000 	nop
   10854:	8fc20088 	lw	v0,136(s8)
   10858:	00000000 	nop
   1085c:	2443000b 	addiu	v1,v0,11
   10860:	2402fff8 	li	v0,-8
   10864:	00621024 	and	v0,v1,v0
   10868:	0800421d 	j	10874 <_realloc_r+0xc8>
   1086c:	00000000 	nop
   10870:	24020010 	li	v0,16
   10874:	afc20048 	sw	v0,72(s8)
   10878:	8fc20048 	lw	v0,72(s8)
   1087c:	00000000 	nop
   10880:	04400007 	bltz	v0,108a0 <_realloc_r+0xf4>
   10884:	00000000 	nop
   10888:	8fc30048 	lw	v1,72(s8)
   1088c:	8fc20088 	lw	v0,136(s8)
   10890:	00000000 	nop
   10894:	0062102b 	sltu	v0,v1,v0
   10898:	10400007 	beqz	v0,108b8 <_realloc_r+0x10c>
   1089c:	00000000 	nop
   108a0:	8fc20080 	lw	v0,128(s8)
   108a4:	2403000c 	li	v1,12
   108a8:	ac430000 	sw	v1,0(v0)
   108ac:	00001021 	move	v0,zero
   108b0:	0800462a 	j	118a8 <_realloc_r+0x10fc>
   108b4:	00000000 	nop
   108b8:	8fc30044 	lw	v1,68(s8)
   108bc:	8fc20048 	lw	v0,72(s8)
   108c0:	00000000 	nop
   108c4:	0062102a 	slt	v0,v1,v0
   108c8:	104003a5 	beqz	v0,11760 <_realloc_r+0xfb4>
   108cc:	00000000 	nop
   108d0:	8fc30040 	lw	v1,64(s8)
   108d4:	8fc20044 	lw	v0,68(s8)
   108d8:	00000000 	nop
   108dc:	00621021 	addu	v0,v1,v0
   108e0:	afc20018 	sw	v0,24(s8)
   108e4:	3c020001 	lui	v0,0x1
   108e8:	24426590 	addiu	v0,v0,26000
   108ec:	8c430008 	lw	v1,8(v0)
   108f0:	8fc20018 	lw	v0,24(s8)
   108f4:	00000000 	nop
   108f8:	1062000e 	beq	v1,v0,10934 <_realloc_r+0x188>
   108fc:	00000000 	nop
   10900:	8fc20018 	lw	v0,24(s8)
   10904:	00000000 	nop
   10908:	8c430004 	lw	v1,4(v0)
   1090c:	2402fffe 	li	v0,-2
   10910:	00621024 	and	v0,v1,v0
   10914:	8fc30018 	lw	v1,24(s8)
   10918:	00000000 	nop
   1091c:	00621021 	addu	v0,v1,v0
   10920:	8c420004 	lw	v0,4(v0)
   10924:	00000000 	nop
   10928:	30420001 	andi	v0,v0,0x1
   1092c:	14400066 	bnez	v0,10ac8 <_realloc_r+0x31c>
   10930:	00000000 	nop
   10934:	8fc20018 	lw	v0,24(s8)
   10938:	00000000 	nop
   1093c:	8c430004 	lw	v1,4(v0)
   10940:	2402fffc 	li	v0,-4
   10944:	00621024 	and	v0,v1,v0
   10948:	afc2001c 	sw	v0,28(s8)
   1094c:	3c020001 	lui	v0,0x1
   10950:	24426590 	addiu	v0,v0,26000
   10954:	8c430008 	lw	v1,8(v0)
   10958:	8fc20018 	lw	v0,24(s8)
   1095c:	00000000 	nop
   10960:	14620034 	bne	v1,v0,10a34 <_realloc_r+0x288>
   10964:	00000000 	nop
   10968:	8fc3001c 	lw	v1,28(s8)
   1096c:	8fc20014 	lw	v0,20(s8)
   10970:	00000000 	nop
   10974:	00621021 	addu	v0,v1,v0
   10978:	00401821 	move	v1,v0
   1097c:	8fc20048 	lw	v0,72(s8)
   10980:	00000000 	nop
   10984:	24420010 	addiu	v0,v0,16
   10988:	0062102a 	slt	v0,v1,v0
   1098c:	1440004c 	bnez	v0,10ac0 <_realloc_r+0x314>
   10990:	00000000 	nop
   10994:	8fc30014 	lw	v1,20(s8)
   10998:	8fc2001c 	lw	v0,28(s8)
   1099c:	00000000 	nop
   109a0:	00621021 	addu	v0,v1,v0
   109a4:	afc20014 	sw	v0,20(s8)
   109a8:	3c020001 	lui	v0,0x1
   109ac:	24426590 	addiu	v0,v0,26000
   109b0:	8fc40040 	lw	a0,64(s8)
   109b4:	8fc30048 	lw	v1,72(s8)
   109b8:	00000000 	nop
   109bc:	00831821 	addu	v1,a0,v1
   109c0:	ac430008 	sw	v1,8(v0)
   109c4:	3c020001 	lui	v0,0x1
   109c8:	24426590 	addiu	v0,v0,26000
   109cc:	8c420008 	lw	v0,8(v0)
   109d0:	8fc40014 	lw	a0,20(s8)
   109d4:	8fc30048 	lw	v1,72(s8)
   109d8:	00000000 	nop
   109dc:	00831823 	subu	v1,a0,v1
   109e0:	34630001 	ori	v1,v1,0x1
   109e4:	ac430004 	sw	v1,4(v0)
   109e8:	8fc20040 	lw	v0,64(s8)
   109ec:	00000000 	nop
   109f0:	8c420004 	lw	v0,4(v0)
   109f4:	00000000 	nop
   109f8:	30430001 	andi	v1,v0,0x1
   109fc:	8fc20048 	lw	v0,72(s8)
   10a00:	00000000 	nop
   10a04:	00621825 	or	v1,v1,v0
   10a08:	8fc20040 	lw	v0,64(s8)
   10a0c:	00000000 	nop
   10a10:	ac430004 	sw	v1,4(v0)
   10a14:	8fc40080 	lw	a0,128(s8)
   10a18:	0c0028b5 	jal	a2d4 <__malloc_unlock>
   10a1c:	00000000 	nop
   10a20:	8fc20040 	lw	v0,64(s8)
   10a24:	00000000 	nop
   10a28:	24420008 	addiu	v0,v0,8
   10a2c:	0800462a 	j	118a8 <_realloc_r+0x10fc>
   10a30:	00000000 	nop
   10a34:	8fc3001c 	lw	v1,28(s8)
   10a38:	8fc20014 	lw	v0,20(s8)
   10a3c:	00000000 	nop
   10a40:	00621021 	addu	v0,v1,v0
   10a44:	00401821 	move	v1,v0
   10a48:	8fc20048 	lw	v0,72(s8)
   10a4c:	00000000 	nop
   10a50:	0062102a 	slt	v0,v1,v0
   10a54:	1440001a 	bnez	v0,10ac0 <_realloc_r+0x314>
   10a58:	00000000 	nop
   10a5c:	8fc20018 	lw	v0,24(s8)
   10a60:	00000000 	nop
   10a64:	8c42000c 	lw	v0,12(v0)
   10a68:	00000000 	nop
   10a6c:	afc2004c 	sw	v0,76(s8)
   10a70:	8fc20018 	lw	v0,24(s8)
   10a74:	00000000 	nop
   10a78:	8c420008 	lw	v0,8(v0)
   10a7c:	00000000 	nop
   10a80:	afc20050 	sw	v0,80(s8)
   10a84:	8fc20050 	lw	v0,80(s8)
   10a88:	8fc3004c 	lw	v1,76(s8)
   10a8c:	00000000 	nop
   10a90:	ac43000c 	sw	v1,12(v0)
   10a94:	8fc2004c 	lw	v0,76(s8)
   10a98:	8fc30050 	lw	v1,80(s8)
   10a9c:	00000000 	nop
   10aa0:	ac430008 	sw	v1,8(v0)
   10aa4:	8fc30014 	lw	v1,20(s8)
   10aa8:	8fc2001c 	lw	v0,28(s8)
   10aac:	00000000 	nop
   10ab0:	00621021 	addu	v0,v1,v0
   10ab4:	afc20014 	sw	v0,20(s8)
   10ab8:	080045d8 	j	11760 <_realloc_r+0xfb4>
   10abc:	00000000 	nop
   10ac0:	080042b4 	j	10ad0 <_realloc_r+0x324>
   10ac4:	00000000 	nop
   10ac8:	afc00018 	sw	zero,24(s8)
   10acc:	afc0001c 	sw	zero,28(s8)
   10ad0:	8fc20040 	lw	v0,64(s8)
   10ad4:	00000000 	nop
   10ad8:	8c420004 	lw	v0,4(v0)
   10adc:	00000000 	nop
   10ae0:	30420001 	andi	v0,v0,0x1
   10ae4:	14400264 	bnez	v0,11478 <_realloc_r+0xccc>
   10ae8:	00000000 	nop
   10aec:	8fc20040 	lw	v0,64(s8)
   10af0:	00000000 	nop
   10af4:	8c420000 	lw	v0,0(v0)
   10af8:	00000000 	nop
   10afc:	00021023 	negu	v0,v0
   10b00:	8fc30040 	lw	v1,64(s8)
   10b04:	00000000 	nop
   10b08:	00621021 	addu	v0,v1,v0
   10b0c:	afc20054 	sw	v0,84(s8)
   10b10:	8fc20054 	lw	v0,84(s8)
   10b14:	00000000 	nop
   10b18:	8c430004 	lw	v1,4(v0)
   10b1c:	2402fffc 	li	v0,-4
   10b20:	00621024 	and	v0,v1,v0
   10b24:	afc20058 	sw	v0,88(s8)
   10b28:	8fc20018 	lw	v0,24(s8)
   10b2c:	00000000 	nop
   10b30:	104001a0 	beqz	v0,111b4 <_realloc_r+0xa08>
   10b34:	00000000 	nop
   10b38:	3c020001 	lui	v0,0x1
   10b3c:	24426590 	addiu	v0,v0,26000
   10b40:	8c430008 	lw	v1,8(v0)
   10b44:	8fc20018 	lw	v0,24(s8)
   10b48:	00000000 	nop
   10b4c:	146200d4 	bne	v1,v0,10ea0 <_realloc_r+0x6f4>
   10b50:	00000000 	nop
   10b54:	8fc3001c 	lw	v1,28(s8)
   10b58:	8fc20058 	lw	v0,88(s8)
   10b5c:	00000000 	nop
   10b60:	00621821 	addu	v1,v1,v0
   10b64:	8fc20014 	lw	v0,20(s8)
   10b68:	00000000 	nop
   10b6c:	00621021 	addu	v0,v1,v0
   10b70:	00401821 	move	v1,v0
   10b74:	8fc20048 	lw	v0,72(s8)
   10b78:	00000000 	nop
   10b7c:	24420010 	addiu	v0,v0,16
   10b80:	0062102a 	slt	v0,v1,v0
   10b84:	1440018b 	bnez	v0,111b4 <_realloc_r+0xa08>
   10b88:	00000000 	nop
   10b8c:	8fc20054 	lw	v0,84(s8)
   10b90:	00000000 	nop
   10b94:	8c42000c 	lw	v0,12(v0)
   10b98:	00000000 	nop
   10b9c:	afc2004c 	sw	v0,76(s8)
   10ba0:	8fc20054 	lw	v0,84(s8)
   10ba4:	00000000 	nop
   10ba8:	8c420008 	lw	v0,8(v0)
   10bac:	00000000 	nop
   10bb0:	afc20050 	sw	v0,80(s8)
   10bb4:	8fc20050 	lw	v0,80(s8)
   10bb8:	8fc3004c 	lw	v1,76(s8)
   10bbc:	00000000 	nop
   10bc0:	ac43000c 	sw	v1,12(v0)
   10bc4:	8fc2004c 	lw	v0,76(s8)
   10bc8:	8fc30050 	lw	v1,80(s8)
   10bcc:	00000000 	nop
   10bd0:	ac430008 	sw	v1,8(v0)
   10bd4:	8fc20054 	lw	v0,84(s8)
   10bd8:	00000000 	nop
   10bdc:	afc20010 	sw	v0,16(s8)
   10be0:	8fc30058 	lw	v1,88(s8)
   10be4:	8fc2001c 	lw	v0,28(s8)
   10be8:	00000000 	nop
   10bec:	00621021 	addu	v0,v1,v0
   10bf0:	8fc30014 	lw	v1,20(s8)
   10bf4:	00000000 	nop
   10bf8:	00621021 	addu	v0,v1,v0
   10bfc:	afc20014 	sw	v0,20(s8)
   10c00:	8fc20010 	lw	v0,16(s8)
   10c04:	00000000 	nop
   10c08:	24420008 	addiu	v0,v0,8
   10c0c:	afc2005c 	sw	v0,92(s8)
   10c10:	8fc20044 	lw	v0,68(s8)
   10c14:	00000000 	nop
   10c18:	2442fffc 	addiu	v0,v0,-4
   10c1c:	afc20060 	sw	v0,96(s8)
   10c20:	8fc20060 	lw	v0,96(s8)
   10c24:	00000000 	nop
   10c28:	2c420025 	sltiu	v0,v0,37
   10c2c:	10400076 	beqz	v0,10e08 <_realloc_r+0x65c>
   10c30:	00000000 	nop
   10c34:	8fc20084 	lw	v0,132(s8)
   10c38:	00000000 	nop
   10c3c:	afc20020 	sw	v0,32(s8)
   10c40:	8fc2005c 	lw	v0,92(s8)
   10c44:	00000000 	nop
   10c48:	afc20024 	sw	v0,36(s8)
   10c4c:	8fc20060 	lw	v0,96(s8)
   10c50:	00000000 	nop
   10c54:	2c420014 	sltiu	v0,v0,20
   10c58:	1440004d 	bnez	v0,10d90 <_realloc_r+0x5e4>
   10c5c:	00000000 	nop
   10c60:	8fc20024 	lw	v0,36(s8)
   10c64:	00000000 	nop
   10c68:	24430004 	addiu	v1,v0,4
   10c6c:	afc30024 	sw	v1,36(s8)
   10c70:	8fc30020 	lw	v1,32(s8)
   10c74:	00000000 	nop
   10c78:	24640004 	addiu	a0,v1,4
   10c7c:	afc40020 	sw	a0,32(s8)
   10c80:	8c630000 	lw	v1,0(v1)
   10c84:	00000000 	nop
   10c88:	ac430000 	sw	v1,0(v0)
   10c8c:	8fc20024 	lw	v0,36(s8)
   10c90:	00000000 	nop
   10c94:	24430004 	addiu	v1,v0,4
   10c98:	afc30024 	sw	v1,36(s8)
   10c9c:	8fc30020 	lw	v1,32(s8)
   10ca0:	00000000 	nop
   10ca4:	24640004 	addiu	a0,v1,4
   10ca8:	afc40020 	sw	a0,32(s8)
   10cac:	8c630000 	lw	v1,0(v1)
   10cb0:	00000000 	nop
   10cb4:	ac430000 	sw	v1,0(v0)
   10cb8:	8fc20060 	lw	v0,96(s8)
   10cbc:	00000000 	nop
   10cc0:	2c42001c 	sltiu	v0,v0,28
   10cc4:	14400032 	bnez	v0,10d90 <_realloc_r+0x5e4>
   10cc8:	00000000 	nop
   10ccc:	8fc20024 	lw	v0,36(s8)
   10cd0:	00000000 	nop
   10cd4:	24430004 	addiu	v1,v0,4
   10cd8:	afc30024 	sw	v1,36(s8)
   10cdc:	8fc30020 	lw	v1,32(s8)
   10ce0:	00000000 	nop
   10ce4:	24640004 	addiu	a0,v1,4
   10ce8:	afc40020 	sw	a0,32(s8)
   10cec:	8c630000 	lw	v1,0(v1)
   10cf0:	00000000 	nop
   10cf4:	ac430000 	sw	v1,0(v0)
   10cf8:	8fc20024 	lw	v0,36(s8)
   10cfc:	00000000 	nop
   10d00:	24430004 	addiu	v1,v0,4
   10d04:	afc30024 	sw	v1,36(s8)
   10d08:	8fc30020 	lw	v1,32(s8)
   10d0c:	00000000 	nop
   10d10:	24640004 	addiu	a0,v1,4
   10d14:	afc40020 	sw	a0,32(s8)
   10d18:	8c630000 	lw	v1,0(v1)
   10d1c:	00000000 	nop
   10d20:	ac430000 	sw	v1,0(v0)
   10d24:	8fc20060 	lw	v0,96(s8)
   10d28:	00000000 	nop
   10d2c:	2c420024 	sltiu	v0,v0,36
   10d30:	14400017 	bnez	v0,10d90 <_realloc_r+0x5e4>
   10d34:	00000000 	nop
   10d38:	8fc20024 	lw	v0,36(s8)
   10d3c:	00000000 	nop
   10d40:	24430004 	addiu	v1,v0,4
   10d44:	afc30024 	sw	v1,36(s8)
   10d48:	8fc30020 	lw	v1,32(s8)
   10d4c:	00000000 	nop
   10d50:	24640004 	addiu	a0,v1,4
   10d54:	afc40020 	sw	a0,32(s8)
   10d58:	8c630000 	lw	v1,0(v1)
   10d5c:	00000000 	nop
   10d60:	ac430000 	sw	v1,0(v0)
   10d64:	8fc20024 	lw	v0,36(s8)
   10d68:	00000000 	nop
   10d6c:	24430004 	addiu	v1,v0,4
   10d70:	afc30024 	sw	v1,36(s8)
   10d74:	8fc30020 	lw	v1,32(s8)
   10d78:	00000000 	nop
   10d7c:	24640004 	addiu	a0,v1,4
   10d80:	afc40020 	sw	a0,32(s8)
   10d84:	8c630000 	lw	v1,0(v1)
   10d88:	00000000 	nop
   10d8c:	ac430000 	sw	v1,0(v0)
   10d90:	8fc20024 	lw	v0,36(s8)
   10d94:	00000000 	nop
   10d98:	24430004 	addiu	v1,v0,4
   10d9c:	afc30024 	sw	v1,36(s8)
   10da0:	8fc30020 	lw	v1,32(s8)
   10da4:	00000000 	nop
   10da8:	24640004 	addiu	a0,v1,4
   10dac:	afc40020 	sw	a0,32(s8)
   10db0:	8c630000 	lw	v1,0(v1)
   10db4:	00000000 	nop
   10db8:	ac430000 	sw	v1,0(v0)
   10dbc:	8fc20024 	lw	v0,36(s8)
   10dc0:	00000000 	nop
   10dc4:	24430004 	addiu	v1,v0,4
   10dc8:	afc30024 	sw	v1,36(s8)
   10dcc:	8fc30020 	lw	v1,32(s8)
   10dd0:	00000000 	nop
   10dd4:	24640004 	addiu	a0,v1,4
   10dd8:	afc40020 	sw	a0,32(s8)
   10ddc:	8c630000 	lw	v1,0(v1)
   10de0:	00000000 	nop
   10de4:	ac430000 	sw	v1,0(v0)
   10de8:	8fc20020 	lw	v0,32(s8)
   10dec:	00000000 	nop
   10df0:	8c430000 	lw	v1,0(v0)
   10df4:	8fc20024 	lw	v0,36(s8)
   10df8:	00000000 	nop
   10dfc:	ac430000 	sw	v1,0(v0)
   10e00:	08004387 	j	10e1c <_realloc_r+0x670>
   10e04:	00000000 	nop
   10e08:	8fc4005c 	lw	a0,92(s8)
   10e0c:	8fc50084 	lw	a1,132(s8)
   10e10:	8fc60060 	lw	a2,96(s8)
   10e14:	0c00410c 	jal	10430 <memmove>
   10e18:	00000000 	nop
   10e1c:	3c020001 	lui	v0,0x1
   10e20:	24426590 	addiu	v0,v0,26000
   10e24:	8fc40010 	lw	a0,16(s8)
   10e28:	8fc30048 	lw	v1,72(s8)
   10e2c:	00000000 	nop
   10e30:	00831821 	addu	v1,a0,v1
   10e34:	ac430008 	sw	v1,8(v0)
   10e38:	3c020001 	lui	v0,0x1
   10e3c:	24426590 	addiu	v0,v0,26000
   10e40:	8c420008 	lw	v0,8(v0)
   10e44:	8fc40014 	lw	a0,20(s8)
   10e48:	8fc30048 	lw	v1,72(s8)
   10e4c:	00000000 	nop
   10e50:	00831823 	subu	v1,a0,v1
   10e54:	34630001 	ori	v1,v1,0x1
   10e58:	ac430004 	sw	v1,4(v0)
   10e5c:	8fc20010 	lw	v0,16(s8)
   10e60:	00000000 	nop
   10e64:	8c420004 	lw	v0,4(v0)
   10e68:	00000000 	nop
   10e6c:	30430001 	andi	v1,v0,0x1
   10e70:	8fc20048 	lw	v0,72(s8)
   10e74:	00000000 	nop
   10e78:	00621825 	or	v1,v1,v0
   10e7c:	8fc20010 	lw	v0,16(s8)
   10e80:	00000000 	nop
   10e84:	ac430004 	sw	v1,4(v0)
   10e88:	8fc40080 	lw	a0,128(s8)
   10e8c:	0c0028b5 	jal	a2d4 <__malloc_unlock>
   10e90:	00000000 	nop
   10e94:	8fc2005c 	lw	v0,92(s8)
   10e98:	0800462a 	j	118a8 <_realloc_r+0x10fc>
   10e9c:	00000000 	nop
   10ea0:	8fc3001c 	lw	v1,28(s8)
   10ea4:	8fc20058 	lw	v0,88(s8)
   10ea8:	00000000 	nop
   10eac:	00621821 	addu	v1,v1,v0
   10eb0:	8fc20014 	lw	v0,20(s8)
   10eb4:	00000000 	nop
   10eb8:	00621021 	addu	v0,v1,v0
   10ebc:	00401821 	move	v1,v0
   10ec0:	8fc20048 	lw	v0,72(s8)
   10ec4:	00000000 	nop
   10ec8:	0062102a 	slt	v0,v1,v0
   10ecc:	144000b9 	bnez	v0,111b4 <_realloc_r+0xa08>
   10ed0:	00000000 	nop
   10ed4:	8fc20018 	lw	v0,24(s8)
   10ed8:	00000000 	nop
   10edc:	8c42000c 	lw	v0,12(v0)
   10ee0:	00000000 	nop
   10ee4:	afc2004c 	sw	v0,76(s8)
   10ee8:	8fc20018 	lw	v0,24(s8)
   10eec:	00000000 	nop
   10ef0:	8c420008 	lw	v0,8(v0)
   10ef4:	00000000 	nop
   10ef8:	afc20050 	sw	v0,80(s8)
   10efc:	8fc20050 	lw	v0,80(s8)
   10f00:	8fc3004c 	lw	v1,76(s8)
   10f04:	00000000 	nop
   10f08:	ac43000c 	sw	v1,12(v0)
   10f0c:	8fc2004c 	lw	v0,76(s8)
   10f10:	8fc30050 	lw	v1,80(s8)
   10f14:	00000000 	nop
   10f18:	ac430008 	sw	v1,8(v0)
   10f1c:	8fc20054 	lw	v0,84(s8)
   10f20:	00000000 	nop
   10f24:	8c42000c 	lw	v0,12(v0)
   10f28:	00000000 	nop
   10f2c:	afc2004c 	sw	v0,76(s8)
   10f30:	8fc20054 	lw	v0,84(s8)
   10f34:	00000000 	nop
   10f38:	8c420008 	lw	v0,8(v0)
   10f3c:	00000000 	nop
   10f40:	afc20050 	sw	v0,80(s8)
   10f44:	8fc20050 	lw	v0,80(s8)
   10f48:	8fc3004c 	lw	v1,76(s8)
   10f4c:	00000000 	nop
   10f50:	ac43000c 	sw	v1,12(v0)
   10f54:	8fc2004c 	lw	v0,76(s8)
   10f58:	8fc30050 	lw	v1,80(s8)
   10f5c:	00000000 	nop
   10f60:	ac430008 	sw	v1,8(v0)
   10f64:	8fc20054 	lw	v0,84(s8)
   10f68:	00000000 	nop
   10f6c:	afc20010 	sw	v0,16(s8)
   10f70:	8fc3001c 	lw	v1,28(s8)
   10f74:	8fc20058 	lw	v0,88(s8)
   10f78:	00000000 	nop
   10f7c:	00621021 	addu	v0,v1,v0
   10f80:	8fc30014 	lw	v1,20(s8)
   10f84:	00000000 	nop
   10f88:	00621021 	addu	v0,v1,v0
   10f8c:	afc20014 	sw	v0,20(s8)
   10f90:	8fc20010 	lw	v0,16(s8)
   10f94:	00000000 	nop
   10f98:	24420008 	addiu	v0,v0,8
   10f9c:	afc2005c 	sw	v0,92(s8)
   10fa0:	8fc20044 	lw	v0,68(s8)
   10fa4:	00000000 	nop
   10fa8:	2442fffc 	addiu	v0,v0,-4
   10fac:	afc20064 	sw	v0,100(s8)
   10fb0:	8fc20064 	lw	v0,100(s8)
   10fb4:	00000000 	nop
   10fb8:	2c420025 	sltiu	v0,v0,37
   10fbc:	10400076 	beqz	v0,11198 <_realloc_r+0x9ec>
   10fc0:	00000000 	nop
   10fc4:	8fc20084 	lw	v0,132(s8)
   10fc8:	00000000 	nop
   10fcc:	afc20028 	sw	v0,40(s8)
   10fd0:	8fc2005c 	lw	v0,92(s8)
   10fd4:	00000000 	nop
   10fd8:	afc2002c 	sw	v0,44(s8)
   10fdc:	8fc20064 	lw	v0,100(s8)
   10fe0:	00000000 	nop
   10fe4:	2c420014 	sltiu	v0,v0,20
   10fe8:	1440004d 	bnez	v0,11120 <_realloc_r+0x974>
   10fec:	00000000 	nop
   10ff0:	8fc2002c 	lw	v0,44(s8)
   10ff4:	00000000 	nop
   10ff8:	24430004 	addiu	v1,v0,4
   10ffc:	afc3002c 	sw	v1,44(s8)
   11000:	8fc30028 	lw	v1,40(s8)
   11004:	00000000 	nop
   11008:	24640004 	addiu	a0,v1,4
   1100c:	afc40028 	sw	a0,40(s8)
   11010:	8c630000 	lw	v1,0(v1)
   11014:	00000000 	nop
   11018:	ac430000 	sw	v1,0(v0)
   1101c:	8fc2002c 	lw	v0,44(s8)
   11020:	00000000 	nop
   11024:	24430004 	addiu	v1,v0,4
   11028:	afc3002c 	sw	v1,44(s8)
   1102c:	8fc30028 	lw	v1,40(s8)
   11030:	00000000 	nop
   11034:	24640004 	addiu	a0,v1,4
   11038:	afc40028 	sw	a0,40(s8)
   1103c:	8c630000 	lw	v1,0(v1)
   11040:	00000000 	nop
   11044:	ac430000 	sw	v1,0(v0)
   11048:	8fc20064 	lw	v0,100(s8)
   1104c:	00000000 	nop
   11050:	2c42001c 	sltiu	v0,v0,28
   11054:	14400032 	bnez	v0,11120 <_realloc_r+0x974>
   11058:	00000000 	nop
   1105c:	8fc2002c 	lw	v0,44(s8)
   11060:	00000000 	nop
   11064:	24430004 	addiu	v1,v0,4
   11068:	afc3002c 	sw	v1,44(s8)
   1106c:	8fc30028 	lw	v1,40(s8)
   11070:	00000000 	nop
   11074:	24640004 	addiu	a0,v1,4
   11078:	afc40028 	sw	a0,40(s8)
   1107c:	8c630000 	lw	v1,0(v1)
   11080:	00000000 	nop
   11084:	ac430000 	sw	v1,0(v0)
   11088:	8fc2002c 	lw	v0,44(s8)
   1108c:	00000000 	nop
   11090:	24430004 	addiu	v1,v0,4
   11094:	afc3002c 	sw	v1,44(s8)
   11098:	8fc30028 	lw	v1,40(s8)
   1109c:	00000000 	nop
   110a0:	24640004 	addiu	a0,v1,4
   110a4:	afc40028 	sw	a0,40(s8)
   110a8:	8c630000 	lw	v1,0(v1)
   110ac:	00000000 	nop
   110b0:	ac430000 	sw	v1,0(v0)
   110b4:	8fc20064 	lw	v0,100(s8)
   110b8:	00000000 	nop
   110bc:	2c420024 	sltiu	v0,v0,36
   110c0:	14400017 	bnez	v0,11120 <_realloc_r+0x974>
   110c4:	00000000 	nop
   110c8:	8fc2002c 	lw	v0,44(s8)
   110cc:	00000000 	nop
   110d0:	24430004 	addiu	v1,v0,4
   110d4:	afc3002c 	sw	v1,44(s8)
   110d8:	8fc30028 	lw	v1,40(s8)
   110dc:	00000000 	nop
   110e0:	24640004 	addiu	a0,v1,4
   110e4:	afc40028 	sw	a0,40(s8)
   110e8:	8c630000 	lw	v1,0(v1)
   110ec:	00000000 	nop
   110f0:	ac430000 	sw	v1,0(v0)
   110f4:	8fc2002c 	lw	v0,44(s8)
   110f8:	00000000 	nop
   110fc:	24430004 	addiu	v1,v0,4
   11100:	afc3002c 	sw	v1,44(s8)
   11104:	8fc30028 	lw	v1,40(s8)
   11108:	00000000 	nop
   1110c:	24640004 	addiu	a0,v1,4
   11110:	afc40028 	sw	a0,40(s8)
   11114:	8c630000 	lw	v1,0(v1)
   11118:	00000000 	nop
   1111c:	ac430000 	sw	v1,0(v0)
   11120:	8fc2002c 	lw	v0,44(s8)
   11124:	00000000 	nop
   11128:	24430004 	addiu	v1,v0,4
   1112c:	afc3002c 	sw	v1,44(s8)
   11130:	8fc30028 	lw	v1,40(s8)
   11134:	00000000 	nop
   11138:	24640004 	addiu	a0,v1,4
   1113c:	afc40028 	sw	a0,40(s8)
   11140:	8c630000 	lw	v1,0(v1)
   11144:	00000000 	nop
   11148:	ac430000 	sw	v1,0(v0)
   1114c:	8fc2002c 	lw	v0,44(s8)
   11150:	00000000 	nop
   11154:	24430004 	addiu	v1,v0,4
   11158:	afc3002c 	sw	v1,44(s8)
   1115c:	8fc30028 	lw	v1,40(s8)
   11160:	00000000 	nop
   11164:	24640004 	addiu	a0,v1,4
   11168:	afc40028 	sw	a0,40(s8)
   1116c:	8c630000 	lw	v1,0(v1)
   11170:	00000000 	nop
   11174:	ac430000 	sw	v1,0(v0)
   11178:	8fc20028 	lw	v0,40(s8)
   1117c:	00000000 	nop
   11180:	8c430000 	lw	v1,0(v0)
   11184:	8fc2002c 	lw	v0,44(s8)
   11188:	00000000 	nop
   1118c:	ac430000 	sw	v1,0(v0)
   11190:	080045d8 	j	11760 <_realloc_r+0xfb4>
   11194:	00000000 	nop
   11198:	8fc4005c 	lw	a0,92(s8)
   1119c:	8fc50084 	lw	a1,132(s8)
   111a0:	8fc60064 	lw	a2,100(s8)
   111a4:	0c00410c 	jal	10430 <memmove>
   111a8:	00000000 	nop
   111ac:	080045d8 	j	11760 <_realloc_r+0xfb4>
   111b0:	00000000 	nop
   111b4:	8fc20054 	lw	v0,84(s8)
   111b8:	00000000 	nop
   111bc:	104000ae 	beqz	v0,11478 <_realloc_r+0xccc>
   111c0:	00000000 	nop
   111c4:	8fc30058 	lw	v1,88(s8)
   111c8:	8fc20014 	lw	v0,20(s8)
   111cc:	00000000 	nop
   111d0:	00621021 	addu	v0,v1,v0
   111d4:	00401821 	move	v1,v0
   111d8:	8fc20048 	lw	v0,72(s8)
   111dc:	00000000 	nop
   111e0:	0062102a 	slt	v0,v1,v0
   111e4:	144000a4 	bnez	v0,11478 <_realloc_r+0xccc>
   111e8:	00000000 	nop
   111ec:	8fc20054 	lw	v0,84(s8)
   111f0:	00000000 	nop
   111f4:	8c42000c 	lw	v0,12(v0)
   111f8:	00000000 	nop
   111fc:	afc2004c 	sw	v0,76(s8)
   11200:	8fc20054 	lw	v0,84(s8)
   11204:	00000000 	nop
   11208:	8c420008 	lw	v0,8(v0)
   1120c:	00000000 	nop
   11210:	afc20050 	sw	v0,80(s8)
   11214:	8fc20050 	lw	v0,80(s8)
   11218:	8fc3004c 	lw	v1,76(s8)
   1121c:	00000000 	nop
   11220:	ac43000c 	sw	v1,12(v0)
   11224:	8fc2004c 	lw	v0,76(s8)
   11228:	8fc30050 	lw	v1,80(s8)
   1122c:	00000000 	nop
   11230:	ac430008 	sw	v1,8(v0)
   11234:	8fc20054 	lw	v0,84(s8)
   11238:	00000000 	nop
   1123c:	afc20010 	sw	v0,16(s8)
   11240:	8fc30014 	lw	v1,20(s8)
   11244:	8fc20058 	lw	v0,88(s8)
   11248:	00000000 	nop
   1124c:	00621021 	addu	v0,v1,v0
   11250:	afc20014 	sw	v0,20(s8)
   11254:	8fc20010 	lw	v0,16(s8)
   11258:	00000000 	nop
   1125c:	24420008 	addiu	v0,v0,8
   11260:	afc2005c 	sw	v0,92(s8)
   11264:	8fc20044 	lw	v0,68(s8)
   11268:	00000000 	nop
   1126c:	2442fffc 	addiu	v0,v0,-4
   11270:	afc20068 	sw	v0,104(s8)
   11274:	8fc20068 	lw	v0,104(s8)
   11278:	00000000 	nop
   1127c:	2c420025 	sltiu	v0,v0,37
   11280:	10400076 	beqz	v0,1145c <_realloc_r+0xcb0>
   11284:	00000000 	nop
   11288:	8fc20084 	lw	v0,132(s8)
   1128c:	00000000 	nop
   11290:	afc20030 	sw	v0,48(s8)
   11294:	8fc2005c 	lw	v0,92(s8)
   11298:	00000000 	nop
   1129c:	afc20034 	sw	v0,52(s8)
   112a0:	8fc20068 	lw	v0,104(s8)
   112a4:	00000000 	nop
   112a8:	2c420014 	sltiu	v0,v0,20
   112ac:	1440004d 	bnez	v0,113e4 <_realloc_r+0xc38>
   112b0:	00000000 	nop
   112b4:	8fc20034 	lw	v0,52(s8)
   112b8:	00000000 	nop
   112bc:	24430004 	addiu	v1,v0,4
   112c0:	afc30034 	sw	v1,52(s8)
   112c4:	8fc30030 	lw	v1,48(s8)
   112c8:	00000000 	nop
   112cc:	24640004 	addiu	a0,v1,4
   112d0:	afc40030 	sw	a0,48(s8)
   112d4:	8c630000 	lw	v1,0(v1)
   112d8:	00000000 	nop
   112dc:	ac430000 	sw	v1,0(v0)
   112e0:	8fc20034 	lw	v0,52(s8)
   112e4:	00000000 	nop
   112e8:	24430004 	addiu	v1,v0,4
   112ec:	afc30034 	sw	v1,52(s8)
   112f0:	8fc30030 	lw	v1,48(s8)
   112f4:	00000000 	nop
   112f8:	24640004 	addiu	a0,v1,4
   112fc:	afc40030 	sw	a0,48(s8)
   11300:	8c630000 	lw	v1,0(v1)
   11304:	00000000 	nop
   11308:	ac430000 	sw	v1,0(v0)
   1130c:	8fc20068 	lw	v0,104(s8)
   11310:	00000000 	nop
   11314:	2c42001c 	sltiu	v0,v0,28
   11318:	14400032 	bnez	v0,113e4 <_realloc_r+0xc38>
   1131c:	00000000 	nop
   11320:	8fc20034 	lw	v0,52(s8)
   11324:	00000000 	nop
   11328:	24430004 	addiu	v1,v0,4
   1132c:	afc30034 	sw	v1,52(s8)
   11330:	8fc30030 	lw	v1,48(s8)
   11334:	00000000 	nop
   11338:	24640004 	addiu	a0,v1,4
   1133c:	afc40030 	sw	a0,48(s8)
   11340:	8c630000 	lw	v1,0(v1)
   11344:	00000000 	nop
   11348:	ac430000 	sw	v1,0(v0)
   1134c:	8fc20034 	lw	v0,52(s8)
   11350:	00000000 	nop
   11354:	24430004 	addiu	v1,v0,4
   11358:	afc30034 	sw	v1,52(s8)
   1135c:	8fc30030 	lw	v1,48(s8)
   11360:	00000000 	nop
   11364:	24640004 	addiu	a0,v1,4
   11368:	afc40030 	sw	a0,48(s8)
   1136c:	8c630000 	lw	v1,0(v1)
   11370:	00000000 	nop
   11374:	ac430000 	sw	v1,0(v0)
   11378:	8fc20068 	lw	v0,104(s8)
   1137c:	00000000 	nop
   11380:	2c420024 	sltiu	v0,v0,36
   11384:	14400017 	bnez	v0,113e4 <_realloc_r+0xc38>
   11388:	00000000 	nop
   1138c:	8fc20034 	lw	v0,52(s8)
   11390:	00000000 	nop
   11394:	24430004 	addiu	v1,v0,4
   11398:	afc30034 	sw	v1,52(s8)
   1139c:	8fc30030 	lw	v1,48(s8)
   113a0:	00000000 	nop
   113a4:	24640004 	addiu	a0,v1,4
   113a8:	afc40030 	sw	a0,48(s8)
   113ac:	8c630000 	lw	v1,0(v1)
   113b0:	00000000 	nop
   113b4:	ac430000 	sw	v1,0(v0)
   113b8:	8fc20034 	lw	v0,52(s8)
   113bc:	00000000 	nop
   113c0:	24430004 	addiu	v1,v0,4
   113c4:	afc30034 	sw	v1,52(s8)
   113c8:	8fc30030 	lw	v1,48(s8)
   113cc:	00000000 	nop
   113d0:	24640004 	addiu	a0,v1,4
   113d4:	afc40030 	sw	a0,48(s8)
   113d8:	8c630000 	lw	v1,0(v1)
   113dc:	00000000 	nop
   113e0:	ac430000 	sw	v1,0(v0)
   113e4:	8fc20034 	lw	v0,52(s8)
   113e8:	00000000 	nop
   113ec:	24430004 	addiu	v1,v0,4
   113f0:	afc30034 	sw	v1,52(s8)
   113f4:	8fc30030 	lw	v1,48(s8)
   113f8:	00000000 	nop
   113fc:	24640004 	addiu	a0,v1,4
   11400:	afc40030 	sw	a0,48(s8)
   11404:	8c630000 	lw	v1,0(v1)
   11408:	00000000 	nop
   1140c:	ac430000 	sw	v1,0(v0)
   11410:	8fc20034 	lw	v0,52(s8)
   11414:	00000000 	nop
   11418:	24430004 	addiu	v1,v0,4
   1141c:	afc30034 	sw	v1,52(s8)
   11420:	8fc30030 	lw	v1,48(s8)
   11424:	00000000 	nop
   11428:	24640004 	addiu	a0,v1,4
   1142c:	afc40030 	sw	a0,48(s8)
   11430:	8c630000 	lw	v1,0(v1)
   11434:	00000000 	nop
   11438:	ac430000 	sw	v1,0(v0)
   1143c:	8fc20030 	lw	v0,48(s8)
   11440:	00000000 	nop
   11444:	8c430000 	lw	v1,0(v0)
   11448:	8fc20034 	lw	v0,52(s8)
   1144c:	00000000 	nop
   11450:	ac430000 	sw	v1,0(v0)
   11454:	080045d8 	j	11760 <_realloc_r+0xfb4>
   11458:	00000000 	nop
   1145c:	8fc4005c 	lw	a0,92(s8)
   11460:	8fc50084 	lw	a1,132(s8)
   11464:	8fc60068 	lw	a2,104(s8)
   11468:	0c00410c 	jal	10430 <memmove>
   1146c:	00000000 	nop
   11470:	080045d8 	j	11760 <_realloc_r+0xfb4>
   11474:	00000000 	nop
   11478:	8fc40080 	lw	a0,128(s8)
   1147c:	8fc50088 	lw	a1,136(s8)
   11480:	0c002291 	jal	8a44 <_malloc_r>
   11484:	00000000 	nop
   11488:	afc2005c 	sw	v0,92(s8)
   1148c:	8fc2005c 	lw	v0,92(s8)
   11490:	00000000 	nop
   11494:	14400007 	bnez	v0,114b4 <_realloc_r+0xd08>
   11498:	00000000 	nop
   1149c:	8fc40080 	lw	a0,128(s8)
   114a0:	0c0028b5 	jal	a2d4 <__malloc_unlock>
   114a4:	00000000 	nop
   114a8:	00001021 	move	v0,zero
   114ac:	0800462a 	j	118a8 <_realloc_r+0x10fc>
   114b0:	00000000 	nop
   114b4:	8fc2005c 	lw	v0,92(s8)
   114b8:	00000000 	nop
   114bc:	2442fff8 	addiu	v0,v0,-8
   114c0:	afc20010 	sw	v0,16(s8)
   114c4:	8fc20040 	lw	v0,64(s8)
   114c8:	00000000 	nop
   114cc:	8c430004 	lw	v1,4(v0)
   114d0:	2402fffe 	li	v0,-2
   114d4:	00621024 	and	v0,v1,v0
   114d8:	8fc30040 	lw	v1,64(s8)
   114dc:	00000000 	nop
   114e0:	00621021 	addu	v0,v1,v0
   114e4:	8fc30010 	lw	v1,16(s8)
   114e8:	00000000 	nop
   114ec:	1462000f 	bne	v1,v0,1152c <_realloc_r+0xd80>
   114f0:	00000000 	nop
   114f4:	8fc20010 	lw	v0,16(s8)
   114f8:	00000000 	nop
   114fc:	8c430004 	lw	v1,4(v0)
   11500:	2402fffc 	li	v0,-4
   11504:	00621024 	and	v0,v1,v0
   11508:	8fc30014 	lw	v1,20(s8)
   1150c:	00000000 	nop
   11510:	00621021 	addu	v0,v1,v0
   11514:	afc20014 	sw	v0,20(s8)
   11518:	8fc20040 	lw	v0,64(s8)
   1151c:	00000000 	nop
   11520:	afc20010 	sw	v0,16(s8)
   11524:	080045d8 	j	11760 <_realloc_r+0xfb4>
   11528:	00000000 	nop
   1152c:	8fc20044 	lw	v0,68(s8)
   11530:	00000000 	nop
   11534:	2442fffc 	addiu	v0,v0,-4
   11538:	afc2006c 	sw	v0,108(s8)
   1153c:	8fc2006c 	lw	v0,108(s8)
   11540:	00000000 	nop
   11544:	2c420025 	sltiu	v0,v0,37
   11548:	10400076 	beqz	v0,11724 <_realloc_r+0xf78>
   1154c:	00000000 	nop
   11550:	8fc20084 	lw	v0,132(s8)
   11554:	00000000 	nop
   11558:	afc20038 	sw	v0,56(s8)
   1155c:	8fc2005c 	lw	v0,92(s8)
   11560:	00000000 	nop
   11564:	afc2003c 	sw	v0,60(s8)
   11568:	8fc2006c 	lw	v0,108(s8)
   1156c:	00000000 	nop
   11570:	2c420014 	sltiu	v0,v0,20
   11574:	1440004d 	bnez	v0,116ac <_realloc_r+0xf00>
   11578:	00000000 	nop
   1157c:	8fc2003c 	lw	v0,60(s8)
   11580:	00000000 	nop
   11584:	24430004 	addiu	v1,v0,4
   11588:	afc3003c 	sw	v1,60(s8)
   1158c:	8fc30038 	lw	v1,56(s8)
   11590:	00000000 	nop
   11594:	24640004 	addiu	a0,v1,4
   11598:	afc40038 	sw	a0,56(s8)
   1159c:	8c630000 	lw	v1,0(v1)
   115a0:	00000000 	nop
   115a4:	ac430000 	sw	v1,0(v0)
   115a8:	8fc2003c 	lw	v0,60(s8)
   115ac:	00000000 	nop
   115b0:	24430004 	addiu	v1,v0,4
   115b4:	afc3003c 	sw	v1,60(s8)
   115b8:	8fc30038 	lw	v1,56(s8)
   115bc:	00000000 	nop
   115c0:	24640004 	addiu	a0,v1,4
   115c4:	afc40038 	sw	a0,56(s8)
   115c8:	8c630000 	lw	v1,0(v1)
   115cc:	00000000 	nop
   115d0:	ac430000 	sw	v1,0(v0)
   115d4:	8fc2006c 	lw	v0,108(s8)
   115d8:	00000000 	nop
   115dc:	2c42001c 	sltiu	v0,v0,28
   115e0:	14400032 	bnez	v0,116ac <_realloc_r+0xf00>
   115e4:	00000000 	nop
   115e8:	8fc2003c 	lw	v0,60(s8)
   115ec:	00000000 	nop
   115f0:	24430004 	addiu	v1,v0,4
   115f4:	afc3003c 	sw	v1,60(s8)
   115f8:	8fc30038 	lw	v1,56(s8)
   115fc:	00000000 	nop
   11600:	24640004 	addiu	a0,v1,4
   11604:	afc40038 	sw	a0,56(s8)
   11608:	8c630000 	lw	v1,0(v1)
   1160c:	00000000 	nop
   11610:	ac430000 	sw	v1,0(v0)
   11614:	8fc2003c 	lw	v0,60(s8)
   11618:	00000000 	nop
   1161c:	24430004 	addiu	v1,v0,4
   11620:	afc3003c 	sw	v1,60(s8)
   11624:	8fc30038 	lw	v1,56(s8)
   11628:	00000000 	nop
   1162c:	24640004 	addiu	a0,v1,4
   11630:	afc40038 	sw	a0,56(s8)
   11634:	8c630000 	lw	v1,0(v1)
   11638:	00000000 	nop
   1163c:	ac430000 	sw	v1,0(v0)
   11640:	8fc2006c 	lw	v0,108(s8)
   11644:	00000000 	nop
   11648:	2c420024 	sltiu	v0,v0,36
   1164c:	14400017 	bnez	v0,116ac <_realloc_r+0xf00>
   11650:	00000000 	nop
   11654:	8fc2003c 	lw	v0,60(s8)
   11658:	00000000 	nop
   1165c:	24430004 	addiu	v1,v0,4
   11660:	afc3003c 	sw	v1,60(s8)
   11664:	8fc30038 	lw	v1,56(s8)
   11668:	00000000 	nop
   1166c:	24640004 	addiu	a0,v1,4
   11670:	afc40038 	sw	a0,56(s8)
   11674:	8c630000 	lw	v1,0(v1)
   11678:	00000000 	nop
   1167c:	ac430000 	sw	v1,0(v0)
   11680:	8fc2003c 	lw	v0,60(s8)
   11684:	00000000 	nop
   11688:	24430004 	addiu	v1,v0,4
   1168c:	afc3003c 	sw	v1,60(s8)
   11690:	8fc30038 	lw	v1,56(s8)
   11694:	00000000 	nop
   11698:	24640004 	addiu	a0,v1,4
   1169c:	afc40038 	sw	a0,56(s8)
   116a0:	8c630000 	lw	v1,0(v1)
   116a4:	00000000 	nop
   116a8:	ac430000 	sw	v1,0(v0)
   116ac:	8fc2003c 	lw	v0,60(s8)
   116b0:	00000000 	nop
   116b4:	24430004 	addiu	v1,v0,4
   116b8:	afc3003c 	sw	v1,60(s8)
   116bc:	8fc30038 	lw	v1,56(s8)
   116c0:	00000000 	nop
   116c4:	24640004 	addiu	a0,v1,4
   116c8:	afc40038 	sw	a0,56(s8)
   116cc:	8c630000 	lw	v1,0(v1)
   116d0:	00000000 	nop
   116d4:	ac430000 	sw	v1,0(v0)
   116d8:	8fc2003c 	lw	v0,60(s8)
   116dc:	00000000 	nop
   116e0:	24430004 	addiu	v1,v0,4
   116e4:	afc3003c 	sw	v1,60(s8)
   116e8:	8fc30038 	lw	v1,56(s8)
   116ec:	00000000 	nop
   116f0:	24640004 	addiu	a0,v1,4
   116f4:	afc40038 	sw	a0,56(s8)
   116f8:	8c630000 	lw	v1,0(v1)
   116fc:	00000000 	nop
   11700:	ac430000 	sw	v1,0(v0)
   11704:	8fc20038 	lw	v0,56(s8)
   11708:	00000000 	nop
   1170c:	8c430000 	lw	v1,0(v0)
   11710:	8fc2003c 	lw	v0,60(s8)
   11714:	00000000 	nop
   11718:	ac430000 	sw	v1,0(v0)
   1171c:	080045ce 	j	11738 <_realloc_r+0xf8c>
   11720:	00000000 	nop
   11724:	8fc4005c 	lw	a0,92(s8)
   11728:	8fc50084 	lw	a1,132(s8)
   1172c:	8fc6006c 	lw	a2,108(s8)
   11730:	0c00410c 	jal	10430 <memmove>
   11734:	00000000 	nop
   11738:	8fc40080 	lw	a0,128(s8)
   1173c:	8fc50084 	lw	a1,132(s8)
   11740:	0c001d5a 	jal	7568 <_free_r>
   11744:	00000000 	nop
   11748:	8fc40080 	lw	a0,128(s8)
   1174c:	0c0028b5 	jal	a2d4 <__malloc_unlock>
   11750:	00000000 	nop
   11754:	8fc2005c 	lw	v0,92(s8)
   11758:	0800462a 	j	118a8 <_realloc_r+0x10fc>
   1175c:	00000000 	nop
   11760:	8fc30014 	lw	v1,20(s8)
   11764:	8fc20048 	lw	v0,72(s8)
   11768:	00000000 	nop
   1176c:	00621023 	subu	v0,v1,v0
   11770:	afc20070 	sw	v0,112(s8)
   11774:	8fc20070 	lw	v0,112(s8)
   11778:	00000000 	nop
   1177c:	2c420010 	sltiu	v0,v0,16
   11780:	1440002c 	bnez	v0,11834 <_realloc_r+0x1088>
   11784:	00000000 	nop
   11788:	8fc30010 	lw	v1,16(s8)
   1178c:	8fc20048 	lw	v0,72(s8)
   11790:	00000000 	nop
   11794:	00621021 	addu	v0,v1,v0
   11798:	afc20074 	sw	v0,116(s8)
   1179c:	8fc20010 	lw	v0,16(s8)
   117a0:	00000000 	nop
   117a4:	8c420004 	lw	v0,4(v0)
   117a8:	00000000 	nop
   117ac:	30430001 	andi	v1,v0,0x1
   117b0:	8fc20048 	lw	v0,72(s8)
   117b4:	00000000 	nop
   117b8:	00621825 	or	v1,v1,v0
   117bc:	8fc20010 	lw	v0,16(s8)
   117c0:	00000000 	nop
   117c4:	ac430004 	sw	v1,4(v0)
   117c8:	8fc20070 	lw	v0,112(s8)
   117cc:	00000000 	nop
   117d0:	34430001 	ori	v1,v0,0x1
   117d4:	8fc20074 	lw	v0,116(s8)
   117d8:	00000000 	nop
   117dc:	ac430004 	sw	v1,4(v0)
   117e0:	8fc30074 	lw	v1,116(s8)
   117e4:	8fc20070 	lw	v0,112(s8)
   117e8:	00000000 	nop
   117ec:	00621021 	addu	v0,v1,v0
   117f0:	8fc40074 	lw	a0,116(s8)
   117f4:	8fc30070 	lw	v1,112(s8)
   117f8:	00000000 	nop
   117fc:	00831821 	addu	v1,a0,v1
   11800:	8c630004 	lw	v1,4(v1)
   11804:	00000000 	nop
   11808:	34630001 	ori	v1,v1,0x1
   1180c:	ac430004 	sw	v1,4(v0)
   11810:	8fc20074 	lw	v0,116(s8)
   11814:	00000000 	nop
   11818:	24420008 	addiu	v0,v0,8
   1181c:	8fc40080 	lw	a0,128(s8)
   11820:	00402821 	move	a1,v0
   11824:	0c001d5a 	jal	7568 <_free_r>
   11828:	00000000 	nop
   1182c:	08004624 	j	11890 <_realloc_r+0x10e4>
   11830:	00000000 	nop
   11834:	8fc20010 	lw	v0,16(s8)
   11838:	00000000 	nop
   1183c:	8c420004 	lw	v0,4(v0)
   11840:	00000000 	nop
   11844:	30430001 	andi	v1,v0,0x1
   11848:	8fc20014 	lw	v0,20(s8)
   1184c:	00000000 	nop
   11850:	00621825 	or	v1,v1,v0
   11854:	8fc20010 	lw	v0,16(s8)
   11858:	00000000 	nop
   1185c:	ac430004 	sw	v1,4(v0)
   11860:	8fc30010 	lw	v1,16(s8)
   11864:	8fc20014 	lw	v0,20(s8)
   11868:	00000000 	nop
   1186c:	00621021 	addu	v0,v1,v0
   11870:	8fc40010 	lw	a0,16(s8)
   11874:	8fc30014 	lw	v1,20(s8)
   11878:	00000000 	nop
   1187c:	00831821 	addu	v1,a0,v1
   11880:	8c630004 	lw	v1,4(v1)
   11884:	00000000 	nop
   11888:	34630001 	ori	v1,v1,0x1
   1188c:	ac430004 	sw	v1,4(v0)
   11890:	8fc40080 	lw	a0,128(s8)
   11894:	0c0028b5 	jal	a2d4 <__malloc_unlock>
   11898:	00000000 	nop
   1189c:	8fc20010 	lw	v0,16(s8)
   118a0:	00000000 	nop
   118a4:	24420008 	addiu	v0,v0,8
   118a8:	03c0e821 	move	sp,s8
   118ac:	8fbf007c 	lw	ra,124(sp)
   118b0:	8fbe0078 	lw	s8,120(sp)
   118b4:	27bd0080 	addiu	sp,sp,128
   118b8:	03e00008 	jr	ra
   118bc:	00000000 	nop

000118c0 <cleanup_glue>:
   118c0:	27bdffe8 	addiu	sp,sp,-24
   118c4:	afbf0014 	sw	ra,20(sp)
   118c8:	afbe0010 	sw	s8,16(sp)
   118cc:	03a0f021 	move	s8,sp
   118d0:	afc40018 	sw	a0,24(s8)
   118d4:	afc5001c 	sw	a1,28(s8)
   118d8:	8fc2001c 	lw	v0,28(s8)
   118dc:	00000000 	nop
   118e0:	8c420000 	lw	v0,0(v0)
   118e4:	00000000 	nop
   118e8:	10400008 	beqz	v0,1190c <cleanup_glue+0x4c>
   118ec:	00000000 	nop
   118f0:	8fc2001c 	lw	v0,28(s8)
   118f4:	00000000 	nop
   118f8:	8c420000 	lw	v0,0(v0)
   118fc:	8fc40018 	lw	a0,24(s8)
   11900:	00402821 	move	a1,v0
   11904:	0c004630 	jal	118c0 <cleanup_glue>
   11908:	00000000 	nop
   1190c:	8fc40018 	lw	a0,24(s8)
   11910:	8fc5001c 	lw	a1,28(s8)
   11914:	0c001d5a 	jal	7568 <_free_r>
   11918:	00000000 	nop
   1191c:	03c0e821 	move	sp,s8
   11920:	8fbf0014 	lw	ra,20(sp)
   11924:	8fbe0010 	lw	s8,16(sp)
   11928:	27bd0018 	addiu	sp,sp,24
   1192c:	03e00008 	jr	ra
   11930:	00000000 	nop

00011934 <_reclaim_reent>:
   11934:	27bdffd0 	addiu	sp,sp,-48
   11938:	afbf002c 	sw	ra,44(sp)
   1193c:	afbe0028 	sw	s8,40(sp)
   11940:	03a0f021 	move	s8,sp
   11944:	afc40030 	sw	a0,48(s8)
   11948:	8f828068 	lw	v0,-32664(gp)
   1194c:	8fc30030 	lw	v1,48(s8)
   11950:	00000000 	nop
   11954:	10620091 	beq	v1,v0,11b9c <_reclaim_reent+0x268>
   11958:	00000000 	nop
   1195c:	8fc20030 	lw	v0,48(s8)
   11960:	00000000 	nop
   11964:	8c42004c 	lw	v0,76(v0)
   11968:	00000000 	nop
   1196c:	10400030 	beqz	v0,11a30 <_reclaim_reent+0xfc>
   11970:	00000000 	nop
   11974:	afc00010 	sw	zero,16(s8)
   11978:	08004680 	j	11a00 <_reclaim_reent+0xcc>
   1197c:	00000000 	nop
   11980:	8fc20030 	lw	v0,48(s8)
   11984:	00000000 	nop
   11988:	8c43004c 	lw	v1,76(v0)
   1198c:	8fc20010 	lw	v0,16(s8)
   11990:	00000000 	nop
   11994:	00021080 	sll	v0,v0,0x2
   11998:	00621021 	addu	v0,v1,v0
   1199c:	8c420000 	lw	v0,0(v0)
   119a0:	00000000 	nop
   119a4:	afc20014 	sw	v0,20(s8)
   119a8:	08004678 	j	119e0 <_reclaim_reent+0xac>
   119ac:	00000000 	nop
   119b0:	8fc20014 	lw	v0,20(s8)
   119b4:	00000000 	nop
   119b8:	afc2001c 	sw	v0,28(s8)
   119bc:	8fc20014 	lw	v0,20(s8)
   119c0:	00000000 	nop
   119c4:	8c420000 	lw	v0,0(v0)
   119c8:	00000000 	nop
   119cc:	afc20014 	sw	v0,20(s8)
   119d0:	8fc40030 	lw	a0,48(s8)
   119d4:	8fc5001c 	lw	a1,28(s8)
   119d8:	0c001d5a 	jal	7568 <_free_r>
   119dc:	00000000 	nop
   119e0:	8fc20014 	lw	v0,20(s8)
   119e4:	00000000 	nop
   119e8:	1440fff1 	bnez	v0,119b0 <_reclaim_reent+0x7c>
   119ec:	00000000 	nop
   119f0:	8fc20010 	lw	v0,16(s8)
   119f4:	00000000 	nop
   119f8:	24420001 	addiu	v0,v0,1
   119fc:	afc20010 	sw	v0,16(s8)
   11a00:	8fc20010 	lw	v0,16(s8)
   11a04:	00000000 	nop
   11a08:	2c420020 	sltiu	v0,v0,32
   11a0c:	1440ffdc 	bnez	v0,11980 <_reclaim_reent+0x4c>
   11a10:	00000000 	nop
   11a14:	8fc20030 	lw	v0,48(s8)
   11a18:	00000000 	nop
   11a1c:	8c42004c 	lw	v0,76(v0)
   11a20:	8fc40030 	lw	a0,48(s8)
   11a24:	00402821 	move	a1,v0
   11a28:	0c001d5a 	jal	7568 <_free_r>
   11a2c:	00000000 	nop
   11a30:	8fc20030 	lw	v0,48(s8)
   11a34:	00000000 	nop
   11a38:	8c420040 	lw	v0,64(v0)
   11a3c:	00000000 	nop
   11a40:	10400008 	beqz	v0,11a64 <_reclaim_reent+0x130>
   11a44:	00000000 	nop
   11a48:	8fc20030 	lw	v0,48(s8)
   11a4c:	00000000 	nop
   11a50:	8c420040 	lw	v0,64(v0)
   11a54:	8fc40030 	lw	a0,48(s8)
   11a58:	00402821 	move	a1,v0
   11a5c:	0c001d5a 	jal	7568 <_free_r>
   11a60:	00000000 	nop
   11a64:	8fc20030 	lw	v0,48(s8)
   11a68:	00000000 	nop
   11a6c:	8c420148 	lw	v0,328(v0)
   11a70:	00000000 	nop
   11a74:	10400023 	beqz	v0,11b04 <_reclaim_reent+0x1d0>
   11a78:	00000000 	nop
   11a7c:	8fc20030 	lw	v0,48(s8)
   11a80:	00000000 	nop
   11a84:	8c430148 	lw	v1,328(v0)
   11a88:	8fc20030 	lw	v0,48(s8)
   11a8c:	00000000 	nop
   11a90:	2442014c 	addiu	v0,v0,332
   11a94:	1062001b 	beq	v1,v0,11b04 <_reclaim_reent+0x1d0>
   11a98:	00000000 	nop
   11a9c:	8fc20030 	lw	v0,48(s8)
   11aa0:	00000000 	nop
   11aa4:	8c420148 	lw	v0,328(v0)
   11aa8:	00000000 	nop
   11aac:	afc20018 	sw	v0,24(s8)
   11ab0:	080046ba 	j	11ae8 <_reclaim_reent+0x1b4>
   11ab4:	00000000 	nop
   11ab8:	8fc20018 	lw	v0,24(s8)
   11abc:	00000000 	nop
   11ac0:	afc20020 	sw	v0,32(s8)
   11ac4:	8fc20018 	lw	v0,24(s8)
   11ac8:	00000000 	nop
   11acc:	8c420000 	lw	v0,0(v0)
   11ad0:	00000000 	nop
   11ad4:	afc20018 	sw	v0,24(s8)
   11ad8:	8fc40030 	lw	a0,48(s8)
   11adc:	8fc50020 	lw	a1,32(s8)
   11ae0:	0c001d5a 	jal	7568 <_free_r>
   11ae4:	00000000 	nop
   11ae8:	8fc20030 	lw	v0,48(s8)
   11aec:	00000000 	nop
   11af0:	2443014c 	addiu	v1,v0,332
   11af4:	8fc20018 	lw	v0,24(s8)
   11af8:	00000000 	nop
   11afc:	1462ffee 	bne	v1,v0,11ab8 <_reclaim_reent+0x184>
   11b00:	00000000 	nop
   11b04:	8fc20030 	lw	v0,48(s8)
   11b08:	00000000 	nop
   11b0c:	8c420054 	lw	v0,84(v0)
   11b10:	00000000 	nop
   11b14:	10400008 	beqz	v0,11b38 <_reclaim_reent+0x204>
   11b18:	00000000 	nop
   11b1c:	8fc20030 	lw	v0,48(s8)
   11b20:	00000000 	nop
   11b24:	8c420054 	lw	v0,84(v0)
   11b28:	8fc40030 	lw	a0,48(s8)
   11b2c:	00402821 	move	a1,v0
   11b30:	0c001d5a 	jal	7568 <_free_r>
   11b34:	00000000 	nop
   11b38:	8fc20030 	lw	v0,48(s8)
   11b3c:	00000000 	nop
   11b40:	8c420038 	lw	v0,56(v0)
   11b44:	00000000 	nop
   11b48:	10400014 	beqz	v0,11b9c <_reclaim_reent+0x268>
   11b4c:	00000000 	nop
   11b50:	8fc20030 	lw	v0,48(s8)
   11b54:	00000000 	nop
   11b58:	8c42003c 	lw	v0,60(v0)
   11b5c:	8fc40030 	lw	a0,48(s8)
   11b60:	0040f809 	jalr	v0
   11b64:	00000000 	nop
   11b68:	8fc20030 	lw	v0,48(s8)
   11b6c:	00000000 	nop
   11b70:	8c4202e0 	lw	v0,736(v0)
   11b74:	00000000 	nop
   11b78:	10400008 	beqz	v0,11b9c <_reclaim_reent+0x268>
   11b7c:	00000000 	nop
   11b80:	8fc20030 	lw	v0,48(s8)
   11b84:	00000000 	nop
   11b88:	8c4202e0 	lw	v0,736(v0)
   11b8c:	8fc40030 	lw	a0,48(s8)
   11b90:	00402821 	move	a1,v0
   11b94:	0c004630 	jal	118c0 <cleanup_glue>
   11b98:	00000000 	nop
   11b9c:	03c0e821 	move	sp,s8
   11ba0:	8fbf002c 	lw	ra,44(sp)
   11ba4:	8fbe0028 	lw	s8,40(sp)
   11ba8:	27bd0030 	addiu	sp,sp,48
   11bac:	03e00008 	jr	ra
   11bb0:	00000000 	nop

00011bb4 <_wrapup_reent>:
   11bb4:	27bdffe0 	addiu	sp,sp,-32
   11bb8:	afbf001c 	sw	ra,28(sp)
   11bbc:	afbe0018 	sw	s8,24(sp)
   11bc0:	afb10014 	sw	s1,20(sp)
   11bc4:	afb00010 	sw	s0,16(sp)
   11bc8:	03a0f021 	move	s8,sp
   11bcc:	afc40020 	sw	a0,32(s8)
   11bd0:	8fc20020 	lw	v0,32(s8)
   11bd4:	00000000 	nop
   11bd8:	14400004 	bnez	v0,11bec <_wrapup_reent+0x38>
   11bdc:	00000000 	nop
   11be0:	8f828068 	lw	v0,-32664(gp)
   11be4:	00000000 	nop
   11be8:	afc20020 	sw	v0,32(s8)
   11bec:	8fc20020 	lw	v0,32(s8)
   11bf0:	00000000 	nop
   11bf4:	8c500148 	lw	s0,328(v0)
   11bf8:	0800470f 	j	11c3c <_wrapup_reent+0x88>
   11bfc:	00000000 	nop
   11c00:	8e110004 	lw	s1,4(s0)
   11c04:	0800470a 	j	11c28 <_wrapup_reent+0x74>
   11c08:	00000000 	nop
   11c0c:	26220002 	addiu	v0,s1,2
   11c10:	00021080 	sll	v0,v0,0x2
   11c14:	02021021 	addu	v0,s0,v0
   11c18:	8c420000 	lw	v0,0(v0)
   11c1c:	00000000 	nop
   11c20:	0040f809 	jalr	v0
   11c24:	00000000 	nop
   11c28:	2631ffff 	addiu	s1,s1,-1
   11c2c:	0621fff7 	bgez	s1,11c0c <_wrapup_reent+0x58>
   11c30:	00000000 	nop
   11c34:	8e100000 	lw	s0,0(s0)
   11c38:	00000000 	nop
   11c3c:	1600fff0 	bnez	s0,11c00 <_wrapup_reent+0x4c>
   11c40:	00000000 	nop
   11c44:	8fc20020 	lw	v0,32(s8)
   11c48:	00000000 	nop
   11c4c:	8c42003c 	lw	v0,60(v0)
   11c50:	00000000 	nop
   11c54:	10400007 	beqz	v0,11c74 <_wrapup_reent+0xc0>
   11c58:	00000000 	nop
   11c5c:	8fc20020 	lw	v0,32(s8)
   11c60:	00000000 	nop
   11c64:	8c42003c 	lw	v0,60(v0)
   11c68:	8fc40020 	lw	a0,32(s8)
   11c6c:	0040f809 	jalr	v0
   11c70:	00000000 	nop
   11c74:	03c0e821 	move	sp,s8
   11c78:	8fbf001c 	lw	ra,28(sp)
   11c7c:	8fbe0018 	lw	s8,24(sp)
   11c80:	8fb10014 	lw	s1,20(sp)
   11c84:	8fb00010 	lw	s0,16(sp)
   11c88:	27bd0020 	addiu	sp,sp,32
   11c8c:	03e00008 	jr	ra
   11c90:	00000000 	nop

00011c94 <__swbuf_r>:
   11c94:	27bdffd8 	addiu	sp,sp,-40
   11c98:	afbf0024 	sw	ra,36(sp)
   11c9c:	afbe0020 	sw	s8,32(sp)
   11ca0:	afb2001c 	sw	s2,28(sp)
   11ca4:	afb10018 	sw	s1,24(sp)
   11ca8:	afb00014 	sw	s0,20(sp)
   11cac:	03a0f021 	move	s8,sp
   11cb0:	afc40028 	sw	a0,40(s8)
   11cb4:	00a08821 	move	s1,a1
   11cb8:	00c08021 	move	s0,a2
   11cbc:	8fc20028 	lw	v0,40(s8)
   11cc0:	00000000 	nop
   11cc4:	1040000a 	beqz	v0,11cf0 <__swbuf_r+0x5c>
   11cc8:	00000000 	nop
   11ccc:	8fc20028 	lw	v0,40(s8)
   11cd0:	00000000 	nop
   11cd4:	8c420038 	lw	v0,56(v0)
   11cd8:	00000000 	nop
   11cdc:	14400004 	bnez	v0,11cf0 <__swbuf_r+0x5c>
   11ce0:	00000000 	nop
   11ce4:	8fc40028 	lw	a0,40(s8)
   11ce8:	0c001cb6 	jal	72d8 <__sinit>
   11cec:	00000000 	nop
   11cf0:	8e020018 	lw	v0,24(s0)
   11cf4:	00000000 	nop
   11cf8:	ae020008 	sw	v0,8(s0)
   11cfc:	8602000c 	lh	v0,12(s0)
   11d00:	00000000 	nop
   11d04:	3042ffff 	andi	v0,v0,0xffff
   11d08:	30420008 	andi	v0,v0,0x8
   11d0c:	10400005 	beqz	v0,11d24 <__swbuf_r+0x90>
   11d10:	00000000 	nop
   11d14:	8e020010 	lw	v0,16(s0)
   11d18:	00000000 	nop
   11d1c:	1440000a 	bnez	v0,11d48 <__swbuf_r+0xb4>
   11d20:	00000000 	nop
   11d24:	8fc40028 	lw	a0,40(s8)
   11d28:	02002821 	move	a1,s0
   11d2c:	0c000fbf 	jal	3efc <__swsetup_r>
   11d30:	00000000 	nop
   11d34:	10400004 	beqz	v0,11d48 <__swbuf_r+0xb4>
   11d38:	00000000 	nop
   11d3c:	2402ffff 	li	v0,-1
   11d40:	0800479b 	j	11e6c <__swbuf_r+0x1d8>
   11d44:	00000000 	nop
   11d48:	322200ff 	andi	v0,s1,0xff
   11d4c:	00408821 	move	s1,v0
   11d50:	8602000c 	lh	v0,12(s0)
   11d54:	00000000 	nop
   11d58:	3042ffff 	andi	v0,v0,0xffff
   11d5c:	30422000 	andi	v0,v0,0x2000
   11d60:	1440000b 	bnez	v0,11d90 <__swbuf_r+0xfc>
   11d64:	00000000 	nop
   11d68:	8602000c 	lh	v0,12(s0)
   11d6c:	00000000 	nop
   11d70:	34422000 	ori	v0,v0,0x2000
   11d74:	00021400 	sll	v0,v0,0x10
   11d78:	00021403 	sra	v0,v0,0x10
   11d7c:	a602000c 	sh	v0,12(s0)
   11d80:	8e030064 	lw	v1,100(s0)
   11d84:	2402dfff 	li	v0,-8193
   11d88:	00621024 	and	v0,v1,v0
   11d8c:	ae020064 	sw	v0,100(s0)
   11d90:	8e020000 	lw	v0,0(s0)
   11d94:	00000000 	nop
   11d98:	00401821 	move	v1,v0
   11d9c:	8e020010 	lw	v0,16(s0)
   11da0:	00000000 	nop
   11da4:	00629023 	subu	s2,v1,v0
   11da8:	8e020014 	lw	v0,20(s0)
   11dac:	00000000 	nop
   11db0:	0242102a 	slt	v0,s2,v0
   11db4:	1440000b 	bnez	v0,11de4 <__swbuf_r+0x150>
   11db8:	00000000 	nop
   11dbc:	8fc40028 	lw	a0,40(s8)
   11dc0:	02002821 	move	a1,s0
   11dc4:	0c001b34 	jal	6cd0 <_fflush_r>
   11dc8:	00000000 	nop
   11dcc:	10400004 	beqz	v0,11de0 <__swbuf_r+0x14c>
   11dd0:	00000000 	nop
   11dd4:	2402ffff 	li	v0,-1
   11dd8:	0800479b 	j	11e6c <__swbuf_r+0x1d8>
   11ddc:	00000000 	nop
   11de0:	00009021 	move	s2,zero
   11de4:	8e020008 	lw	v0,8(s0)
   11de8:	00000000 	nop
   11dec:	2442ffff 	addiu	v0,v0,-1
   11df0:	ae020008 	sw	v0,8(s0)
   11df4:	8e020000 	lw	v0,0(s0)
   11df8:	00000000 	nop
   11dfc:	24430001 	addiu	v1,v0,1
   11e00:	ae030000 	sw	v1,0(s0)
   11e04:	322300ff 	andi	v1,s1,0xff
   11e08:	a0430000 	sb	v1,0(v0)
   11e0c:	26520001 	addiu	s2,s2,1
   11e10:	8e020014 	lw	v0,20(s0)
   11e14:	00000000 	nop
   11e18:	1242000a 	beq	s2,v0,11e44 <__swbuf_r+0x1b0>
   11e1c:	00000000 	nop
   11e20:	8602000c 	lh	v0,12(s0)
   11e24:	00000000 	nop
   11e28:	3042ffff 	andi	v0,v0,0xffff
   11e2c:	30420001 	andi	v0,v0,0x1
   11e30:	1040000d 	beqz	v0,11e68 <__swbuf_r+0x1d4>
   11e34:	00000000 	nop
   11e38:	2402000a 	li	v0,10
   11e3c:	1622000a 	bne	s1,v0,11e68 <__swbuf_r+0x1d4>
   11e40:	00000000 	nop
   11e44:	8fc40028 	lw	a0,40(s8)
   11e48:	02002821 	move	a1,s0
   11e4c:	0c001b34 	jal	6cd0 <_fflush_r>
   11e50:	00000000 	nop
   11e54:	10400004 	beqz	v0,11e68 <__swbuf_r+0x1d4>
   11e58:	00000000 	nop
   11e5c:	2402ffff 	li	v0,-1
   11e60:	0800479b 	j	11e6c <__swbuf_r+0x1d8>
   11e64:	00000000 	nop
   11e68:	02201021 	move	v0,s1
   11e6c:	03c0e821 	move	sp,s8
   11e70:	8fbf0024 	lw	ra,36(sp)
   11e74:	8fbe0020 	lw	s8,32(sp)
   11e78:	8fb2001c 	lw	s2,28(sp)
   11e7c:	8fb10018 	lw	s1,24(sp)
   11e80:	8fb00014 	lw	s0,20(sp)
   11e84:	27bd0028 	addiu	sp,sp,40
   11e88:	03e00008 	jr	ra
   11e8c:	00000000 	nop

00011e90 <__swbuf>:
   11e90:	27bdffe8 	addiu	sp,sp,-24
   11e94:	afbf0014 	sw	ra,20(sp)
   11e98:	afbe0010 	sw	s8,16(sp)
   11e9c:	03a0f021 	move	s8,sp
   11ea0:	00801821 	move	v1,a0
   11ea4:	00a01021 	move	v0,a1
   11ea8:	8f848068 	lw	a0,-32664(gp)
   11eac:	00602821 	move	a1,v1
   11eb0:	00403021 	move	a2,v0
   11eb4:	0c004725 	jal	11c94 <__swbuf_r>
   11eb8:	00000000 	nop
   11ebc:	03c0e821 	move	sp,s8
   11ec0:	8fbf0014 	lw	ra,20(sp)
   11ec4:	8fbe0010 	lw	s8,16(sp)
   11ec8:	27bd0018 	addiu	sp,sp,24
   11ecc:	03e00008 	jr	ra
   11ed0:	00000000 	nop

00011ed4 <_wcrtomb_r>:
   11ed4:	27bdffc8 	addiu	sp,sp,-56
   11ed8:	afbf0034 	sw	ra,52(sp)
   11edc:	afbe0030 	sw	s8,48(sp)
   11ee0:	afb0002c 	sw	s0,44(sp)
   11ee4:	03a0f021 	move	s8,sp
   11ee8:	afc40038 	sw	a0,56(s8)
   11eec:	afc5003c 	sw	a1,60(s8)
   11ef0:	afc60040 	sw	a2,64(s8)
   11ef4:	afc70044 	sw	a3,68(s8)
   11ef8:	afc00018 	sw	zero,24(s8)
   11efc:	8fc2003c 	lw	v0,60(s8)
   11f00:	00000000 	nop
   11f04:	14400011 	bnez	v0,11f4c <_wcrtomb_r+0x78>
   11f08:	00000000 	nop
   11f0c:	8f9080a0 	lw	s0,-32608(gp)
   11f10:	0c002071 	jal	81c4 <__locale_charset>
   11f14:	00000000 	nop
   11f18:	27c3001c 	addiu	v1,s8,28
   11f1c:	8fc40044 	lw	a0,68(s8)
   11f20:	00000000 	nop
   11f24:	afa40010 	sw	a0,16(sp)
   11f28:	8fc40038 	lw	a0,56(s8)
   11f2c:	00602821 	move	a1,v1
   11f30:	00003021 	move	a2,zero
   11f34:	00403821 	move	a3,v0
   11f38:	0200f809 	jalr	s0
   11f3c:	00000000 	nop
   11f40:	afc20018 	sw	v0,24(s8)
   11f44:	080047e0 	j	11f80 <_wcrtomb_r+0xac>
   11f48:	00000000 	nop
   11f4c:	8f9080a0 	lw	s0,-32608(gp)
   11f50:	0c002071 	jal	81c4 <__locale_charset>
   11f54:	00000000 	nop
   11f58:	8fc30044 	lw	v1,68(s8)
   11f5c:	00000000 	nop
   11f60:	afa30010 	sw	v1,16(sp)
   11f64:	8fc40038 	lw	a0,56(s8)
   11f68:	8fc5003c 	lw	a1,60(s8)
   11f6c:	8fc60040 	lw	a2,64(s8)
   11f70:	00403821 	move	a3,v0
   11f74:	0200f809 	jalr	s0
   11f78:	00000000 	nop
   11f7c:	afc20018 	sw	v0,24(s8)
   11f80:	8fc30018 	lw	v1,24(s8)
   11f84:	2402ffff 	li	v0,-1
   11f88:	1462000a 	bne	v1,v0,11fb4 <_wcrtomb_r+0xe0>
   11f8c:	00000000 	nop
   11f90:	8fc20044 	lw	v0,68(s8)
   11f94:	00000000 	nop
   11f98:	ac400000 	sw	zero,0(v0)
   11f9c:	8fc20038 	lw	v0,56(s8)
   11fa0:	2403008a 	li	v1,138
   11fa4:	ac430000 	sw	v1,0(v0)
   11fa8:	2402ffff 	li	v0,-1
   11fac:	080047ee 	j	11fb8 <_wcrtomb_r+0xe4>
   11fb0:	00000000 	nop
   11fb4:	8fc20018 	lw	v0,24(s8)
   11fb8:	03c0e821 	move	sp,s8
   11fbc:	8fbf0034 	lw	ra,52(sp)
   11fc0:	8fbe0030 	lw	s8,48(sp)
   11fc4:	8fb0002c 	lw	s0,44(sp)
   11fc8:	27bd0038 	addiu	sp,sp,56
   11fcc:	03e00008 	jr	ra
   11fd0:	00000000 	nop

00011fd4 <wcrtomb>:
   11fd4:	27bdffc8 	addiu	sp,sp,-56
   11fd8:	afbf0034 	sw	ra,52(sp)
   11fdc:	afbe0030 	sw	s8,48(sp)
   11fe0:	afb1002c 	sw	s1,44(sp)
   11fe4:	afb00028 	sw	s0,40(sp)
   11fe8:	03a0f021 	move	s8,sp
   11fec:	afc40038 	sw	a0,56(s8)
   11ff0:	afc5003c 	sw	a1,60(s8)
   11ff4:	afc60040 	sw	a2,64(s8)
   11ff8:	afc00018 	sw	zero,24(s8)
   11ffc:	8fc20038 	lw	v0,56(s8)
   12000:	00000000 	nop
   12004:	14400012 	bnez	v0,12050 <wcrtomb+0x7c>
   12008:	00000000 	nop
   1200c:	8f9080a0 	lw	s0,-32608(gp)
   12010:	8f918068 	lw	s1,-32664(gp)
   12014:	0c002071 	jal	81c4 <__locale_charset>
   12018:	00000000 	nop
   1201c:	27c3001c 	addiu	v1,s8,28
   12020:	8fc40040 	lw	a0,64(s8)
   12024:	00000000 	nop
   12028:	afa40010 	sw	a0,16(sp)
   1202c:	02202021 	move	a0,s1
   12030:	00602821 	move	a1,v1
   12034:	00003021 	move	a2,zero
   12038:	00403821 	move	a3,v0
   1203c:	0200f809 	jalr	s0
   12040:	00000000 	nop
   12044:	afc20018 	sw	v0,24(s8)
   12048:	08004822 	j	12088 <wcrtomb+0xb4>
   1204c:	00000000 	nop
   12050:	8f9080a0 	lw	s0,-32608(gp)
   12054:	8f918068 	lw	s1,-32664(gp)
   12058:	0c002071 	jal	81c4 <__locale_charset>
   1205c:	00000000 	nop
   12060:	8fc30040 	lw	v1,64(s8)
   12064:	00000000 	nop
   12068:	afa30010 	sw	v1,16(sp)
   1206c:	02202021 	move	a0,s1
   12070:	8fc50038 	lw	a1,56(s8)
   12074:	8fc6003c 	lw	a2,60(s8)
   12078:	00403821 	move	a3,v0
   1207c:	0200f809 	jalr	s0
   12080:	00000000 	nop
   12084:	afc20018 	sw	v0,24(s8)
   12088:	8fc30018 	lw	v1,24(s8)
   1208c:	2402ffff 	li	v0,-1
   12090:	1462000a 	bne	v1,v0,120bc <wcrtomb+0xe8>
   12094:	00000000 	nop
   12098:	8fc20040 	lw	v0,64(s8)
   1209c:	00000000 	nop
   120a0:	ac400000 	sw	zero,0(v0)
   120a4:	8f828068 	lw	v0,-32664(gp)
   120a8:	2403008a 	li	v1,138
   120ac:	ac430000 	sw	v1,0(v0)
   120b0:	2402ffff 	li	v0,-1
   120b4:	08004830 	j	120c0 <wcrtomb+0xec>
   120b8:	00000000 	nop
   120bc:	8fc20018 	lw	v0,24(s8)
   120c0:	03c0e821 	move	sp,s8
   120c4:	8fbf0034 	lw	ra,52(sp)
   120c8:	8fbe0030 	lw	s8,48(sp)
   120cc:	8fb1002c 	lw	s1,44(sp)
   120d0:	8fb00028 	lw	s0,40(sp)
   120d4:	27bd0038 	addiu	sp,sp,56
   120d8:	03e00008 	jr	ra
   120dc:	00000000 	nop

000120e0 <_wctomb_r>:
   120e0:	27bdffd8 	addiu	sp,sp,-40
   120e4:	afbf0024 	sw	ra,36(sp)
   120e8:	afbe0020 	sw	s8,32(sp)
   120ec:	afb0001c 	sw	s0,28(sp)
   120f0:	03a0f021 	move	s8,sp
   120f4:	afc40028 	sw	a0,40(s8)
   120f8:	afc5002c 	sw	a1,44(s8)
   120fc:	afc60030 	sw	a2,48(s8)
   12100:	afc70034 	sw	a3,52(s8)
   12104:	8f9080a0 	lw	s0,-32608(gp)
   12108:	0c002071 	jal	81c4 <__locale_charset>
   1210c:	00000000 	nop
   12110:	8fc30034 	lw	v1,52(s8)
   12114:	00000000 	nop
   12118:	afa30010 	sw	v1,16(sp)
   1211c:	8fc40028 	lw	a0,40(s8)
   12120:	8fc5002c 	lw	a1,44(s8)
   12124:	8fc60030 	lw	a2,48(s8)
   12128:	00403821 	move	a3,v0
   1212c:	0200f809 	jalr	s0
   12130:	00000000 	nop
   12134:	03c0e821 	move	sp,s8
   12138:	8fbf0024 	lw	ra,36(sp)
   1213c:	8fbe0020 	lw	s8,32(sp)
   12140:	8fb0001c 	lw	s0,28(sp)
   12144:	27bd0028 	addiu	sp,sp,40
   12148:	03e00008 	jr	ra
   1214c:	00000000 	nop

00012150 <__ascii_wctomb>:
   12150:	27bdfff0 	addiu	sp,sp,-16
   12154:	afbe000c 	sw	s8,12(sp)
   12158:	03a0f021 	move	s8,sp
   1215c:	afc40010 	sw	a0,16(s8)
   12160:	afc50014 	sw	a1,20(s8)
   12164:	afc60018 	sw	a2,24(s8)
   12168:	afc7001c 	sw	a3,28(s8)
   1216c:	8fc20018 	lw	v0,24(s8)
   12170:	00000000 	nop
   12174:	afc20000 	sw	v0,0(s8)
   12178:	8fc20014 	lw	v0,20(s8)
   1217c:	00000000 	nop
   12180:	14400004 	bnez	v0,12194 <__ascii_wctomb+0x44>
   12184:	00000000 	nop
   12188:	00001021 	move	v0,zero
   1218c:	08004878 	j	121e0 <__ascii_wctomb+0x90>
   12190:	00000000 	nop
   12194:	8fc20000 	lw	v0,0(s8)
   12198:	00000000 	nop
   1219c:	2c420100 	sltiu	v0,v0,256
   121a0:	14400007 	bnez	v0,121c0 <__ascii_wctomb+0x70>
   121a4:	00000000 	nop
   121a8:	8fc20010 	lw	v0,16(s8)
   121ac:	2403008a 	li	v1,138
   121b0:	ac430000 	sw	v1,0(v0)
   121b4:	2402ffff 	li	v0,-1
   121b8:	08004878 	j	121e0 <__ascii_wctomb+0x90>
   121bc:	00000000 	nop
   121c0:	8fc20000 	lw	v0,0(s8)
   121c4:	00000000 	nop
   121c8:	00021e00 	sll	v1,v0,0x18
   121cc:	00031e03 	sra	v1,v1,0x18
   121d0:	8fc20014 	lw	v0,20(s8)
   121d4:	00000000 	nop
   121d8:	a0430000 	sb	v1,0(v0)
   121dc:	24020001 	li	v0,1
   121e0:	03c0e821 	move	sp,s8
   121e4:	8fbe000c 	lw	s8,12(sp)
   121e8:	27bd0010 	addiu	sp,sp,16
   121ec:	03e00008 	jr	ra
   121f0:	00000000 	nop

000121f4 <ac_forbidden>:
   121f4:	2402003c 	li	v0,60
   121f8:	00400008 	jr	v0
   121fc:	00000000 	nop

00012200 <open>:
   12200:	24020040 	li	v0,64
   12204:	00400008 	jr	v0
   12208:	00000000 	nop

0001220c <creat>:
   1220c:	24020044 	li	v0,68
   12210:	00400008 	jr	v0
   12214:	00000000 	nop

00012218 <close>:
   12218:	24020048 	li	v0,72
   1221c:	00400008 	jr	v0
   12220:	00000000 	nop

00012224 <read>:
   12224:	2402004c 	li	v0,76
   12228:	00400008 	jr	v0
   1222c:	00000000 	nop

00012230 <write>:
   12230:	24020050 	li	v0,80
   12234:	00400008 	jr	v0
   12238:	00000000 	nop

0001223c <isatty>:
   1223c:	24020054 	li	v0,84
   12240:	00400008 	jr	v0
   12244:	00000000 	nop

00012248 <sbrk>:
   12248:	24020058 	li	v0,88
   1224c:	00400008 	jr	v0
   12250:	00000000 	nop

00012254 <lseek>:
   12254:	2402005c 	li	v0,92
   12258:	00400008 	jr	v0
   1225c:	00000000 	nop

00012260 <_exit>:
   12260:	24020064 	li	v0,100
   12264:	00400008 	jr	v0
   12268:	00000000 	nop

0001226c <times>:
   1226c:	24020068 	li	v0,104
   12270:	00400008 	jr	v0
   12274:	00000000 	nop

00012278 <time>:
   12278:	2402006c 	li	v0,108
   1227c:	00400008 	jr	v0
   12280:	00000000 	nop

00012284 <random>:
   12284:	24020070 	li	v0,112
   12288:	00400008 	jr	v0
   1228c:	00000000 	nop

00012290 <ac_syscall_wrapper>:
   12290:	24020074 	li	v0,116
   12294:	00400008 	jr	v0
   12298:	00000000 	nop

0001229c <ac_syscall_geterrno>:
   1229c:	24020078 	li	v0,120
   122a0:	00400008 	jr	v0
   122a4:	00000000 	nop

000122a8 <ac_syscall_stat_mode>:
   122a8:	2402007c 	li	v0,124
   122ac:	00400008 	jr	v0
   122b0:	00000000 	nop

000122b4 <ac_rtld_init>:
   122b4:	24020080 	li	v0,128
   122b8:	00400008 	jr	v0
   122bc:	00000000 	nop

000122c0 <ac_rtld_fini>:
   122c0:	24020084 	li	v0,132
   122c4:	00400008 	jr	v0
   122c8:	00000000 	nop

000122cc <ac_rtld_dummy>:
   122cc:	24020088 	li	v0,136
   122d0:	00400008 	jr	v0
   122d4:	00000000 	nop

000122d8 <link>:
   122d8:	00801021 	move	v0,a0
   122dc:	27bdffe0 	addiu	sp,sp,-32
   122e0:	00a03021 	move	a2,a1
   122e4:	24040009 	li	a0,9
   122e8:	00402821 	move	a1,v0
   122ec:	afb00014 	sw	s0,20(sp)
   122f0:	afbf001c 	sw	ra,28(sp)
   122f4:	0c0048a4 	jal	12290 <ac_syscall_wrapper>
   122f8:	afb10018 	sw	s1,24(sp)
   122fc:	00408021 	move	s0,v0
   12300:	2402ffff 	li	v0,-1
   12304:	12020006 	beq	s0,v0,12320 <link+0x48>
   12308:	02001021 	move	v0,s0
   1230c:	8fbf001c 	lw	ra,28(sp)
   12310:	8fb10018 	lw	s1,24(sp)
   12314:	8fb00014 	lw	s0,20(sp)
   12318:	03e00008 	jr	ra
   1231c:	27bd0020 	addiu	sp,sp,32
   12320:	0c004a40 	jal	12900 <__errno>
   12324:	00000000 	nop
   12328:	0c0048a7 	jal	1229c <ac_syscall_geterrno>
   1232c:	00408821 	move	s1,v0
   12330:	8fbf001c 	lw	ra,28(sp)
   12334:	ae220000 	sw	v0,0(s1)
   12338:	02001021 	move	v0,s0
   1233c:	8fb10018 	lw	s1,24(sp)
   12340:	8fb00014 	lw	s0,20(sp)
   12344:	03e00008 	jr	ra
   12348:	27bd0020 	addiu	sp,sp,32

0001234c <unlink>:
   1234c:	27bdffe0 	addiu	sp,sp,-32
   12350:	00802821 	move	a1,a0
   12354:	2404000a 	li	a0,10
   12358:	afb00014 	sw	s0,20(sp)
   1235c:	afbf001c 	sw	ra,28(sp)
   12360:	0c0048a4 	jal	12290 <ac_syscall_wrapper>
   12364:	afb10018 	sw	s1,24(sp)
   12368:	00408021 	move	s0,v0
   1236c:	2402ffff 	li	v0,-1
   12370:	12020006 	beq	s0,v0,1238c <unlink+0x40>
   12374:	02001021 	move	v0,s0
   12378:	8fbf001c 	lw	ra,28(sp)
   1237c:	8fb10018 	lw	s1,24(sp)
   12380:	8fb00014 	lw	s0,20(sp)
   12384:	03e00008 	jr	ra
   12388:	27bd0020 	addiu	sp,sp,32
   1238c:	0c004a40 	jal	12900 <__errno>
   12390:	00000000 	nop
   12394:	0c0048a7 	jal	1229c <ac_syscall_geterrno>
   12398:	00408821 	move	s1,v0
   1239c:	8fbf001c 	lw	ra,28(sp)
   123a0:	ae220000 	sw	v0,0(s1)
   123a4:	02001021 	move	v0,s0
   123a8:	8fb10018 	lw	s1,24(sp)
   123ac:	8fb00014 	lw	s0,20(sp)
   123b0:	03e00008 	jr	ra
   123b4:	27bd0020 	addiu	sp,sp,32

000123b8 <chmod>:
   123b8:	00801021 	move	v0,a0
   123bc:	27bdffe0 	addiu	sp,sp,-32
   123c0:	00a03021 	move	a2,a1
   123c4:	2404000f 	li	a0,15
   123c8:	00402821 	move	a1,v0
   123cc:	afb00014 	sw	s0,20(sp)
   123d0:	afbf001c 	sw	ra,28(sp)
   123d4:	0c0048a4 	jal	12290 <ac_syscall_wrapper>
   123d8:	afb10018 	sw	s1,24(sp)
   123dc:	00408021 	move	s0,v0
   123e0:	2402ffff 	li	v0,-1
   123e4:	12020006 	beq	s0,v0,12400 <chmod+0x48>
   123e8:	02001021 	move	v0,s0
   123ec:	8fbf001c 	lw	ra,28(sp)
   123f0:	8fb10018 	lw	s1,24(sp)
   123f4:	8fb00014 	lw	s0,20(sp)
   123f8:	03e00008 	jr	ra
   123fc:	27bd0020 	addiu	sp,sp,32
   12400:	0c004a40 	jal	12900 <__errno>
   12404:	00000000 	nop
   12408:	0c0048a7 	jal	1229c <ac_syscall_geterrno>
   1240c:	00408821 	move	s1,v0
   12410:	8fbf001c 	lw	ra,28(sp)
   12414:	ae220000 	sw	v0,0(s1)
   12418:	02001021 	move	v0,s0
   1241c:	8fb10018 	lw	s1,24(sp)
   12420:	8fb00014 	lw	s0,20(sp)
   12424:	03e00008 	jr	ra
   12428:	27bd0020 	addiu	sp,sp,32

0001242c <fchmod>:
   1242c:	00801021 	move	v0,a0
   12430:	27bdffe0 	addiu	sp,sp,-32
   12434:	00a03021 	move	a2,a1
   12438:	2404005e 	li	a0,94
   1243c:	00402821 	move	a1,v0
   12440:	afb00014 	sw	s0,20(sp)
   12444:	afbf001c 	sw	ra,28(sp)
   12448:	0c0048a4 	jal	12290 <ac_syscall_wrapper>
   1244c:	afb10018 	sw	s1,24(sp)
   12450:	00408021 	move	s0,v0
   12454:	2402ffff 	li	v0,-1
   12458:	12020006 	beq	s0,v0,12474 <fchmod+0x48>
   1245c:	02001021 	move	v0,s0
   12460:	8fbf001c 	lw	ra,28(sp)
   12464:	8fb10018 	lw	s1,24(sp)
   12468:	8fb00014 	lw	s0,20(sp)
   1246c:	03e00008 	jr	ra
   12470:	27bd0020 	addiu	sp,sp,32
   12474:	0c004a40 	jal	12900 <__errno>
   12478:	00000000 	nop
   1247c:	0c0048a7 	jal	1229c <ac_syscall_geterrno>
   12480:	00408821 	move	s1,v0
   12484:	8fbf001c 	lw	ra,28(sp)
   12488:	ae220000 	sw	v0,0(s1)
   1248c:	02001021 	move	v0,s0
   12490:	8fb10018 	lw	s1,24(sp)
   12494:	8fb00014 	lw	s0,20(sp)
   12498:	03e00008 	jr	ra
   1249c:	27bd0020 	addiu	sp,sp,32

000124a0 <chown>:
   124a0:	00801821 	move	v1,a0
   124a4:	30a2ffff 	andi	v0,a1,0xffff
   124a8:	27bdffe0 	addiu	sp,sp,-32
   124ac:	30c7ffff 	andi	a3,a2,0xffff
   124b0:	240400b6 	li	a0,182
   124b4:	00602821 	move	a1,v1
   124b8:	00403021 	move	a2,v0
   124bc:	afb00014 	sw	s0,20(sp)
   124c0:	afbf001c 	sw	ra,28(sp)
   124c4:	0c0048a4 	jal	12290 <ac_syscall_wrapper>
   124c8:	afb10018 	sw	s1,24(sp)
   124cc:	00408021 	move	s0,v0
   124d0:	2402ffff 	li	v0,-1
   124d4:	12020006 	beq	s0,v0,124f0 <chown+0x50>
   124d8:	02001021 	move	v0,s0
   124dc:	8fbf001c 	lw	ra,28(sp)
   124e0:	8fb10018 	lw	s1,24(sp)
   124e4:	8fb00014 	lw	s0,20(sp)
   124e8:	03e00008 	jr	ra
   124ec:	27bd0020 	addiu	sp,sp,32
   124f0:	0c004a40 	jal	12900 <__errno>
   124f4:	00000000 	nop
   124f8:	0c0048a7 	jal	1229c <ac_syscall_geterrno>
   124fc:	00408821 	move	s1,v0
   12500:	8fbf001c 	lw	ra,28(sp)
   12504:	ae220000 	sw	v0,0(s1)
   12508:	02001021 	move	v0,s0
   1250c:	8fb10018 	lw	s1,24(sp)
   12510:	8fb00014 	lw	s0,20(sp)
   12514:	03e00008 	jr	ra
   12518:	27bd0020 	addiu	sp,sp,32

0001251c <fchown>:
   1251c:	00801821 	move	v1,a0
   12520:	30a2ffff 	andi	v0,a1,0xffff
   12524:	27bdffe0 	addiu	sp,sp,-32
   12528:	30c7ffff 	andi	a3,a2,0xffff
   1252c:	2404005f 	li	a0,95
   12530:	00602821 	move	a1,v1
   12534:	00403021 	move	a2,v0
   12538:	afb00014 	sw	s0,20(sp)
   1253c:	afbf001c 	sw	ra,28(sp)
   12540:	0c0048a4 	jal	12290 <ac_syscall_wrapper>
   12544:	afb10018 	sw	s1,24(sp)
   12548:	00408021 	move	s0,v0
   1254c:	2402ffff 	li	v0,-1
   12550:	12020006 	beq	s0,v0,1256c <fchown+0x50>
   12554:	02001021 	move	v0,s0
   12558:	8fbf001c 	lw	ra,28(sp)
   1255c:	8fb10018 	lw	s1,24(sp)
   12560:	8fb00014 	lw	s0,20(sp)
   12564:	03e00008 	jr	ra
   12568:	27bd0020 	addiu	sp,sp,32
   1256c:	0c004a40 	jal	12900 <__errno>
   12570:	00000000 	nop
   12574:	0c0048a7 	jal	1229c <ac_syscall_geterrno>
   12578:	00408821 	move	s1,v0
   1257c:	8fbf001c 	lw	ra,28(sp)
   12580:	ae220000 	sw	v0,0(s1)
   12584:	02001021 	move	v0,s0
   12588:	8fb10018 	lw	s1,24(sp)
   1258c:	8fb00014 	lw	s0,20(sp)
   12590:	03e00008 	jr	ra
   12594:	27bd0020 	addiu	sp,sp,32

00012598 <lchown>:
   12598:	00801821 	move	v1,a0
   1259c:	30a2ffff 	andi	v0,a1,0xffff
   125a0:	27bdffe0 	addiu	sp,sp,-32
   125a4:	30c7ffff 	andi	a3,a2,0xffff
   125a8:	24040010 	li	a0,16
   125ac:	00602821 	move	a1,v1
   125b0:	00403021 	move	a2,v0
   125b4:	afb00014 	sw	s0,20(sp)
   125b8:	afbf001c 	sw	ra,28(sp)
   125bc:	0c0048a4 	jal	12290 <ac_syscall_wrapper>
   125c0:	afb10018 	sw	s1,24(sp)
   125c4:	00408021 	move	s0,v0
   125c8:	2402ffff 	li	v0,-1
   125cc:	12020006 	beq	s0,v0,125e8 <lchown+0x50>
   125d0:	02001021 	move	v0,s0
   125d4:	8fbf001c 	lw	ra,28(sp)
   125d8:	8fb10018 	lw	s1,24(sp)
   125dc:	8fb00014 	lw	s0,20(sp)
   125e0:	03e00008 	jr	ra
   125e4:	27bd0020 	addiu	sp,sp,32
   125e8:	0c004a40 	jal	12900 <__errno>
   125ec:	00000000 	nop
   125f0:	0c0048a7 	jal	1229c <ac_syscall_geterrno>
   125f4:	00408821 	move	s1,v0
   125f8:	8fbf001c 	lw	ra,28(sp)
   125fc:	ae220000 	sw	v0,0(s1)
   12600:	02001021 	move	v0,s0
   12604:	8fb10018 	lw	s1,24(sp)
   12608:	8fb00014 	lw	s0,20(sp)
   1260c:	03e00008 	jr	ra
   12610:	27bd0020 	addiu	sp,sp,32

00012614 <getpid>:
   12614:	27bdffe0 	addiu	sp,sp,-32
   12618:	24040014 	li	a0,20
   1261c:	afb00014 	sw	s0,20(sp)
   12620:	afbf001c 	sw	ra,28(sp)
   12624:	0c0048a4 	jal	12290 <ac_syscall_wrapper>
   12628:	afb10018 	sw	s1,24(sp)
   1262c:	00408021 	move	s0,v0
   12630:	2402ffff 	li	v0,-1
   12634:	12020006 	beq	s0,v0,12650 <getpid+0x3c>
   12638:	02001021 	move	v0,s0
   1263c:	8fbf001c 	lw	ra,28(sp)
   12640:	8fb10018 	lw	s1,24(sp)
   12644:	8fb00014 	lw	s0,20(sp)
   12648:	03e00008 	jr	ra
   1264c:	27bd0020 	addiu	sp,sp,32
   12650:	0c004a40 	jal	12900 <__errno>
   12654:	00000000 	nop
   12658:	0c0048a7 	jal	1229c <ac_syscall_geterrno>
   1265c:	00408821 	move	s1,v0
   12660:	8fbf001c 	lw	ra,28(sp)
   12664:	ae220000 	sw	v0,0(s1)
   12668:	02001021 	move	v0,s0
   1266c:	8fb10018 	lw	s1,24(sp)
   12670:	8fb00014 	lw	s0,20(sp)
   12674:	03e00008 	jr	ra
   12678:	27bd0020 	addiu	sp,sp,32

0001267c <getppid>:
   1267c:	27bdffe0 	addiu	sp,sp,-32
   12680:	24040040 	li	a0,64
   12684:	afb00014 	sw	s0,20(sp)
   12688:	afbf001c 	sw	ra,28(sp)
   1268c:	0c0048a4 	jal	12290 <ac_syscall_wrapper>
   12690:	afb10018 	sw	s1,24(sp)
   12694:	00408021 	move	s0,v0
   12698:	2402ffff 	li	v0,-1
   1269c:	12020006 	beq	s0,v0,126b8 <getppid+0x3c>
   126a0:	02001021 	move	v0,s0
   126a4:	8fbf001c 	lw	ra,28(sp)
   126a8:	8fb10018 	lw	s1,24(sp)
   126ac:	8fb00014 	lw	s0,20(sp)
   126b0:	03e00008 	jr	ra
   126b4:	27bd0020 	addiu	sp,sp,32
   126b8:	0c004a40 	jal	12900 <__errno>
   126bc:	00000000 	nop
   126c0:	0c0048a7 	jal	1229c <ac_syscall_geterrno>
   126c4:	00408821 	move	s1,v0
   126c8:	8fbf001c 	lw	ra,28(sp)
   126cc:	ae220000 	sw	v0,0(s1)
   126d0:	02001021 	move	v0,s0
   126d4:	8fb10018 	lw	s1,24(sp)
   126d8:	8fb00014 	lw	s0,20(sp)
   126dc:	03e00008 	jr	ra
   126e0:	27bd0020 	addiu	sp,sp,32

000126e4 <dup>:
   126e4:	27bdffe0 	addiu	sp,sp,-32
   126e8:	00802821 	move	a1,a0
   126ec:	24040029 	li	a0,41
   126f0:	afb00014 	sw	s0,20(sp)
   126f4:	afbf001c 	sw	ra,28(sp)
   126f8:	0c0048a4 	jal	12290 <ac_syscall_wrapper>
   126fc:	afb10018 	sw	s1,24(sp)
   12700:	00408021 	move	s0,v0
   12704:	2402ffff 	li	v0,-1
   12708:	12020006 	beq	s0,v0,12724 <dup+0x40>
   1270c:	02001021 	move	v0,s0
   12710:	8fbf001c 	lw	ra,28(sp)
   12714:	8fb10018 	lw	s1,24(sp)
   12718:	8fb00014 	lw	s0,20(sp)
   1271c:	03e00008 	jr	ra
   12720:	27bd0020 	addiu	sp,sp,32
   12724:	0c004a40 	jal	12900 <__errno>
   12728:	00000000 	nop
   1272c:	0c0048a7 	jal	1229c <ac_syscall_geterrno>
   12730:	00408821 	move	s1,v0
   12734:	8fbf001c 	lw	ra,28(sp)
   12738:	ae220000 	sw	v0,0(s1)
   1273c:	02001021 	move	v0,s0
   12740:	8fb10018 	lw	s1,24(sp)
   12744:	8fb00014 	lw	s0,20(sp)
   12748:	03e00008 	jr	ra
   1274c:	27bd0020 	addiu	sp,sp,32

00012750 <dup2>:
   12750:	00801021 	move	v0,a0
   12754:	27bdffe0 	addiu	sp,sp,-32
   12758:	00a03021 	move	a2,a1
   1275c:	2404003f 	li	a0,63
   12760:	00402821 	move	a1,v0
   12764:	afb00014 	sw	s0,20(sp)
   12768:	afbf001c 	sw	ra,28(sp)
   1276c:	0c0048a4 	jal	12290 <ac_syscall_wrapper>
   12770:	afb10018 	sw	s1,24(sp)
   12774:	00408021 	move	s0,v0
   12778:	2402ffff 	li	v0,-1
   1277c:	12020006 	beq	s0,v0,12798 <dup2+0x48>
   12780:	02001021 	move	v0,s0
   12784:	8fbf001c 	lw	ra,28(sp)
   12788:	8fb10018 	lw	s1,24(sp)
   1278c:	8fb00014 	lw	s0,20(sp)
   12790:	03e00008 	jr	ra
   12794:	27bd0020 	addiu	sp,sp,32
   12798:	0c004a40 	jal	12900 <__errno>
   1279c:	00000000 	nop
   127a0:	0c0048a7 	jal	1229c <ac_syscall_geterrno>
   127a4:	00408821 	move	s1,v0
   127a8:	8fbf001c 	lw	ra,28(sp)
   127ac:	ae220000 	sw	v0,0(s1)
   127b0:	02001021 	move	v0,s0
   127b4:	8fb10018 	lw	s1,24(sp)
   127b8:	8fb00014 	lw	s0,20(sp)
   127bc:	03e00008 	jr	ra
   127c0:	27bd0020 	addiu	sp,sp,32

000127c4 <fstat>:
   127c4:	27bdffe0 	addiu	sp,sp,-32
   127c8:	00801021 	move	v0,a0
   127cc:	afb00010 	sw	s0,16(sp)
   127d0:	00a08021 	move	s0,a1
   127d4:	2404006c 	li	a0,108
   127d8:	00402821 	move	a1,v0
   127dc:	02003021 	move	a2,s0
   127e0:	afb20018 	sw	s2,24(sp)
   127e4:	afbf001c 	sw	ra,28(sp)
   127e8:	0c0048a4 	jal	12290 <ac_syscall_wrapper>
   127ec:	afb10014 	sw	s1,20(sp)
   127f0:	00409021 	move	s2,v0
   127f4:	2402ffff 	li	v0,-1
   127f8:	1242002f 	beq	s2,v0,128b8 <fstat+0xf4>
   127fc:	3c040001 	lui	a0,0x1
   12800:	0c0048a4 	jal	12290 <ac_syscall_wrapper>
   12804:	3c110001 	lui	s1,0x1
   12808:	a6020000 	sh	v0,0(s0)
   1280c:	0c0048a4 	jal	12290 <ac_syscall_wrapper>
   12810:	26240001 	addiu	a0,s1,1
   12814:	a6020002 	sh	v0,2(s0)
   12818:	0c0048a4 	jal	12290 <ac_syscall_wrapper>
   1281c:	26240002 	addiu	a0,s1,2
   12820:	ae020004 	sw	v0,4(s0)
   12824:	0c0048a4 	jal	12290 <ac_syscall_wrapper>
   12828:	26240003 	addiu	a0,s1,3
   1282c:	a6020008 	sh	v0,8(s0)
   12830:	0c0048a4 	jal	12290 <ac_syscall_wrapper>
   12834:	26240004 	addiu	a0,s1,4
   12838:	a602000a 	sh	v0,10(s0)
   1283c:	0c0048a4 	jal	12290 <ac_syscall_wrapper>
   12840:	26240005 	addiu	a0,s1,5
   12844:	a602000c 	sh	v0,12(s0)
   12848:	0c0048a4 	jal	12290 <ac_syscall_wrapper>
   1284c:	26240006 	addiu	a0,s1,6
   12850:	a602000e 	sh	v0,14(s0)
   12854:	0c0048a4 	jal	12290 <ac_syscall_wrapper>
   12858:	26240007 	addiu	a0,s1,7
   1285c:	ae020010 	sw	v0,16(s0)
   12860:	0c0048a4 	jal	12290 <ac_syscall_wrapper>
   12864:	26240008 	addiu	a0,s1,8
   12868:	ae02002c 	sw	v0,44(s0)
   1286c:	0c0048a4 	jal	12290 <ac_syscall_wrapper>
   12870:	26240009 	addiu	a0,s1,9
   12874:	ae020030 	sw	v0,48(s0)
   12878:	0c0048a4 	jal	12290 <ac_syscall_wrapper>
   1287c:	2624000a 	addiu	a0,s1,10
   12880:	ae020014 	sw	v0,20(s0)
   12884:	0c0048a4 	jal	12290 <ac_syscall_wrapper>
   12888:	2624000b 	addiu	a0,s1,11
   1288c:	ae02001c 	sw	v0,28(s0)
   12890:	0c0048a4 	jal	12290 <ac_syscall_wrapper>
   12894:	2624000c 	addiu	a0,s1,12
   12898:	8fbf001c 	lw	ra,28(sp)
   1289c:	ae020024 	sw	v0,36(s0)
   128a0:	8fb10014 	lw	s1,20(sp)
   128a4:	02401021 	move	v0,s2
   128a8:	8fb00010 	lw	s0,16(sp)
   128ac:	8fb20018 	lw	s2,24(sp)
   128b0:	03e00008 	jr	ra
   128b4:	27bd0020 	addiu	sp,sp,32
   128b8:	0c004a40 	jal	12900 <__errno>
   128bc:	00000000 	nop
   128c0:	0c0048a7 	jal	1229c <ac_syscall_geterrno>
   128c4:	00408021 	move	s0,v0
   128c8:	8fbf001c 	lw	ra,28(sp)
   128cc:	ae020000 	sw	v0,0(s0)
   128d0:	8fb10014 	lw	s1,20(sp)
   128d4:	02401021 	move	v0,s2
   128d8:	8fb00010 	lw	s0,16(sp)
   128dc:	8fb20018 	lw	s2,24(sp)
   128e0:	03e00008 	jr	ra
   128e4:	27bd0020 	addiu	sp,sp,32

000128e8 <utime>:
   128e8:	03e00008 	jr	ra
   128ec:	00001021 	move	v0,zero

000128f0 <abort>:
   128f0:	27bdffe8 	addiu	sp,sp,-24
   128f4:	afbf0014 	sw	ra,20(sp)
   128f8:	0c004898 	jal	12260 <_exit>
   128fc:	24040001 	li	a0,1

00012900 <__errno>:
   12900:	27bdfff8 	addiu	sp,sp,-8
   12904:	afbe0004 	sw	s8,4(sp)
   12908:	03a0f021 	move	s8,sp
   1290c:	8f828068 	lw	v0,-32664(gp)
   12910:	03c0e821 	move	sp,s8
   12914:	8fbe0004 	lw	s8,4(sp)
   12918:	27bd0008 	addiu	sp,sp,8
   1291c:	03e00008 	jr	ra
   12920:	00000000 	nop

00012924 <__udivdi3>:
   12924:	00e04021 	move	t0,a3
   12928:	00a04821 	move	t1,a1
   1292c:	14c00055 	bnez	a2,12a84 <__udivdi3+0x160>
   12930:	00805021 	move	t2,a0
   12934:	0087102b 	sltu	v0,a0,a3
   12938:	10400073 	beqz	v0,12b08 <__udivdi3+0x1e4>
   1293c:	3c020001 	lui	v0,0x1
   12940:	00e2102b 	sltu	v0,a3,v0
   12944:	144000d3 	bnez	v0,12c94 <__udivdi3+0x370>
   12948:	2ce20100 	sltiu	v0,a3,256
   1294c:	3c020100 	lui	v0,0x100
   12950:	00e2102b 	sltu	v0,a3,v0
   12954:	10400170 	beqz	v0,12f18 <__udivdi3+0x5f4>
   12958:	24060018 	li	a2,24
   1295c:	24060010 	li	a2,16
   12960:	24030010 	li	v1,16
   12964:	3c020001 	lui	v0,0x1
   12968:	00c73006 	srlv	a2,a3,a2
   1296c:	24424fb0 	addiu	v0,v0,20400
   12970:	00c21021 	addu	v0,a2,v0
   12974:	90420000 	lbu	v0,0(v0)
   12978:	00000000 	nop
   1297c:	00431821 	addu	v1,v0,v1
   12980:	24020020 	li	v0,32
   12984:	00431023 	subu	v0,v0,v1
   12988:	10400005 	beqz	v0,129a0 <__udivdi3+0x7c>
   1298c:	00442004 	sllv	a0,a0,v0
   12990:	00651806 	srlv	v1,a1,v1
   12994:	00474004 	sllv	t0,a3,v0
   12998:	00835025 	or	t2,a0,v1
   1299c:	00454804 	sllv	t1,a1,v0
   129a0:	00081402 	srl	v0,t0,0x10
   129a4:	14400002 	bnez	v0,129b0 <__udivdi3+0x8c>
   129a8:	0142001b 	divu	zero,t2,v0
   129ac:	0007000d 	break	0x7
   129b0:	3107ffff 	andi	a3,t0,0xffff
   129b4:	00092c02 	srl	a1,t1,0x10
   129b8:	00003012 	mflo	a2
   129bc:	00005810 	mfhi	t3
   129c0:	000b1c00 	sll	v1,t3,0x10
   129c4:	00652825 	or	a1,v1,a1
   129c8:	00c70018 	mult	a2,a3
   129cc:	00002012 	mflo	a0
   129d0:	00a4182b 	sltu	v1,a1,a0
   129d4:	00000000 	nop
   129d8:	14400002 	bnez	v0,129e4 <__udivdi3+0xc0>
   129dc:	0142001b 	divu	zero,t2,v0
   129e0:	0007000d 	break	0x7
   129e4:	10600009 	beqz	v1,12a0c <__udivdi3+0xe8>
   129e8:	00000000 	nop
   129ec:	00a82821 	addu	a1,a1,t0
   129f0:	00a8182b 	sltu	v1,a1,t0
   129f4:	14600004 	bnez	v1,12a08 <__udivdi3+0xe4>
   129f8:	24caffff 	addiu	t2,a2,-1
   129fc:	00a4182b 	sltu	v1,a1,a0
   12a00:	14600158 	bnez	v1,12f64 <__udivdi3+0x640>
   12a04:	24c6fffe 	addiu	a2,a2,-2
   12a08:	01403021 	move	a2,t2
   12a0c:	00a42023 	subu	a0,a1,a0
   12a10:	3129ffff 	andi	t1,t1,0xffff
   12a14:	14400002 	bnez	v0,12a20 <__udivdi3+0xfc>
   12a18:	0082001b 	divu	zero,a0,v0
   12a1c:	0007000d 	break	0x7
   12a20:	00001812 	mflo	v1
   12a24:	00002810 	mfhi	a1
   12a28:	00052c00 	sll	a1,a1,0x10
   12a2c:	00a94825 	or	t1,a1,t1
   12a30:	00670018 	mult	v1,a3
   12a34:	00003812 	mflo	a3
   12a38:	0127282b 	sltu	a1,t1,a3
   12a3c:	00000000 	nop
   12a40:	14400002 	bnez	v0,12a4c <__udivdi3+0x128>
   12a44:	0082001b 	divu	zero,a0,v0
   12a48:	0007000d 	break	0x7
   12a4c:	10a00008 	beqz	a1,12a70 <__udivdi3+0x14c>
   12a50:	01284821 	addu	t1,t1,t0
   12a54:	0128402b 	sltu	t0,t1,t0
   12a58:	15000117 	bnez	t0,12eb8 <__udivdi3+0x594>
   12a5c:	2462ffff 	addiu	v0,v1,-1
   12a60:	0127382b 	sltu	a3,t1,a3
   12a64:	10e00114 	beqz	a3,12eb8 <__udivdi3+0x594>
   12a68:	00000000 	nop
   12a6c:	2463fffe 	addiu	v1,v1,-2
   12a70:	00063400 	sll	a2,a2,0x10
   12a74:	00661825 	or	v1,v1,a2
   12a78:	00001021 	move	v0,zero
   12a7c:	03e00008 	jr	ra
   12a80:	00000000 	nop
   12a84:	0086102b 	sltu	v0,a0,a2
   12a88:	14400075 	bnez	v0,12c60 <__udivdi3+0x33c>
   12a8c:	00001821 	move	v1,zero
   12a90:	3c020001 	lui	v0,0x1
   12a94:	00c2102b 	sltu	v0,a2,v0
   12a98:	14400074 	bnez	v0,12c6c <__udivdi3+0x348>
   12a9c:	2cc20100 	sltiu	v0,a2,256
   12aa0:	3c020100 	lui	v0,0x100
   12aa4:	00c2102b 	sltu	v0,a2,v0
   12aa8:	10400114 	beqz	v0,12efc <__udivdi3+0x5d8>
   12aac:	24080018 	li	t0,24
   12ab0:	24080010 	li	t0,16
   12ab4:	24090010 	li	t1,16
   12ab8:	3c030001 	lui	v1,0x1
   12abc:	01064006 	srlv	t0,a2,t0
   12ac0:	24634fb0 	addiu	v1,v1,20400
   12ac4:	01031821 	addu	v1,t0,v1
   12ac8:	90620000 	lbu	v0,0(v1)
   12acc:	00000000 	nop
   12ad0:	00491021 	addu	v0,v0,t1
   12ad4:	24090020 	li	t1,32
   12ad8:	01224823 	subu	t1,t1,v0
   12adc:	15200071 	bnez	t1,12ca4 <__udivdi3+0x380>
   12ae0:	00446006 	srlv	t4,a0,v0
   12ae4:	00c4202b 	sltu	a0,a2,a0
   12ae8:	14800003 	bnez	a0,12af8 <__udivdi3+0x1d4>
   12aec:	00a7382b 	sltu	a3,a1,a3
   12af0:	14e0005a 	bnez	a3,12c5c <__udivdi3+0x338>
   12af4:	00000000 	nop
   12af8:	24030001 	li	v1,1
   12afc:	00001021 	move	v0,zero
   12b00:	03e00008 	jr	ra
   12b04:	00000000 	nop
   12b08:	14e00008 	bnez	a3,12b2c <__udivdi3+0x208>
   12b0c:	0102102b 	sltu	v0,t0,v0
   12b10:	24020001 	li	v0,1
   12b14:	14e00002 	bnez	a3,12b20 <__udivdi3+0x1fc>
   12b18:	0047001b 	divu	zero,v0,a3
   12b1c:	0007000d 	break	0x7
   12b20:	00004012 	mflo	t0
   12b24:	3c020001 	lui	v0,0x1
   12b28:	0102102b 	sltu	v0,t0,v0
   12b2c:	14400054 	bnez	v0,12c80 <__udivdi3+0x35c>
   12b30:	2d020100 	sltiu	v0,t0,256
   12b34:	3c020100 	lui	v0,0x100
   12b38:	0102102b 	sltu	v0,t0,v0
   12b3c:	104000f4 	beqz	v0,12f10 <__udivdi3+0x5ec>
   12b40:	24030018 	li	v1,24
   12b44:	24030010 	li	v1,16
   12b48:	24060010 	li	a2,16
   12b4c:	3c020001 	lui	v0,0x1
   12b50:	00681806 	srlv	v1,t0,v1
   12b54:	24424fb0 	addiu	v0,v0,20400
   12b58:	00621021 	addu	v0,v1,v0
   12b5c:	90420000 	lbu	v0,0(v0)
   12b60:	24070020 	li	a3,32
   12b64:	00463021 	addu	a2,v0,a2
   12b68:	00e63823 	subu	a3,a3,a2
   12b6c:	14e00091 	bnez	a3,12db4 <__udivdi3+0x490>
   12b70:	00c45006 	srlv	t2,a0,a2
   12b74:	00883023 	subu	a2,a0,t0
   12b78:	00082c02 	srl	a1,t0,0x10
   12b7c:	310bffff 	andi	t3,t0,0xffff
   12b80:	24020001 	li	v0,1
   12b84:	14a00002 	bnez	a1,12b90 <__udivdi3+0x26c>
   12b88:	00c5001b 	divu	zero,a2,a1
   12b8c:	0007000d 	break	0x7
   12b90:	00093c02 	srl	a3,t1,0x10
   12b94:	00005012 	mflo	t2
   12b98:	00006010 	mfhi	t4
   12b9c:	000c1c00 	sll	v1,t4,0x10
   12ba0:	00673825 	or	a3,v1,a3
   12ba4:	014b0018 	mult	t2,t3
   12ba8:	00002012 	mflo	a0
   12bac:	00e4182b 	sltu	v1,a3,a0
   12bb0:	00000000 	nop
   12bb4:	14a00002 	bnez	a1,12bc0 <__udivdi3+0x29c>
   12bb8:	00c5001b 	divu	zero,a2,a1
   12bbc:	0007000d 	break	0x7
   12bc0:	10600009 	beqz	v1,12be8 <__udivdi3+0x2c4>
   12bc4:	00000000 	nop
   12bc8:	00e83821 	addu	a3,a3,t0
   12bcc:	00e8182b 	sltu	v1,a3,t0
   12bd0:	14600004 	bnez	v1,12be4 <__udivdi3+0x2c0>
   12bd4:	2546ffff 	addiu	a2,t2,-1
   12bd8:	00e4182b 	sltu	v1,a3,a0
   12bdc:	146000e3 	bnez	v1,12f6c <__udivdi3+0x648>
   12be0:	254afffe 	addiu	t2,t2,-2
   12be4:	00c05021 	move	t2,a2
   12be8:	00e42023 	subu	a0,a3,a0
   12bec:	3129ffff 	andi	t1,t1,0xffff
   12bf0:	14a00002 	bnez	a1,12bfc <__udivdi3+0x2d8>
   12bf4:	0085001b 	divu	zero,a0,a1
   12bf8:	0007000d 	break	0x7
   12bfc:	00001812 	mflo	v1
   12c00:	00003010 	mfhi	a2
   12c04:	00063400 	sll	a2,a2,0x10
   12c08:	00c94825 	or	t1,a2,t1
   12c0c:	006b0018 	mult	v1,t3
   12c10:	00005812 	mflo	t3
   12c14:	012b302b 	sltu	a2,t1,t3
   12c18:	00000000 	nop
   12c1c:	14a00002 	bnez	a1,12c28 <__udivdi3+0x304>
   12c20:	0085001b 	divu	zero,a0,a1
   12c24:	0007000d 	break	0x7
   12c28:	10c00008 	beqz	a2,12c4c <__udivdi3+0x328>
   12c2c:	01284821 	addu	t1,t1,t0
   12c30:	0128402b 	sltu	t0,t1,t0
   12c34:	150000a2 	bnez	t0,12ec0 <__udivdi3+0x59c>
   12c38:	2464ffff 	addiu	a0,v1,-1
   12c3c:	012b582b 	sltu	t3,t1,t3
   12c40:	1160009f 	beqz	t3,12ec0 <__udivdi3+0x59c>
   12c44:	00000000 	nop
   12c48:	2463fffe 	addiu	v1,v1,-2
   12c4c:	000a5400 	sll	t2,t2,0x10
   12c50:	006a1825 	or	v1,v1,t2
   12c54:	03e00008 	jr	ra
   12c58:	00000000 	nop
   12c5c:	00001821 	move	v1,zero
   12c60:	00001021 	move	v0,zero
   12c64:	03e00008 	jr	ra
   12c68:	00000000 	nop
   12c6c:	104000a0 	beqz	v0,12ef0 <__udivdi3+0x5cc>
   12c70:	00000000 	nop
   12c74:	00004021 	move	t0,zero
   12c78:	08004aae 	j	12ab8 <__udivdi3+0x194>
   12c7c:	00004821 	move	t1,zero
   12c80:	104000a7 	beqz	v0,12f20 <__udivdi3+0x5fc>
   12c84:	00000000 	nop
   12c88:	00001821 	move	v1,zero
   12c8c:	08004ad3 	j	12b4c <__udivdi3+0x228>
   12c90:	00003021 	move	a2,zero
   12c94:	1040009b 	beqz	v0,12f04 <__udivdi3+0x5e0>
   12c98:	00000000 	nop
   12c9c:	08004a59 	j	12964 <__udivdi3+0x40>
   12ca0:	00001821 	move	v1,zero
   12ca4:	00471806 	srlv	v1,a3,v0
   12ca8:	01263004 	sllv	a2,a2,t1
   12cac:	00c33025 	or	a2,a2,v1
   12cb0:	00064402 	srl	t0,a2,0x10
   12cb4:	15000002 	bnez	t0,12cc0 <__udivdi3+0x39c>
   12cb8:	0188001b 	divu	zero,t4,t0
   12cbc:	0007000d 	break	0x7
   12cc0:	30ceffff 	andi	t6,a2,0xffff
   12cc4:	00451006 	srlv	v0,a1,v0
   12cc8:	01242004 	sllv	a0,a0,t1
   12ccc:	00822025 	or	a0,a0,v0
   12cd0:	00047c02 	srl	t7,a0,0x10
   12cd4:	00006812 	mflo	t5
   12cd8:	00005810 	mfhi	t3
   12cdc:	000b5c00 	sll	t3,t3,0x10
   12ce0:	016f5825 	or	t3,t3,t7
   12ce4:	01ae0018 	mult	t5,t6
   12ce8:	00005012 	mflo	t2
   12cec:	016a182b 	sltu	v1,t3,t2
   12cf0:	00000000 	nop
   12cf4:	15000002 	bnez	t0,12d00 <__udivdi3+0x3dc>
   12cf8:	0188001b 	divu	zero,t4,t0
   12cfc:	0007000d 	break	0x7
   12d00:	10600006 	beqz	v1,12d1c <__udivdi3+0x3f8>
   12d04:	01271004 	sllv	v0,a3,t1
   12d08:	01665821 	addu	t3,t3,a2
   12d0c:	0166182b 	sltu	v1,t3,a2
   12d10:	1060008b 	beqz	v1,12f40 <__udivdi3+0x61c>
   12d14:	25a7ffff 	addiu	a3,t5,-1
   12d18:	00e06821 	move	t5,a3
   12d1c:	016a5023 	subu	t2,t3,t2
   12d20:	3084ffff 	andi	a0,a0,0xffff
   12d24:	15000002 	bnez	t0,12d30 <__udivdi3+0x40c>
   12d28:	0148001b 	divu	zero,t2,t0
   12d2c:	0007000d 	break	0x7
   12d30:	00001812 	mflo	v1
   12d34:	00003810 	mfhi	a3
   12d38:	00073c00 	sll	a3,a3,0x10
   12d3c:	00e42025 	or	a0,a3,a0
   12d40:	006e0018 	mult	v1,t6
   12d44:	00005812 	mflo	t3
   12d48:	008b382b 	sltu	a3,a0,t3
   12d4c:	00000000 	nop
   12d50:	15000002 	bnez	t0,12d5c <__udivdi3+0x438>
   12d54:	0148001b 	divu	zero,t2,t0
   12d58:	0007000d 	break	0x7
   12d5c:	10e00006 	beqz	a3,12d78 <__udivdi3+0x454>
   12d60:	00000000 	nop
   12d64:	00862021 	addu	a0,a0,a2
   12d68:	0086382b 	sltu	a3,a0,a2
   12d6c:	10e0006f 	beqz	a3,12f2c <__udivdi3+0x608>
   12d70:	2468ffff 	addiu	t0,v1,-1
   12d74:	01001821 	move	v1,t0
   12d78:	000d6c00 	sll	t5,t5,0x10
   12d7c:	006d6825 	or	t5,v1,t5
   12d80:	008b2023 	subu	a0,a0,t3
   12d84:	01a20019 	multu	t5,v0
   12d88:	00001010 	mfhi	v0
   12d8c:	0082302b 	sltu	a2,a0,v0
   12d90:	00001812 	mflo	v1
   12d94:	14c00052 	bnez	a2,12ee0 <__udivdi3+0x5bc>
   12d98:	00000000 	nop
   12d9c:	1082004c 	beq	a0,v0,12ed0 <__udivdi3+0x5ac>
   12da0:	00000000 	nop
   12da4:	01a01821 	move	v1,t5
   12da8:	00001021 	move	v0,zero
   12dac:	03e00008 	jr	ra
   12db0:	00000000 	nop
   12db4:	00e84004 	sllv	t0,t0,a3
   12db8:	00081c02 	srl	v1,t0,0x10
   12dbc:	14600002 	bnez	v1,12dc8 <__udivdi3+0x4a4>
   12dc0:	0143001b 	divu	zero,t2,v1
   12dc4:	0007000d 	break	0x7
   12dc8:	310bffff 	andi	t3,t0,0xffff
   12dcc:	00c53006 	srlv	a2,a1,a2
   12dd0:	00e42004 	sllv	a0,a0,a3
   12dd4:	00862025 	or	a0,a0,a2
   12dd8:	00043402 	srl	a2,a0,0x10
   12ddc:	00e54804 	sllv	t1,a1,a3
   12de0:	00006812 	mflo	t5
   12de4:	00006010 	mfhi	t4
   12de8:	000c6400 	sll	t4,t4,0x10
   12dec:	01866025 	or	t4,t4,a2
   12df0:	01ab0018 	mult	t5,t3
   12df4:	00002812 	mflo	a1
   12df8:	0185102b 	sltu	v0,t4,a1
   12dfc:	00000000 	nop
   12e00:	14600002 	bnez	v1,12e0c <__udivdi3+0x4e8>
   12e04:	0143001b 	divu	zero,t2,v1
   12e08:	0007000d 	break	0x7
   12e0c:	1040000a 	beqz	v0,12e38 <__udivdi3+0x514>
   12e10:	00000000 	nop
   12e14:	01886021 	addu	t4,t4,t0
   12e18:	0188102b 	sltu	v0,t4,t0
   12e1c:	1440004f 	bnez	v0,12f5c <__udivdi3+0x638>
   12e20:	25a6ffff 	addiu	a2,t5,-1
   12e24:	0185102b 	sltu	v0,t4,a1
   12e28:	1040004c 	beqz	v0,12f5c <__udivdi3+0x638>
   12e2c:	00000000 	nop
   12e30:	25adfffe 	addiu	t5,t5,-2
   12e34:	01886021 	addu	t4,t4,t0
   12e38:	01852823 	subu	a1,t4,a1
   12e3c:	3084ffff 	andi	a0,a0,0xffff
   12e40:	14600002 	bnez	v1,12e4c <__udivdi3+0x528>
   12e44:	00a3001b 	divu	zero,a1,v1
   12e48:	0007000d 	break	0x7
   12e4c:	00001012 	mflo	v0
   12e50:	00003810 	mfhi	a3
   12e54:	00073c00 	sll	a3,a3,0x10
   12e58:	00e43825 	or	a3,a3,a0
   12e5c:	004b0018 	mult	v0,t3
   12e60:	00003012 	mflo	a2
   12e64:	00e6202b 	sltu	a0,a3,a2
   12e68:	00000000 	nop
   12e6c:	14600002 	bnez	v1,12e78 <__udivdi3+0x554>
   12e70:	00a3001b 	divu	zero,a1,v1
   12e74:	0007000d 	break	0x7
   12e78:	1080000a 	beqz	a0,12ea4 <__udivdi3+0x580>
   12e7c:	00000000 	nop
   12e80:	00e83821 	addu	a3,a3,t0
   12e84:	00e8202b 	sltu	a0,a3,t0
   12e88:	14800032 	bnez	a0,12f54 <__udivdi3+0x630>
   12e8c:	2445ffff 	addiu	a1,v0,-1
   12e90:	00e6202b 	sltu	a0,a3,a2
   12e94:	1080002f 	beqz	a0,12f54 <__udivdi3+0x630>
   12e98:	00000000 	nop
   12e9c:	2442fffe 	addiu	v0,v0,-2
   12ea0:	00e83821 	addu	a3,a3,t0
   12ea4:	000d6c00 	sll	t5,t5,0x10
   12ea8:	00e63023 	subu	a2,a3,a2
   12eac:	004d1025 	or	v0,v0,t5
   12eb0:	08004ae1 	j	12b84 <__udivdi3+0x260>
   12eb4:	00602821 	move	a1,v1
   12eb8:	08004a9c 	j	12a70 <__udivdi3+0x14c>
   12ebc:	00401821 	move	v1,v0
   12ec0:	00801821 	move	v1,a0
   12ec4:	000a5400 	sll	t2,t2,0x10
   12ec8:	08004b15 	j	12c54 <__udivdi3+0x330>
   12ecc:	006a1825 	or	v1,v1,t2
   12ed0:	01252804 	sllv	a1,a1,t1
   12ed4:	00a3282b 	sltu	a1,a1,v1
   12ed8:	10a0ffb2 	beqz	a1,12da4 <__udivdi3+0x480>
   12edc:	00000000 	nop
   12ee0:	25a3ffff 	addiu	v1,t5,-1
   12ee4:	00001021 	move	v0,zero
   12ee8:	03e00008 	jr	ra
   12eec:	00000000 	nop
   12ef0:	24080008 	li	t0,8
   12ef4:	08004aae 	j	12ab8 <__udivdi3+0x194>
   12ef8:	24090008 	li	t1,8
   12efc:	08004aae 	j	12ab8 <__udivdi3+0x194>
   12f00:	24090018 	li	t1,24
   12f04:	24060008 	li	a2,8
   12f08:	08004a59 	j	12964 <__udivdi3+0x40>
   12f0c:	24030008 	li	v1,8
   12f10:	08004ad3 	j	12b4c <__udivdi3+0x228>
   12f14:	24060018 	li	a2,24
   12f18:	08004a59 	j	12964 <__udivdi3+0x40>
   12f1c:	24030018 	li	v1,24
   12f20:	24030008 	li	v1,8
   12f24:	08004ad3 	j	12b4c <__udivdi3+0x228>
   12f28:	24060008 	li	a2,8
   12f2c:	008b382b 	sltu	a3,a0,t3
   12f30:	10e0ff90 	beqz	a3,12d74 <__udivdi3+0x450>
   12f34:	2463fffe 	addiu	v1,v1,-2
   12f38:	08004b5e 	j	12d78 <__udivdi3+0x454>
   12f3c:	00862021 	addu	a0,a0,a2
   12f40:	016a182b 	sltu	v1,t3,t2
   12f44:	1060ff74 	beqz	v1,12d18 <__udivdi3+0x3f4>
   12f48:	25adfffe 	addiu	t5,t5,-2
   12f4c:	08004b47 	j	12d1c <__udivdi3+0x3f8>
   12f50:	01665821 	addu	t3,t3,a2
   12f54:	08004ba9 	j	12ea4 <__udivdi3+0x580>
   12f58:	00a01021 	move	v0,a1
   12f5c:	08004b8e 	j	12e38 <__udivdi3+0x514>
   12f60:	00c06821 	move	t5,a2
   12f64:	08004a83 	j	12a0c <__udivdi3+0xe8>
   12f68:	00a82821 	addu	a1,a1,t0
   12f6c:	08004afa 	j	12be8 <__udivdi3+0x2c4>
   12f70:	00e83821 	addu	a3,a3,t0

00012f74 <__umoddi3>:
   12f74:	00e04021 	move	t0,a3
   12f78:	00a04821 	move	t1,a1
   12f7c:	14c00052 	bnez	a2,130c8 <__umoddi3+0x154>
   12f80:	00801021 	move	v0,a0
   12f84:	0087182b 	sltu	v1,a0,a3
   12f88:	10600073 	beqz	v1,13158 <__umoddi3+0x1e4>
   12f8c:	3c030001 	lui	v1,0x1
   12f90:	00e3182b 	sltu	v1,a3,v1
   12f94:	106000cb 	beqz	v1,132c4 <__umoddi3+0x350>
   12f98:	3c030100 	lui	v1,0x100
   12f9c:	2ce30100 	sltiu	v1,a3,256
   12fa0:	1060016f 	beqz	v1,13560 <__umoddi3+0x5ec>
   12fa4:	00000000 	nop
   12fa8:	00005021 	move	t2,zero
   12fac:	3c030001 	lui	v1,0x1
   12fb0:	00c73006 	srlv	a2,a3,a2
   12fb4:	24634fb0 	addiu	v1,v1,20400
   12fb8:	00c31821 	addu	v1,a2,v1
   12fbc:	90630000 	lbu	v1,0(v1)
   12fc0:	240c0020 	li	t4,32
   12fc4:	006a5021 	addu	t2,v1,t2
   12fc8:	018a6023 	subu	t4,t4,t2
   12fcc:	11800115 	beqz	t4,13424 <__umoddi3+0x4b0>
   12fd0:	01842004 	sllv	a0,a0,t4
   12fd4:	01455006 	srlv	t2,a1,t2
   12fd8:	01874004 	sllv	t0,a3,t4
   12fdc:	008a1025 	or	v0,a0,t2
   12fe0:	01854804 	sllv	t1,a1,t4
   12fe4:	00085402 	srl	t2,t0,0x10
   12fe8:	15400002 	bnez	t2,12ff4 <__umoddi3+0x80>
   12fec:	004a001b 	divu	zero,v0,t2
   12ff0:	0007000d 	break	0x7
   12ff4:	310dffff 	andi	t5,t0,0xffff
   12ff8:	00095c02 	srl	t3,t1,0x10
   12ffc:	00003812 	mflo	a3
   13000:	00001810 	mfhi	v1
   13004:	00031c00 	sll	v1,v1,0x10
   13008:	006b5825 	or	t3,v1,t3
   1300c:	00ed0018 	mult	a3,t5
   13010:	00003812 	mflo	a3
   13014:	0167182b 	sltu	v1,t3,a3
   13018:	00000000 	nop
   1301c:	15400002 	bnez	t2,13028 <__umoddi3+0xb4>
   13020:	004a001b 	divu	zero,v0,t2
   13024:	0007000d 	break	0x7
   13028:	10600009 	beqz	v1,13050 <__umoddi3+0xdc>
   1302c:	01671023 	subu	v0,t3,a3
   13030:	01685821 	addu	t3,t3,t0
   13034:	0168102b 	sltu	v0,t3,t0
   13038:	14400005 	bnez	v0,13050 <__umoddi3+0xdc>
   1303c:	01671023 	subu	v0,t3,a3
   13040:	0167102b 	sltu	v0,t3,a3
   13044:	14400155 	bnez	v0,1359c <__umoddi3+0x628>
   13048:	00000000 	nop
   1304c:	01671023 	subu	v0,t3,a3
   13050:	3129ffff 	andi	t1,t1,0xffff
   13054:	15400002 	bnez	t2,13060 <__umoddi3+0xec>
   13058:	004a001b 	divu	zero,v0,t2
   1305c:	0007000d 	break	0x7
   13060:	00001812 	mflo	v1
   13064:	00002010 	mfhi	a0
   13068:	00042400 	sll	a0,a0,0x10
   1306c:	00892025 	or	a0,a0,t1
   13070:	006d0018 	mult	v1,t5
   13074:	00001812 	mflo	v1
   13078:	0083282b 	sltu	a1,a0,v1
   1307c:	00000000 	nop
   13080:	15400002 	bnez	t2,1308c <__umoddi3+0x118>
   13084:	004a001b 	divu	zero,v0,t2
   13088:	0007000d 	break	0x7
   1308c:	10a00009 	beqz	a1,130b4 <__umoddi3+0x140>
   13090:	00000000 	nop
   13094:	00882021 	addu	a0,a0,t0
   13098:	0088102b 	sltu	v0,a0,t0
   1309c:	14400005 	bnez	v0,130b4 <__umoddi3+0x140>
   130a0:	00000000 	nop
   130a4:	0083102b 	sltu	v0,a0,v1
   130a8:	10400002 	beqz	v0,130b4 <__umoddi3+0x140>
   130ac:	00000000 	nop
   130b0:	00882021 	addu	a0,a0,t0
   130b4:	00831823 	subu	v1,a0,v1
   130b8:	00001021 	move	v0,zero
   130bc:	01831806 	srlv	v1,v1,t4
   130c0:	03e00008 	jr	ra
   130c4:	00000000 	nop
   130c8:	0086182b 	sltu	v1,a0,a2
   130cc:	14600075 	bnez	v1,132a4 <__umoddi3+0x330>
   130d0:	00a01821 	move	v1,a1
   130d4:	3c030001 	lui	v1,0x1
   130d8:	00c3182b 	sltu	v1,a2,v1
   130dc:	14600074 	bnez	v1,132b0 <__umoddi3+0x33c>
   130e0:	2cc30100 	sltiu	v1,a2,256
   130e4:	3c030100 	lui	v1,0x100
   130e8:	00c3182b 	sltu	v1,a2,v1
   130ec:	10600112 	beqz	v1,13538 <__umoddi3+0x5c4>
   130f0:	24090018 	li	t1,24
   130f4:	24090010 	li	t1,16
   130f8:	240a0010 	li	t2,16
   130fc:	3c080001 	lui	t0,0x1
   13100:	01264806 	srlv	t1,a2,t1
   13104:	25084fb0 	addiu	t0,t0,20400
   13108:	01284021 	addu	t0,t1,t0
   1310c:	91030000 	lbu	v1,0(t0)
   13110:	00000000 	nop
   13114:	006a1821 	addu	v1,v1,t2
   13118:	240a0020 	li	t2,32
   1311c:	01435023 	subu	t2,t2,v1
   13120:	15400073 	bnez	t2,132f0 <__umoddi3+0x37c>
   13124:	00646806 	srlv	t5,a0,v1
   13128:	00c4182b 	sltu	v1,a2,a0
   1312c:	14600005 	bnez	v1,13144 <__umoddi3+0x1d0>
   13130:	00a71823 	subu	v1,a1,a3
   13134:	00a7182b 	sltu	v1,a1,a3
   13138:	1460011a 	bnez	v1,135a4 <__umoddi3+0x630>
   1313c:	00000000 	nop
   13140:	00a71823 	subu	v1,a1,a3
   13144:	00862023 	subu	a0,a0,a2
   13148:	00a3282b 	sltu	a1,a1,v1
   1314c:	00851023 	subu	v0,a0,a1
   13150:	03e00008 	jr	ra
   13154:	00000000 	nop
   13158:	14e00007 	bnez	a3,13178 <__umoddi3+0x204>
   1315c:	3c020001 	lui	v0,0x1
   13160:	24020001 	li	v0,1
   13164:	14e00002 	bnez	a3,13170 <__umoddi3+0x1fc>
   13168:	0047001b 	divu	zero,v0,a3
   1316c:	0007000d 	break	0x7
   13170:	00004012 	mflo	t0
   13174:	3c020001 	lui	v0,0x1
   13178:	0102102b 	sltu	v0,t0,v0
   1317c:	14400057 	bnez	v0,132dc <__umoddi3+0x368>
   13180:	2d020100 	sltiu	v0,t0,256
   13184:	3c020100 	lui	v0,0x100
   13188:	0102102b 	sltu	v0,t0,v0
   1318c:	104000f2 	beqz	v0,13558 <__umoddi3+0x5e4>
   13190:	24030018 	li	v1,24
   13194:	24030010 	li	v1,16
   13198:	24060010 	li	a2,16
   1319c:	3c020001 	lui	v0,0x1
   131a0:	00681806 	srlv	v1,t0,v1
   131a4:	24424fb0 	addiu	v0,v0,20400
   131a8:	00621021 	addu	v0,v1,v0
   131ac:	90420000 	lbu	v0,0(v0)
   131b0:	240c0020 	li	t4,32
   131b4:	00463021 	addu	a2,v0,a2
   131b8:	01866023 	subu	t4,t4,a2
   131bc:	1580009b 	bnez	t4,1342c <__umoddi3+0x4b8>
   131c0:	00c45006 	srlv	t2,a0,a2
   131c4:	00883023 	subu	a2,a0,t0
   131c8:	00081402 	srl	v0,t0,0x10
   131cc:	3107ffff 	andi	a3,t0,0xffff
   131d0:	14400002 	bnez	v0,131dc <__umoddi3+0x268>
   131d4:	00c2001b 	divu	zero,a2,v0
   131d8:	0007000d 	break	0x7
   131dc:	00095402 	srl	t2,t1,0x10
   131e0:	00002012 	mflo	a0
   131e4:	00001810 	mfhi	v1
   131e8:	00031c00 	sll	v1,v1,0x10
   131ec:	006a5025 	or	t2,v1,t2
   131f0:	00870018 	mult	a0,a3
   131f4:	00002012 	mflo	a0
   131f8:	0144182b 	sltu	v1,t2,a0
   131fc:	00000000 	nop
   13200:	14400002 	bnez	v0,1320c <__umoddi3+0x298>
   13204:	00c2001b 	divu	zero,a2,v0
   13208:	0007000d 	break	0x7
   1320c:	10600007 	beqz	v1,1322c <__umoddi3+0x2b8>
   13210:	00000000 	nop
   13214:	01485021 	addu	t2,t2,t0
   13218:	0148182b 	sltu	v1,t2,t0
   1321c:	14600003 	bnez	v1,1322c <__umoddi3+0x2b8>
   13220:	0144182b 	sltu	v1,t2,a0
   13224:	146000db 	bnez	v1,13594 <__umoddi3+0x620>
   13228:	00000000 	nop
   1322c:	01442023 	subu	a0,t2,a0
   13230:	3129ffff 	andi	t1,t1,0xffff
   13234:	14400002 	bnez	v0,13240 <__umoddi3+0x2cc>
   13238:	0082001b 	divu	zero,a0,v0
   1323c:	0007000d 	break	0x7
   13240:	00001812 	mflo	v1
   13244:	00002810 	mfhi	a1
   13248:	00052c00 	sll	a1,a1,0x10
   1324c:	00a94825 	or	t1,a1,t1
   13250:	00670018 	mult	v1,a3
   13254:	00001812 	mflo	v1
   13258:	0123282b 	sltu	a1,t1,v1
   1325c:	00000000 	nop
   13260:	14400002 	bnez	v0,1326c <__umoddi3+0x2f8>
   13264:	0082001b 	divu	zero,a0,v0
   13268:	0007000d 	break	0x7
   1326c:	10a00009 	beqz	a1,13294 <__umoddi3+0x320>
   13270:	00000000 	nop
   13274:	01284821 	addu	t1,t1,t0
   13278:	0128102b 	sltu	v0,t1,t0
   1327c:	14400005 	bnez	v0,13294 <__umoddi3+0x320>
   13280:	00000000 	nop
   13284:	0123102b 	sltu	v0,t1,v1
   13288:	10400002 	beqz	v0,13294 <__umoddi3+0x320>
   1328c:	00000000 	nop
   13290:	01284821 	addu	t1,t1,t0
   13294:	01231823 	subu	v1,t1,v1
   13298:	00001021 	move	v0,zero
   1329c:	08004c30 	j	130c0 <__umoddi3+0x14c>
   132a0:	01831806 	srlv	v1,v1,t4
   132a4:	00801021 	move	v0,a0
   132a8:	03e00008 	jr	ra
   132ac:	00000000 	nop
   132b0:	1060009e 	beqz	v1,1352c <__umoddi3+0x5b8>
   132b4:	00000000 	nop
   132b8:	00004821 	move	t1,zero
   132bc:	08004c3f 	j	130fc <__umoddi3+0x188>
   132c0:	00005021 	move	t2,zero
   132c4:	00e3182b 	sltu	v1,a3,v1
   132c8:	1060009d 	beqz	v1,13540 <__umoddi3+0x5cc>
   132cc:	00000000 	nop
   132d0:	24060010 	li	a2,16
   132d4:	08004beb 	j	12fac <__umoddi3+0x38>
   132d8:	240a0010 	li	t2,16
   132dc:	1040009b 	beqz	v0,1354c <__umoddi3+0x5d8>
   132e0:	00000000 	nop
   132e4:	00001821 	move	v1,zero
   132e8:	08004c67 	j	1319c <__umoddi3+0x228>
   132ec:	00003021 	move	a2,zero
   132f0:	00671006 	srlv	v0,a3,v1
   132f4:	01463004 	sllv	a2,a2,t2
   132f8:	00c23025 	or	a2,a2,v0
   132fc:	00064c02 	srl	t1,a2,0x10
   13300:	15200002 	bnez	t1,1330c <__umoddi3+0x398>
   13304:	01a9001b 	divu	zero,t5,t1
   13308:	0007000d 	break	0x7
   1330c:	30c2ffff 	andi	v0,a2,0xffff
   13310:	00655806 	srlv	t3,a1,v1
   13314:	01442004 	sllv	a0,a0,t2
   13318:	008b2025 	or	a0,a0,t3
   1331c:	00047c02 	srl	t7,a0,0x10
   13320:	01473804 	sllv	a3,a3,t2
   13324:	00007012 	mflo	t6
   13328:	00006010 	mfhi	t4
   1332c:	000c6400 	sll	t4,t4,0x10
   13330:	018f6025 	or	t4,t4,t7
   13334:	01c20018 	mult	t6,v0
   13338:	00005812 	mflo	t3
   1333c:	018b402b 	sltu	t0,t4,t3
   13340:	00000000 	nop
   13344:	15200002 	bnez	t1,13350 <__umoddi3+0x3dc>
   13348:	01a9001b 	divu	zero,t5,t1
   1334c:	0007000d 	break	0x7
   13350:	11000006 	beqz	t0,1336c <__umoddi3+0x3f8>
   13354:	01452804 	sllv	a1,a1,t2
   13358:	01866021 	addu	t4,t4,a2
   1335c:	0186402b 	sltu	t0,t4,a2
   13360:	11000087 	beqz	t0,13580 <__umoddi3+0x60c>
   13364:	25cdffff 	addiu	t5,t6,-1
   13368:	01a07021 	move	t6,t5
   1336c:	018b5823 	subu	t3,t4,t3
   13370:	3084ffff 	andi	a0,a0,0xffff
   13374:	15200002 	bnez	t1,13380 <__umoddi3+0x40c>
   13378:	0169001b 	divu	zero,t3,t1
   1337c:	0007000d 	break	0x7
   13380:	00004012 	mflo	t0
   13384:	00006810 	mfhi	t5
	...
   13390:	01020018 	mult	t0,v0
   13394:	000d1400 	sll	v0,t5,0x10
   13398:	00442025 	or	a0,v0,a0
   1339c:	00006012 	mflo	t4
   133a0:	008c102b 	sltu	v0,a0,t4
   133a4:	00000000 	nop
   133a8:	15200002 	bnez	t1,133b4 <__umoddi3+0x440>
   133ac:	0169001b 	divu	zero,t3,t1
   133b0:	0007000d 	break	0x7
   133b4:	10400006 	beqz	v0,133d0 <__umoddi3+0x45c>
   133b8:	00000000 	nop
   133bc:	00862021 	addu	a0,a0,a2
   133c0:	0086102b 	sltu	v0,a0,a2
   133c4:	10400069 	beqz	v0,1356c <__umoddi3+0x5f8>
   133c8:	2509ffff 	addiu	t1,t0,-1
   133cc:	01204021 	move	t0,t1
   133d0:	000e7400 	sll	t6,t6,0x10
   133d4:	010e4025 	or	t0,t0,t6
   133d8:	008c2023 	subu	a0,a0,t4
   133dc:	01070019 	multu	t0,a3
   133e0:	00004010 	mfhi	t0
   133e4:	0088102b 	sltu	v0,a0,t0
   133e8:	00004812 	mflo	t1
   133ec:	14400049 	bnez	v0,13514 <__umoddi3+0x5a0>
   133f0:	00000000 	nop
   133f4:	1088006e 	beq	a0,t0,135b0 <__umoddi3+0x63c>
   133f8:	00881023 	subu	v0,a0,t0
   133fc:	00003812 	mflo	a3
   13400:	00a73823 	subu	a3,a1,a3
   13404:	00a7282b 	sltu	a1,a1,a3
   13408:	00451023 	subu	v0,v0,a1
   1340c:	00621804 	sllv	v1,v0,v1
   13410:	01473806 	srlv	a3,a3,t2
   13414:	01421006 	srlv	v0,v0,t2
   13418:	00671825 	or	v1,v1,a3
   1341c:	03e00008 	jr	ra
   13420:	00000000 	nop
   13424:	08004bf9 	j	12fe4 <__umoddi3+0x70>
   13428:	00006021 	move	t4,zero
   1342c:	01884004 	sllv	t0,t0,t4
   13430:	00081402 	srl	v0,t0,0x10
   13434:	14400002 	bnez	v0,13440 <__umoddi3+0x4cc>
   13438:	0142001b 	divu	zero,t2,v0
   1343c:	0007000d 	break	0x7
   13440:	3107ffff 	andi	a3,t0,0xffff
   13444:	00c53006 	srlv	a2,a1,a2
   13448:	01842004 	sllv	a0,a0,t4
   1344c:	00863025 	or	a2,a0,a2
   13450:	00061c02 	srl	v1,a2,0x10
   13454:	01854804 	sllv	t1,a1,t4
   13458:	00006812 	mflo	t5
   1345c:	00005810 	mfhi	t3
   13460:	000b5c00 	sll	t3,t3,0x10
   13464:	01635825 	or	t3,t3,v1
   13468:	01a70018 	mult	t5,a3
   1346c:	00002812 	mflo	a1
   13470:	0165182b 	sltu	v1,t3,a1
   13474:	00000000 	nop
   13478:	14400002 	bnez	v0,13484 <__umoddi3+0x510>
   1347c:	0142001b 	divu	zero,t2,v0
   13480:	0007000d 	break	0x7
   13484:	10600008 	beqz	v1,134a8 <__umoddi3+0x534>
   13488:	00000000 	nop
   1348c:	01685821 	addu	t3,t3,t0
   13490:	0168182b 	sltu	v1,t3,t0
   13494:	14600004 	bnez	v1,134a8 <__umoddi3+0x534>
   13498:	0165182b 	sltu	v1,t3,a1
   1349c:	10600002 	beqz	v1,134a8 <__umoddi3+0x534>
   134a0:	00000000 	nop
   134a4:	01685821 	addu	t3,t3,t0
   134a8:	01652823 	subu	a1,t3,a1
   134ac:	30c3ffff 	andi	v1,a2,0xffff
   134b0:	14400002 	bnez	v0,134bc <__umoddi3+0x548>
   134b4:	00a2001b 	divu	zero,a1,v0
   134b8:	0007000d 	break	0x7
   134bc:	00003012 	mflo	a2
   134c0:	00005010 	mfhi	t2
   134c4:	000a5400 	sll	t2,t2,0x10
   134c8:	01435025 	or	t2,t2,v1
   134cc:	00c70018 	mult	a2,a3
   134d0:	00003012 	mflo	a2
   134d4:	0146182b 	sltu	v1,t2,a2
   134d8:	00000000 	nop
   134dc:	14400002 	bnez	v0,134e8 <__umoddi3+0x574>
   134e0:	00a2001b 	divu	zero,a1,v0
   134e4:	0007000d 	break	0x7
   134e8:	10600008 	beqz	v1,1350c <__umoddi3+0x598>
   134ec:	00000000 	nop
   134f0:	01485021 	addu	t2,t2,t0
   134f4:	0148182b 	sltu	v1,t2,t0
   134f8:	14600004 	bnez	v1,1350c <__umoddi3+0x598>
   134fc:	0146182b 	sltu	v1,t2,a2
   13500:	10600002 	beqz	v1,1350c <__umoddi3+0x598>
   13504:	00000000 	nop
   13508:	01485021 	addu	t2,t2,t0
   1350c:	08004c74 	j	131d0 <__umoddi3+0x25c>
   13510:	01463023 	subu	a2,t2,a2
   13514:	01273823 	subu	a3,t1,a3
   13518:	01063023 	subu	a2,t0,a2
   1351c:	0127102b 	sltu	v0,t1,a3
   13520:	00c21023 	subu	v0,a2,v0
   13524:	08004d00 	j	13400 <__umoddi3+0x48c>
   13528:	00821023 	subu	v0,a0,v0
   1352c:	24090008 	li	t1,8
   13530:	08004c3f 	j	130fc <__umoddi3+0x188>
   13534:	240a0008 	li	t2,8
   13538:	08004c3f 	j	130fc <__umoddi3+0x188>
   1353c:	240a0018 	li	t2,24
   13540:	24060018 	li	a2,24
   13544:	08004beb 	j	12fac <__umoddi3+0x38>
   13548:	240a0018 	li	t2,24
   1354c:	24030008 	li	v1,8
   13550:	08004c67 	j	1319c <__umoddi3+0x228>
   13554:	24060008 	li	a2,8
   13558:	08004c67 	j	1319c <__umoddi3+0x228>
   1355c:	24060018 	li	a2,24
   13560:	24060008 	li	a2,8
   13564:	08004beb 	j	12fac <__umoddi3+0x38>
   13568:	240a0008 	li	t2,8
   1356c:	008c102b 	sltu	v0,a0,t4
   13570:	1040ff96 	beqz	v0,133cc <__umoddi3+0x458>
   13574:	2508fffe 	addiu	t0,t0,-2
   13578:	08004cf4 	j	133d0 <__umoddi3+0x45c>
   1357c:	00862021 	addu	a0,a0,a2
   13580:	018b402b 	sltu	t0,t4,t3
   13584:	1100ff78 	beqz	t0,13368 <__umoddi3+0x3f4>
   13588:	25cefffe 	addiu	t6,t6,-2
   1358c:	08004cdb 	j	1336c <__umoddi3+0x3f8>
   13590:	01866021 	addu	t4,t4,a2
   13594:	08004c8b 	j	1322c <__umoddi3+0x2b8>
   13598:	01485021 	addu	t2,t2,t0
   1359c:	08004c13 	j	1304c <__umoddi3+0xd8>
   135a0:	01685821 	addu	t3,t3,t0
   135a4:	00a01821 	move	v1,a1
   135a8:	03e00008 	jr	ra
   135ac:	00000000 	nop
   135b0:	00a9102b 	sltu	v0,a1,t1
   135b4:	1440ffd7 	bnez	v0,13514 <__umoddi3+0x5a0>
   135b8:	00000000 	nop
   135bc:	00003812 	mflo	a3
   135c0:	08004d00 	j	13400 <__umoddi3+0x48c>
   135c4:	00001021 	move	v0,zero

000135c8 <_fpadd_parts>:
   135c8:	8c870000 	lw	a3,0(a0)
   135cc:	00000000 	nop
   135d0:	2ce20002 	sltiu	v0,a3,2
   135d4:	1440008c 	bnez	v0,13808 <_fpadd_parts+0x240>
   135d8:	00000000 	nop
   135dc:	8ca30000 	lw	v1,0(a1)
   135e0:	00000000 	nop
   135e4:	2c620002 	sltiu	v0,v1,2
   135e8:	144000ae 	bnez	v0,138a4 <_fpadd_parts+0x2dc>
   135ec:	00a01021 	move	v0,a1
   135f0:	24020004 	li	v0,4
   135f4:	10e200e1 	beq	a3,v0,1397c <_fpadd_parts+0x3b4>
   135f8:	00000000 	nop
   135fc:	106200a9 	beq	v1,v0,138a4 <_fpadd_parts+0x2dc>
   13600:	00a01021 	move	v0,a1
   13604:	24020002 	li	v0,2
   13608:	1062007d 	beq	v1,v0,13800 <_fpadd_parts+0x238>
   1360c:	00000000 	nop
   13610:	10e200a4 	beq	a3,v0,138a4 <_fpadd_parts+0x2dc>
   13614:	00a01021 	move	v0,a1
   13618:	8c880008 	lw	t0,8(a0)
   1361c:	8caa0008 	lw	t2,8(a1)
   13620:	8c8d0010 	lw	t5,16(a0)
   13624:	010a1023 	subu	v0,t0,t2
   13628:	8c8c0014 	lw	t4,20(a0)
   1362c:	8cab0010 	lw	t3,16(a1)
   13630:	8ca70014 	lw	a3,20(a1)
   13634:	04400079 	bltz	v0,1381c <_fpadd_parts+0x254>
   13638:	00404821 	move	t1,v0
   1363c:	29230040 	slti	v1,t1,64
   13640:	10600022 	beqz	v1,136cc <_fpadd_parts+0x104>
   13644:	00000000 	nop
   13648:	184000a9 	blez	v0,138f0 <_fpadd_parts+0x328>
   1364c:	00000000 	nop
   13650:	31220020 	andi	v0,t1,0x20
   13654:	10400077 	beqz	v0,13834 <_fpadd_parts+0x26c>
   13658:	00091827 	nor	v1,zero,t1
   1365c:	240a0001 	li	t2,1
   13660:	012b1806 	srlv	v1,t3,t1
   13664:	012a5004 	sllv	t2,t2,t1
   13668:	00007021 	move	t6,zero
   1366c:	00004821 	move	t1,zero
   13670:	2522ffff 	addiu	v0,t1,-1
   13674:	0049482b 	sltu	t1,v0,t1
   13678:	254affff 	addiu	t2,t2,-1
   1367c:	012a4821 	addu	t1,t1,t2
   13680:	012b5824 	and	t3,t1,t3
   13684:	00471024 	and	v0,v0,a3
   13688:	01623825 	or	a3,t3,v0
   1368c:	0007382b 	sltu	a3,zero,a3
   13690:	00e33825 	or	a3,a3,v1
   13694:	8c820004 	lw	v0,4(a0)
   13698:	8ca30004 	lw	v1,4(a1)
   1369c:	00000000 	nop
   136a0:	14430015 	bne	v0,v1,136f8 <_fpadd_parts+0x130>
   136a4:	01c05821 	move	t3,t6
   136a8:	00ec1821 	addu	v1,a3,t4
   136ac:	0067282b 	sltu	a1,v1,a3
   136b0:	016d5821 	addu	t3,t3,t5
   136b4:	00ab2821 	addu	a1,a1,t3
   136b8:	acc20004 	sw	v0,4(a2)
   136bc:	acc80008 	sw	t0,8(a2)
   136c0:	acc50010 	sw	a1,16(a2)
   136c4:	08004dee 	j	137b8 <_fpadd_parts+0x1f0>
   136c8:	acc30014 	sw	v1,20(a2)
   136cc:	0148102a 	slt	v0,t2,t0
   136d0:	1440004f 	bnez	v0,13810 <_fpadd_parts+0x248>
   136d4:	00000000 	nop
   136d8:	01404021 	move	t0,t2
   136dc:	00006821 	move	t5,zero
   136e0:	00006021 	move	t4,zero
   136e4:	8c820004 	lw	v0,4(a0)
   136e8:	8ca30004 	lw	v1,4(a1)
   136ec:	00000000 	nop
   136f0:	1043ffee 	beq	v0,v1,136ac <_fpadd_parts+0xe4>
   136f4:	00ec1821 	addu	v1,a3,t4
   136f8:	1040005b 	beqz	v0,13868 <_fpadd_parts+0x2a0>
   136fc:	01871823 	subu	v1,t4,a3
   13700:	00ec1823 	subu	v1,a3,t4
   13704:	00e3382b 	sltu	a3,a3,v1
   13708:	016d2823 	subu	a1,t3,t5
   1370c:	00a72823 	subu	a1,a1,a3
   13710:	04a0005a 	bltz	a1,1387c <_fpadd_parts+0x2b4>
   13714:	00000000 	nop
   13718:	acc00004 	sw	zero,4(a2)
   1371c:	acc80008 	sw	t0,8(a2)
   13720:	acc50010 	sw	a1,16(a2)
   13724:	acc30014 	sw	v1,20(a2)
   13728:	2467ffff 	addiu	a3,v1,-1
   1372c:	00e3202b 	sltu	a0,a3,v1
   13730:	24a2ffff 	addiu	v0,a1,-1
   13734:	00821021 	addu	v0,a0,v0
   13738:	3c041000 	lui	a0,0x1000
   1373c:	0044402b 	sltu	t0,v0,a0
   13740:	1100001d 	beqz	t0,137b8 <_fpadd_parts+0x1f0>
   13744:	2484ffff 	addiu	a0,a0,-1
   13748:	1044007d 	beq	v0,a0,13940 <_fpadd_parts+0x378>
   1374c:	00000000 	nop
   13750:	8cc80008 	lw	t0,8(a2)
   13754:	3c021000 	lui	v0,0x1000
   13758:	2508ffff 	addiu	t0,t0,-1
   1375c:	00a03821 	move	a3,a1
   13760:	08004ddc 	j	13770 <_fpadd_parts+0x1a8>
   13764:	244dffff 	addiu	t5,v0,-1
   13768:	112d003b 	beq	t1,t5,13858 <_fpadd_parts+0x290>
   1376c:	2d6bffff 	sltiu	t3,t3,-1
   13770:	00034fc2 	srl	t1,v1,0x1f
   13774:	00035040 	sll	t2,v1,0x1
   13778:	00072840 	sll	a1,a3,0x1
   1377c:	01252825 	or	a1,t1,a1
   13780:	254bffff 	addiu	t3,t2,-1
   13784:	016a602b 	sltu	t4,t3,t2
   13788:	24a9ffff 	addiu	t1,a1,-1
   1378c:	01894821 	addu	t1,t4,t1
   13790:	0122602b 	sltu	t4,t1,v0
   13794:	01002021 	move	a0,t0
   13798:	01401821 	move	v1,t2
   1379c:	00a03821 	move	a3,a1
   137a0:	1580fff1 	bnez	t4,13768 <_fpadd_parts+0x1a0>
   137a4:	2508ffff 	addiu	t0,t0,-1
   137a8:	acc50010 	sw	a1,16(a2)
   137ac:	acca0014 	sw	t2,20(a2)
   137b0:	acc40008 	sw	a0,8(a2)
   137b4:	01401821 	move	v1,t2
   137b8:	3c022000 	lui	v0,0x2000
   137bc:	24040003 	li	a0,3
   137c0:	00a2102b 	sltu	v0,a1,v0
   137c4:	1440000c 	bnez	v0,137f8 <_fpadd_parts+0x230>
   137c8:	acc40000 	sw	a0,0(a2)
   137cc:	8cc40008 	lw	a0,8(a2)
   137d0:	00053fc0 	sll	a3,a1,0x1f
   137d4:	00031042 	srl	v0,v1,0x1
   137d8:	00e21025 	or	v0,a3,v0
   137dc:	30630001 	andi	v1,v1,0x1
   137e0:	00052842 	srl	a1,a1,0x1
   137e4:	00621025 	or	v0,v1,v0
   137e8:	24840001 	addiu	a0,a0,1
   137ec:	acc50010 	sw	a1,16(a2)
   137f0:	acc20014 	sw	v0,20(a2)
   137f4:	acc40008 	sw	a0,8(a2)
   137f8:	03e00008 	jr	ra
   137fc:	00c01021 	move	v0,a2
   13800:	10e3002a 	beq	a3,v1,138ac <_fpadd_parts+0x2e4>
   13804:	00000000 	nop
   13808:	03e00008 	jr	ra
   1380c:	00801021 	move	v0,a0
   13810:	00005821 	move	t3,zero
   13814:	08004db9 	j	136e4 <_fpadd_parts+0x11c>
   13818:	00003821 	move	a3,zero
   1381c:	00024823 	negu	t1,v0
   13820:	29230040 	slti	v1,t1,64
   13824:	1060ffa9 	beqz	v1,136cc <_fpadd_parts+0x104>
   13828:	00000000 	nop
   1382c:	08004d92 	j	13648 <_fpadd_parts+0x80>
   13830:	00000000 	nop
   13834:	000b1040 	sll	v0,t3,0x1
   13838:	00621004 	sllv	v0,v0,v1
   1383c:	01271806 	srlv	v1,a3,t1
   13840:	00431825 	or	v1,v0,v1
   13844:	24020001 	li	v0,1
   13848:	012b7006 	srlv	t6,t3,t1
   1384c:	00005021 	move	t2,zero
   13850:	08004d9c 	j	13670 <_fpadd_parts+0xa8>
   13854:	01224804 	sllv	t1,v0,t1
   13858:	1560ffc5 	bnez	t3,13770 <_fpadd_parts+0x1a8>
   1385c:	00000000 	nop
   13860:	08004deb 	j	137ac <_fpadd_parts+0x1e4>
   13864:	acc50010 	sw	a1,16(a2)
   13868:	0183602b 	sltu	t4,t4,v1
   1386c:	01ab2823 	subu	a1,t5,t3
   13870:	00ac2823 	subu	a1,a1,t4
   13874:	04a1ffa8 	bgez	a1,13718 <_fpadd_parts+0x150>
   13878:	00000000 	nop
   1387c:	00031823 	negu	v1,v1
   13880:	0003102b 	sltu	v0,zero,v1
   13884:	00052823 	negu	a1,a1
   13888:	00a22823 	subu	a1,a1,v0
   1388c:	24020001 	li	v0,1
   13890:	acc20004 	sw	v0,4(a2)
   13894:	acc80008 	sw	t0,8(a2)
   13898:	acc50010 	sw	a1,16(a2)
   1389c:	08004dca 	j	13728 <_fpadd_parts+0x160>
   138a0:	acc30014 	sw	v1,20(a2)
   138a4:	03e00008 	jr	ra
   138a8:	00000000 	nop
   138ac:	8c820004 	lw	v0,4(a0)
   138b0:	8c8a0008 	lw	t2,8(a0)
   138b4:	8c89000c 	lw	t1,12(a0)
   138b8:	8c880010 	lw	t0,16(a0)
   138bc:	8c830014 	lw	v1,20(a0)
   138c0:	acc20004 	sw	v0,4(a2)
   138c4:	acc70000 	sw	a3,0(a2)
   138c8:	8ca50004 	lw	a1,4(a1)
   138cc:	8c820004 	lw	v0,4(a0)
   138d0:	acca0008 	sw	t2,8(a2)
   138d4:	00a21024 	and	v0,a1,v0
   138d8:	acc20004 	sw	v0,4(a2)
   138dc:	acc9000c 	sw	t1,12(a2)
   138e0:	acc80010 	sw	t0,16(a2)
   138e4:	acc30014 	sw	v1,20(a2)
   138e8:	03e00008 	jr	ra
   138ec:	00c01021 	move	v0,a2
   138f0:	1040ff7c 	beqz	v0,136e4 <_fpadd_parts+0x11c>
   138f4:	31220020 	andi	v0,t1,0x20
   138f8:	10400016 	beqz	v0,13954 <_fpadd_parts+0x38c>
   138fc:	01094021 	addu	t0,t0,t1
   13900:	240e0001 	li	t6,1
   13904:	012d1006 	srlv	v0,t5,t1
   13908:	012e7004 	sllv	t6,t6,t1
   1390c:	00005021 	move	t2,zero
   13910:	00004821 	move	t1,zero
   13914:	2523ffff 	addiu	v1,t1,-1
   13918:	0069482b 	sltu	t1,v1,t1
   1391c:	25ceffff 	addiu	t6,t6,-1
   13920:	012e4821 	addu	t1,t1,t6
   13924:	012d6824 	and	t5,t1,t5
   13928:	006c1824 	and	v1,v1,t4
   1392c:	01a36025 	or	t4,t5,v1
   13930:	000c602b 	sltu	t4,zero,t4
   13934:	01406821 	move	t5,t2
   13938:	08004db9 	j	136e4 <_fpadd_parts+0x11c>
   1393c:	01826025 	or	t4,t4,v0
   13940:	2ce7ffff 	sltiu	a3,a3,-1
   13944:	14e0ff82 	bnez	a3,13750 <_fpadd_parts+0x188>
   13948:	00000000 	nop
   1394c:	08004def 	j	137bc <_fpadd_parts+0x1f4>
   13950:	3c022000 	lui	v0,0x2000
   13954:	00091027 	nor	v0,zero,t1
   13958:	000d1840 	sll	v1,t5,0x1
   1395c:	00431804 	sllv	v1,v1,v0
   13960:	012c1006 	srlv	v0,t4,t1
   13964:	00621025 	or	v0,v1,v0
   13968:	24030001 	li	v1,1
   1396c:	012d5006 	srlv	t2,t5,t1
   13970:	00007021 	move	t6,zero
   13974:	08004e45 	j	13914 <_fpadd_parts+0x34c>
   13978:	01234804 	sllv	t1,v1,t1
   1397c:	1467ffc9 	bne	v1,a3,138a4 <_fpadd_parts+0x2dc>
   13980:	00801021 	move	v0,a0
   13984:	8c840004 	lw	a0,4(a0)
   13988:	8ca30004 	lw	v1,4(a1)
   1398c:	00000000 	nop
   13990:	1083ffc4 	beq	a0,v1,138a4 <_fpadd_parts+0x2dc>
   13994:	00000000 	nop
   13998:	3c020001 	lui	v0,0x1
   1399c:	03e00008 	jr	ra
   139a0:	24424f98 	addiu	v0,v0,20376

000139a4 <__adddf3>:
   139a4:	27bdff90 	addiu	sp,sp,-112
   139a8:	afa50064 	sw	a1,100(sp)
   139ac:	afa40060 	sw	a0,96(sp)
   139b0:	27a50040 	addiu	a1,sp,64
   139b4:	27a40060 	addiu	a0,sp,96
   139b8:	afbf006c 	sw	ra,108(sp)
   139bc:	afa7005c 	sw	a3,92(sp)
   139c0:	0c0051e5 	jal	14794 <__unpack_d>
   139c4:	afa60058 	sw	a2,88(sp)
   139c8:	27a50028 	addiu	a1,sp,40
   139cc:	0c0051e5 	jal	14794 <__unpack_d>
   139d0:	27a40058 	addiu	a0,sp,88
   139d4:	27a40040 	addiu	a0,sp,64
   139d8:	27a50028 	addiu	a1,sp,40
   139dc:	0c004d72 	jal	135c8 <_fpadd_parts>
   139e0:	27a60010 	addiu	a2,sp,16
   139e4:	0c005157 	jal	1455c <__pack_d>
   139e8:	00402021 	move	a0,v0
   139ec:	8fbf006c 	lw	ra,108(sp)
   139f0:	00000000 	nop
   139f4:	03e00008 	jr	ra
   139f8:	27bd0070 	addiu	sp,sp,112

000139fc <__subdf3>:
   139fc:	27bdff90 	addiu	sp,sp,-112
   13a00:	afa50064 	sw	a1,100(sp)
   13a04:	afa40060 	sw	a0,96(sp)
   13a08:	27a50040 	addiu	a1,sp,64
   13a0c:	27a40060 	addiu	a0,sp,96
   13a10:	afbf006c 	sw	ra,108(sp)
   13a14:	afa7005c 	sw	a3,92(sp)
   13a18:	0c0051e5 	jal	14794 <__unpack_d>
   13a1c:	afa60058 	sw	a2,88(sp)
   13a20:	27a50028 	addiu	a1,sp,40
   13a24:	0c0051e5 	jal	14794 <__unpack_d>
   13a28:	27a40058 	addiu	a0,sp,88
   13a2c:	8fa2002c 	lw	v0,44(sp)
   13a30:	27a40040 	addiu	a0,sp,64
   13a34:	27a50028 	addiu	a1,sp,40
   13a38:	27a60010 	addiu	a2,sp,16
   13a3c:	38420001 	xori	v0,v0,0x1
   13a40:	0c004d72 	jal	135c8 <_fpadd_parts>
   13a44:	afa2002c 	sw	v0,44(sp)
   13a48:	0c005157 	jal	1455c <__pack_d>
   13a4c:	00402021 	move	a0,v0
   13a50:	8fbf006c 	lw	ra,108(sp)
   13a54:	00000000 	nop
   13a58:	03e00008 	jr	ra
   13a5c:	27bd0070 	addiu	sp,sp,112

00013a60 <__muldf3>:
   13a60:	27bdff90 	addiu	sp,sp,-112
   13a64:	afa50064 	sw	a1,100(sp)
   13a68:	afa40060 	sw	a0,96(sp)
   13a6c:	27a50040 	addiu	a1,sp,64
   13a70:	27a40060 	addiu	a0,sp,96
   13a74:	afbf006c 	sw	ra,108(sp)
   13a78:	afa7005c 	sw	a3,92(sp)
   13a7c:	0c0051e5 	jal	14794 <__unpack_d>
   13a80:	afa60058 	sw	a2,88(sp)
   13a84:	27a40058 	addiu	a0,sp,88
   13a88:	0c0051e5 	jal	14794 <__unpack_d>
   13a8c:	27a50028 	addiu	a1,sp,40
   13a90:	8fa20040 	lw	v0,64(sp)
   13a94:	00000000 	nop
   13a98:	2c430002 	sltiu	v1,v0,2
   13a9c:	1060000d 	beqz	v1,13ad4 <__muldf3+0x74>
   13aa0:	00000000 	nop
   13aa4:	8fa30044 	lw	v1,68(sp)
   13aa8:	8fa2002c 	lw	v0,44(sp)
   13aac:	27a40040 	addiu	a0,sp,64
   13ab0:	00621026 	xor	v0,v1,v0
   13ab4:	0002102b 	sltu	v0,zero,v0
   13ab8:	afa20044 	sw	v0,68(sp)
   13abc:	0c005157 	jal	1455c <__pack_d>
   13ac0:	00000000 	nop
   13ac4:	8fbf006c 	lw	ra,108(sp)
   13ac8:	00000000 	nop
   13acc:	03e00008 	jr	ra
   13ad0:	27bd0070 	addiu	sp,sp,112
   13ad4:	8fa30028 	lw	v1,40(sp)
   13ad8:	00000000 	nop
   13adc:	2c640002 	sltiu	a0,v1,2
   13ae0:	1080000c 	beqz	a0,13b14 <__muldf3+0xb4>
   13ae4:	24040004 	li	a0,4
   13ae8:	8fa2002c 	lw	v0,44(sp)
   13aec:	8fa30044 	lw	v1,68(sp)
   13af0:	27a40028 	addiu	a0,sp,40
   13af4:	00621026 	xor	v0,v1,v0
   13af8:	0002102b 	sltu	v0,zero,v0
   13afc:	0c005157 	jal	1455c <__pack_d>
   13b00:	afa2002c 	sw	v0,44(sp)
   13b04:	8fbf006c 	lw	ra,108(sp)
   13b08:	00000000 	nop
   13b0c:	03e00008 	jr	ra
   13b10:	27bd0070 	addiu	sp,sp,112
   13b14:	14440006 	bne	v0,a0,13b30 <__muldf3+0xd0>
   13b18:	00000000 	nop
   13b1c:	24020002 	li	v0,2
   13b20:	1462ffe0 	bne	v1,v0,13aa4 <__muldf3+0x44>
   13b24:	3c040001 	lui	a0,0x1
   13b28:	08004eaf 	j	13abc <__muldf3+0x5c>
   13b2c:	24844f98 	addiu	a0,a0,20376
   13b30:	14640006 	bne	v1,a0,13b4c <__muldf3+0xec>
   13b34:	00000000 	nop
   13b38:	24030002 	li	v1,2
   13b3c:	1443ffea 	bne	v0,v1,13ae8 <__muldf3+0x88>
   13b40:	3c040001 	lui	a0,0x1
   13b44:	08004eaf 	j	13abc <__muldf3+0x5c>
   13b48:	24844f98 	addiu	a0,a0,20376
   13b4c:	24040002 	li	a0,2
   13b50:	1044ffd4 	beq	v0,a0,13aa4 <__muldf3+0x44>
   13b54:	00000000 	nop
   13b58:	1064ffe3 	beq	v1,a0,13ae8 <__muldf3+0x88>
   13b5c:	00000000 	nop
   13b60:	8fa50054 	lw	a1,84(sp)
   13b64:	8fab0038 	lw	t3,56(sp)
   13b68:	8fa4003c 	lw	a0,60(sp)
   13b6c:	00ab0019 	multu	a1,t3
   13b70:	8faa0050 	lw	t2,80(sp)
   13b74:	00001010 	mfhi	v0
   13b78:	00001812 	mflo	v1
	...
   13b84:	008a0019 	multu	a0,t2
   13b88:	00003812 	mflo	a3
   13b8c:	00e34021 	addu	t0,a3,v1
   13b90:	0107482b 	sltu	t1,t0,a3
   13b94:	00003010 	mfhi	a2
   13b98:	00c23021 	addu	a2,a2,v0
   13b9c:	01264821 	addu	t1,t1,a2
   13ba0:	00a40019 	multu	a1,a0
   13ba4:	0122602b 	sltu	t4,t1,v0
   13ba8:	00002812 	mflo	a1
   13bac:	00002010 	mfhi	a0
	...
   13bb8:	016a0019 	multu	t3,t2
   13bbc:	00003812 	mflo	a3
   13bc0:	00003010 	mfhi	a2
   13bc4:	15800054 	bnez	t4,13d18 <__muldf3+0x2b8>
   13bc8:	240a0001 	li	t2,1
   13bcc:	15220005 	bne	t1,v0,13be4 <__muldf3+0x184>
   13bd0:	00005021 	move	t2,zero
   13bd4:	0103102b 	sltu	v0,t0,v1
   13bd8:	1440004f 	bnez	v0,13d18 <__muldf3+0x2b8>
   13bdc:	240a0001 	li	t2,1
   13be0:	00005021 	move	t2,zero
   13be4:	00001021 	move	v0,zero
   13be8:	01044021 	addu	t0,t0,a0
   13bec:	0104182b 	sltu	v1,t0,a0
   13bf0:	10600002 	beqz	v1,13bfc <__muldf3+0x19c>
   13bf4:	00a02021 	move	a0,a1
   13bf8:	24020001 	li	v0,1
   13bfc:	01271821 	addu	v1,t1,a3
   13c00:	0069482b 	sltu	t1,v1,t1
   13c04:	01263021 	addu	a2,t1,a2
   13c08:	8fa70048 	lw	a3,72(sp)
   13c0c:	00621021 	addu	v0,v1,v0
   13c10:	8fa50030 	lw	a1,48(sp)
   13c14:	00ca3021 	addu	a2,a2,t2
   13c18:	0043182b 	sltu	v1,v0,v1
   13c1c:	00e52821 	addu	a1,a3,a1
   13c20:	00661821 	addu	v1,v1,a2
   13c24:	8fa70044 	lw	a3,68(sp)
   13c28:	8fa6002c 	lw	a2,44(sp)
   13c2c:	24a90004 	addiu	t1,a1,4
   13c30:	00e63826 	xor	a3,a3,a2
   13c34:	3c062000 	lui	a2,0x2000
   13c38:	0007382b 	sltu	a3,zero,a3
   13c3c:	0066302b 	sltu	a2,v1,a2
   13c40:	afa90018 	sw	t1,24(sp)
   13c44:	afa70014 	sw	a3,20(sp)
   13c48:	14c00013 	bnez	a2,13c98 <__muldf3+0x238>
   13c4c:	24a50005 	addiu	a1,a1,5
   13c50:	3c0f8000 	lui	t7,0x8000
   13c54:	3c0e2000 	lui	t6,0x2000
   13c58:	00033fc0 	sll	a3,v1,0x1f
   13c5c:	30490001 	andi	t1,v0,0x1
   13c60:	00031842 	srl	v1,v1,0x1
   13c64:	00021042 	srl	v0,v0,0x1
   13c68:	006e302b 	sltu	a2,v1,t6
   13c6c:	00085fc0 	sll	t3,t0,0x1f
   13c70:	00045042 	srl	t2,a0,0x1
   13c74:	00086042 	srl	t4,t0,0x1
   13c78:	11200003 	beqz	t1,13c88 <__muldf3+0x228>
   13c7c:	00a06821 	move	t5,a1
   13c80:	018f4025 	or	t0,t4,t7
   13c84:	016a2025 	or	a0,t3,t2
   13c88:	00e21025 	or	v0,a3,v0
   13c8c:	10c0fff2 	beqz	a2,13c58 <__muldf3+0x1f8>
   13c90:	24a50001 	addiu	a1,a1,1
   13c94:	afad0018 	sw	t5,24(sp)
   13c98:	3c051000 	lui	a1,0x1000
   13c9c:	0065282b 	sltu	a1,v1,a1
   13ca0:	10a00014 	beqz	a1,13cf4 <__muldf3+0x294>
   13ca4:	304600ff 	andi	a2,v0,0xff
   13ca8:	8fa50018 	lw	a1,24(sp)
   13cac:	3c0b1000 	lui	t3,0x1000
   13cb0:	24a5ffff 	addiu	a1,a1,-1
   13cb4:	000237c2 	srl	a2,v0,0x1f
   13cb8:	00031840 	sll	v1,v1,0x1
   13cbc:	00c31825 	or	v1,a2,v1
   13cc0:	00044fc2 	srl	t1,a0,0x1f
   13cc4:	00083840 	sll	a3,t0,0x1
   13cc8:	006b302b 	sltu	a2,v1,t3
   13ccc:	00a05021 	move	t2,a1
   13cd0:	05010002 	bgez	t0,13cdc <__muldf3+0x27c>
   13cd4:	00021040 	sll	v0,v0,0x1
   13cd8:	34420001 	ori	v0,v0,0x1
   13cdc:	01274025 	or	t0,t1,a3
   13ce0:	00042040 	sll	a0,a0,0x1
   13ce4:	14c0fff3 	bnez	a2,13cb4 <__muldf3+0x254>
   13ce8:	24a5ffff 	addiu	a1,a1,-1
   13cec:	afaa0018 	sw	t2,24(sp)
   13cf0:	304600ff 	andi	a2,v0,0xff
   13cf4:	24050080 	li	a1,128
   13cf8:	10c50009 	beq	a2,a1,13d20 <__muldf3+0x2c0>
   13cfc:	30450100 	andi	a1,v0,0x100
   13d00:	afa20024 	sw	v0,36(sp)
   13d04:	24020003 	li	v0,3
   13d08:	afa30020 	sw	v1,32(sp)
   13d0c:	afa20010 	sw	v0,16(sp)
   13d10:	08004eaf 	j	13abc <__muldf3+0x5c>
   13d14:	27a40010 	addiu	a0,sp,16
   13d18:	08004efa 	j	13be8 <__muldf3+0x188>
   13d1c:	00001021 	move	v0,zero
   13d20:	14a0fff7 	bnez	a1,13d00 <__muldf3+0x2a0>
   13d24:	00000000 	nop
   13d28:	01042025 	or	a0,t0,a0
   13d2c:	1080fff4 	beqz	a0,13d00 <__muldf3+0x2a0>
   13d30:	00000000 	nop
   13d34:	24440080 	addiu	a0,v0,128
   13d38:	0082102b 	sltu	v0,a0,v0
   13d3c:	00431821 	addu	v1,v0,v1
   13d40:	2402ff00 	li	v0,-256
   13d44:	08004f40 	j	13d00 <__muldf3+0x2a0>
   13d48:	00441024 	and	v0,v0,a0

00013d4c <__divdf3>:
   13d4c:	27bdffa8 	addiu	sp,sp,-88
   13d50:	afa5004c 	sw	a1,76(sp)
   13d54:	afa40048 	sw	a0,72(sp)
   13d58:	27a50028 	addiu	a1,sp,40
   13d5c:	27a40048 	addiu	a0,sp,72
   13d60:	afbf0054 	sw	ra,84(sp)
   13d64:	afa70044 	sw	a3,68(sp)
   13d68:	0c0051e5 	jal	14794 <__unpack_d>
   13d6c:	afa60040 	sw	a2,64(sp)
   13d70:	27a40040 	addiu	a0,sp,64
   13d74:	0c0051e5 	jal	14794 <__unpack_d>
   13d78:	27a50010 	addiu	a1,sp,16
   13d7c:	8fa20028 	lw	v0,40(sp)
   13d80:	00000000 	nop
   13d84:	2c430002 	sltiu	v1,v0,2
   13d88:	10600008 	beqz	v1,13dac <__divdf3+0x60>
   13d8c:	00000000 	nop
   13d90:	27a40028 	addiu	a0,sp,40
   13d94:	0c005157 	jal	1455c <__pack_d>
   13d98:	00000000 	nop
   13d9c:	8fbf0054 	lw	ra,84(sp)
   13da0:	00000000 	nop
   13da4:	03e00008 	jr	ra
   13da8:	27bd0058 	addiu	sp,sp,88
   13dac:	8fa30010 	lw	v1,16(sp)
   13db0:	00000000 	nop
   13db4:	2c640002 	sltiu	a0,v1,2
   13db8:	10800007 	beqz	a0,13dd8 <__divdf3+0x8c>
   13dbc:	24040004 	li	a0,4
   13dc0:	0c005157 	jal	1455c <__pack_d>
   13dc4:	27a40010 	addiu	a0,sp,16
   13dc8:	8fbf0054 	lw	ra,84(sp)
   13dcc:	00000000 	nop
   13dd0:	03e00008 	jr	ra
   13dd4:	27bd0058 	addiu	sp,sp,88
   13dd8:	8fa6002c 	lw	a2,44(sp)
   13ddc:	8fa50014 	lw	a1,20(sp)
   13de0:	00000000 	nop
   13de4:	00c52826 	xor	a1,a2,a1
   13de8:	10440004 	beq	v0,a0,13dfc <__divdf3+0xb0>
   13dec:	afa5002c 	sw	a1,44(sp)
   13df0:	24050002 	li	a1,2
   13df4:	14450005 	bne	v0,a1,13e0c <__divdf3+0xc0>
   13df8:	00000000 	nop
   13dfc:	1443ffe4 	bne	v0,v1,13d90 <__divdf3+0x44>
   13e00:	3c040001 	lui	a0,0x1
   13e04:	08004f65 	j	13d94 <__divdf3+0x48>
   13e08:	24844f98 	addiu	a0,a0,20376
   13e0c:	10640049 	beq	v1,a0,13f34 <__divdf3+0x1e8>
   13e10:	00001021 	move	v0,zero
   13e14:	1065004d 	beq	v1,a1,13f4c <__divdf3+0x200>
   13e18:	00000000 	nop
   13e1c:	8fa20018 	lw	v0,24(sp)
   13e20:	8fa40030 	lw	a0,48(sp)
   13e24:	8fa30038 	lw	v1,56(sp)
   13e28:	8fa70020 	lw	a3,32(sp)
   13e2c:	00822023 	subu	a0,a0,v0
   13e30:	0067402b 	sltu	t0,v1,a3
   13e34:	afa40030 	sw	a0,48(sp)
   13e38:	8fa2003c 	lw	v0,60(sp)
   13e3c:	8fad0024 	lw	t5,36(sp)
   13e40:	15000006 	bnez	t0,13e5c <__divdf3+0x110>
   13e44:	00000000 	nop
   13e48:	14e3000c 	bne	a3,v1,13e7c <__divdf3+0x130>
   13e4c:	2405003d 	li	a1,61
   13e50:	004d282b 	sltu	a1,v0,t5
   13e54:	10a00008 	beqz	a1,13e78 <__divdf3+0x12c>
   13e58:	00000000 	nop
   13e5c:	00022fc2 	srl	a1,v0,0x1f
   13e60:	00031840 	sll	v1,v1,0x1
   13e64:	00a31825 	or	v1,a1,v1
   13e68:	2484ffff 	addiu	a0,a0,-1
   13e6c:	00021040 	sll	v0,v0,0x1
   13e70:	afa40030 	sw	a0,48(sp)
   13e74:	0067402b 	sltu	t0,v1,a3
   13e78:	2405003d 	li	a1,61
   13e7c:	3c041000 	lui	a0,0x1000
   13e80:	00003021 	move	a2,zero
   13e84:	00006021 	move	t4,zero
   13e88:	08004fa5 	j	13e94 <__divdf3+0x148>
   13e8c:	00005821 	move	t3,zero
   13e90:	0067402b 	sltu	t0,v1,a3
   13e94:	000457c0 	sll	t2,a0,0x1f
   13e98:	00064842 	srl	t1,a2,0x1
   13e9c:	1500000c 	bnez	t0,13ed0 <__divdf3+0x184>
   13ea0:	24a5ffff 	addiu	a1,a1,-1
   13ea4:	004d4023 	subu	t0,v0,t5
   13ea8:	0048702b 	sltu	t6,v0,t0
   13eac:	00677823 	subu	t7,v1,a3
   13eb0:	14e30003 	bne	a3,v1,13ec0 <__divdf3+0x174>
   13eb4:	004dc02b 	sltu	t8,v0,t5
   13eb8:	17000005 	bnez	t8,13ed0 <__divdf3+0x184>
   13ebc:	00000000 	nop
   13ec0:	01ee1823 	subu	v1,t7,t6
   13ec4:	01001021 	move	v0,t0
   13ec8:	01846025 	or	t4,t4,a0
   13ecc:	01665825 	or	t3,t3,a2
   13ed0:	000237c2 	srl	a2,v0,0x1f
   13ed4:	00031840 	sll	v1,v1,0x1
   13ed8:	00c31825 	or	v1,a2,v1
   13edc:	00042042 	srl	a0,a0,0x1
   13ee0:	01493025 	or	a2,t2,t1
   13ee4:	14a0ffea 	bnez	a1,13e90 <__divdf3+0x144>
   13ee8:	00021040 	sll	v0,v0,0x1
   13eec:	316500ff 	andi	a1,t3,0xff
   13ef0:	24040080 	li	a0,128
   13ef4:	10a40004 	beq	a1,a0,13f08 <__divdf3+0x1bc>
   13ef8:	31640100 	andi	a0,t3,0x100
   13efc:	afac0038 	sw	t4,56(sp)
   13f00:	08004f64 	j	13d90 <__divdf3+0x44>
   13f04:	afab003c 	sw	t3,60(sp)
   13f08:	1480fffc 	bnez	a0,13efc <__divdf3+0x1b0>
   13f0c:	00621025 	or	v0,v1,v0
   13f10:	1040fffa 	beqz	v0,13efc <__divdf3+0x1b0>
   13f14:	25620080 	addiu	v0,t3,128
   13f18:	004b582b 	sltu	t3,v0,t3
   13f1c:	016c6021 	addu	t4,t3,t4
   13f20:	240bff00 	li	t3,-256
   13f24:	01625824 	and	t3,t3,v0
   13f28:	afac0038 	sw	t4,56(sp)
   13f2c:	08004f64 	j	13d90 <__divdf3+0x44>
   13f30:	afab003c 	sw	t3,60(sp)
   13f34:	00001821 	move	v1,zero
   13f38:	afa3003c 	sw	v1,60(sp)
   13f3c:	afa20038 	sw	v0,56(sp)
   13f40:	afa00030 	sw	zero,48(sp)
   13f44:	08004f65 	j	13d94 <__divdf3+0x48>
   13f48:	27a40028 	addiu	a0,sp,40
   13f4c:	afa40028 	sw	a0,40(sp)
   13f50:	08004f65 	j	13d94 <__divdf3+0x48>
   13f54:	27a40028 	addiu	a0,sp,40

00013f58 <__eqdf2>:
   13f58:	27bdffa8 	addiu	sp,sp,-88
   13f5c:	afa5004c 	sw	a1,76(sp)
   13f60:	afa40048 	sw	a0,72(sp)
   13f64:	27a50028 	addiu	a1,sp,40
   13f68:	27a40048 	addiu	a0,sp,72
   13f6c:	afbf0054 	sw	ra,84(sp)
   13f70:	afa70044 	sw	a3,68(sp)
   13f74:	0c0051e5 	jal	14794 <__unpack_d>
   13f78:	afa60040 	sw	a2,64(sp)
   13f7c:	27a40040 	addiu	a0,sp,64
   13f80:	0c0051e5 	jal	14794 <__unpack_d>
   13f84:	27a50010 	addiu	a1,sp,16
   13f88:	8fa20028 	lw	v0,40(sp)
   13f8c:	00000000 	nop
   13f90:	2c420002 	sltiu	v0,v0,2
   13f94:	14400008 	bnez	v0,13fb8 <__eqdf2+0x60>
   13f98:	24020001 	li	v0,1
   13f9c:	8fa20010 	lw	v0,16(sp)
   13fa0:	00000000 	nop
   13fa4:	2c420002 	sltiu	v0,v0,2
   13fa8:	14400007 	bnez	v0,13fc8 <__eqdf2+0x70>
   13fac:	27a40028 	addiu	a0,sp,40
   13fb0:	0c005224 	jal	14890 <__fpcmp_parts_d>
   13fb4:	27a50010 	addiu	a1,sp,16
   13fb8:	8fbf0054 	lw	ra,84(sp)
   13fbc:	00000000 	nop
   13fc0:	03e00008 	jr	ra
   13fc4:	27bd0058 	addiu	sp,sp,88
   13fc8:	08004fee 	j	13fb8 <__eqdf2+0x60>
   13fcc:	24020001 	li	v0,1

00013fd0 <__nedf2>:
   13fd0:	27bdffa8 	addiu	sp,sp,-88
   13fd4:	afa5004c 	sw	a1,76(sp)
   13fd8:	afa40048 	sw	a0,72(sp)
   13fdc:	27a50028 	addiu	a1,sp,40
   13fe0:	27a40048 	addiu	a0,sp,72
   13fe4:	afbf0054 	sw	ra,84(sp)
   13fe8:	afa70044 	sw	a3,68(sp)
   13fec:	0c0051e5 	jal	14794 <__unpack_d>
   13ff0:	afa60040 	sw	a2,64(sp)
   13ff4:	27a40040 	addiu	a0,sp,64
   13ff8:	0c0051e5 	jal	14794 <__unpack_d>
   13ffc:	27a50010 	addiu	a1,sp,16
   14000:	8fa20028 	lw	v0,40(sp)
   14004:	00000000 	nop
   14008:	2c420002 	sltiu	v0,v0,2
   1400c:	14400008 	bnez	v0,14030 <__nedf2+0x60>
   14010:	24020001 	li	v0,1
   14014:	8fa20010 	lw	v0,16(sp)
   14018:	00000000 	nop
   1401c:	2c420002 	sltiu	v0,v0,2
   14020:	14400007 	bnez	v0,14040 <__nedf2+0x70>
   14024:	27a40028 	addiu	a0,sp,40
   14028:	0c005224 	jal	14890 <__fpcmp_parts_d>
   1402c:	27a50010 	addiu	a1,sp,16
   14030:	8fbf0054 	lw	ra,84(sp)
   14034:	00000000 	nop
   14038:	03e00008 	jr	ra
   1403c:	27bd0058 	addiu	sp,sp,88
   14040:	0800500c 	j	14030 <__nedf2+0x60>
   14044:	24020001 	li	v0,1

00014048 <__gtdf2>:
   14048:	27bdffa8 	addiu	sp,sp,-88
   1404c:	afa5004c 	sw	a1,76(sp)
   14050:	afa40048 	sw	a0,72(sp)
   14054:	27a50028 	addiu	a1,sp,40
   14058:	27a40048 	addiu	a0,sp,72
   1405c:	afbf0054 	sw	ra,84(sp)
   14060:	afa70044 	sw	a3,68(sp)
   14064:	0c0051e5 	jal	14794 <__unpack_d>
   14068:	afa60040 	sw	a2,64(sp)
   1406c:	27a40040 	addiu	a0,sp,64
   14070:	0c0051e5 	jal	14794 <__unpack_d>
   14074:	27a50010 	addiu	a1,sp,16
   14078:	8fa20028 	lw	v0,40(sp)
   1407c:	00000000 	nop
   14080:	2c420002 	sltiu	v0,v0,2
   14084:	14400008 	bnez	v0,140a8 <__gtdf2+0x60>
   14088:	2402ffff 	li	v0,-1
   1408c:	8fa20010 	lw	v0,16(sp)
   14090:	00000000 	nop
   14094:	2c420002 	sltiu	v0,v0,2
   14098:	14400007 	bnez	v0,140b8 <__gtdf2+0x70>
   1409c:	27a40028 	addiu	a0,sp,40
   140a0:	0c005224 	jal	14890 <__fpcmp_parts_d>
   140a4:	27a50010 	addiu	a1,sp,16
   140a8:	8fbf0054 	lw	ra,84(sp)
   140ac:	00000000 	nop
   140b0:	03e00008 	jr	ra
   140b4:	27bd0058 	addiu	sp,sp,88
   140b8:	0800502a 	j	140a8 <__gtdf2+0x60>
   140bc:	2402ffff 	li	v0,-1

000140c0 <__ltdf2>:
   140c0:	27bdffa8 	addiu	sp,sp,-88
   140c4:	afa5004c 	sw	a1,76(sp)
   140c8:	afa40048 	sw	a0,72(sp)
   140cc:	27a50028 	addiu	a1,sp,40
   140d0:	27a40048 	addiu	a0,sp,72
   140d4:	afbf0054 	sw	ra,84(sp)
   140d8:	afa70044 	sw	a3,68(sp)
   140dc:	0c0051e5 	jal	14794 <__unpack_d>
   140e0:	afa60040 	sw	a2,64(sp)
   140e4:	27a40040 	addiu	a0,sp,64
   140e8:	0c0051e5 	jal	14794 <__unpack_d>
   140ec:	27a50010 	addiu	a1,sp,16
   140f0:	8fa20028 	lw	v0,40(sp)
   140f4:	00000000 	nop
   140f8:	2c420002 	sltiu	v0,v0,2
   140fc:	14400008 	bnez	v0,14120 <__ltdf2+0x60>
   14100:	24020001 	li	v0,1
   14104:	8fa20010 	lw	v0,16(sp)
   14108:	00000000 	nop
   1410c:	2c420002 	sltiu	v0,v0,2
   14110:	14400007 	bnez	v0,14130 <__ltdf2+0x70>
   14114:	27a40028 	addiu	a0,sp,40
   14118:	0c005224 	jal	14890 <__fpcmp_parts_d>
   1411c:	27a50010 	addiu	a1,sp,16
   14120:	8fbf0054 	lw	ra,84(sp)
   14124:	00000000 	nop
   14128:	03e00008 	jr	ra
   1412c:	27bd0058 	addiu	sp,sp,88
   14130:	08005048 	j	14120 <__ltdf2+0x60>
   14134:	24020001 	li	v0,1

00014138 <__ledf2>:
   14138:	27bdffa8 	addiu	sp,sp,-88
   1413c:	afa5004c 	sw	a1,76(sp)
   14140:	afa40048 	sw	a0,72(sp)
   14144:	27a50028 	addiu	a1,sp,40
   14148:	27a40048 	addiu	a0,sp,72
   1414c:	afbf0054 	sw	ra,84(sp)
   14150:	afa70044 	sw	a3,68(sp)
   14154:	0c0051e5 	jal	14794 <__unpack_d>
   14158:	afa60040 	sw	a2,64(sp)
   1415c:	27a40040 	addiu	a0,sp,64
   14160:	0c0051e5 	jal	14794 <__unpack_d>
   14164:	27a50010 	addiu	a1,sp,16
   14168:	8fa20028 	lw	v0,40(sp)
   1416c:	00000000 	nop
   14170:	2c420002 	sltiu	v0,v0,2
   14174:	14400008 	bnez	v0,14198 <__ledf2+0x60>
   14178:	24020001 	li	v0,1
   1417c:	8fa20010 	lw	v0,16(sp)
   14180:	00000000 	nop
   14184:	2c420002 	sltiu	v0,v0,2
   14188:	14400007 	bnez	v0,141a8 <__ledf2+0x70>
   1418c:	27a40028 	addiu	a0,sp,40
   14190:	0c005224 	jal	14890 <__fpcmp_parts_d>
   14194:	27a50010 	addiu	a1,sp,16
   14198:	8fbf0054 	lw	ra,84(sp)
   1419c:	00000000 	nop
   141a0:	03e00008 	jr	ra
   141a4:	27bd0058 	addiu	sp,sp,88
   141a8:	08005066 	j	14198 <__ledf2+0x60>
   141ac:	24020001 	li	v0,1

000141b0 <__floatsidf>:
   141b0:	27bdffd0 	addiu	sp,sp,-48
   141b4:	000417c2 	srl	v0,a0,0x1f
   141b8:	24030003 	li	v1,3
   141bc:	afbf002c 	sw	ra,44(sp)
   141c0:	afb00028 	sw	s0,40(sp)
   141c4:	afa30010 	sw	v1,16(sp)
   141c8:	14800009 	bnez	a0,141f0 <__floatsidf+0x40>
   141cc:	afa20014 	sw	v0,20(sp)
   141d0:	24020002 	li	v0,2
   141d4:	afa20010 	sw	v0,16(sp)
   141d8:	0c005157 	jal	1455c <__pack_d>
   141dc:	27a40010 	addiu	a0,sp,16
   141e0:	8fbf002c 	lw	ra,44(sp)
   141e4:	8fb00028 	lw	s0,40(sp)
   141e8:	03e00008 	jr	ra
   141ec:	27bd0030 	addiu	sp,sp,48
   141f0:	2403003c 	li	v1,60
   141f4:	14400010 	bnez	v0,14238 <__floatsidf+0x88>
   141f8:	afa30018 	sw	v1,24(sp)
   141fc:	00808021 	move	s0,a0
   14200:	0c00512b 	jal	144ac <__clzsi2>
   14204:	02002021 	move	a0,s0
   14208:	2443001d 	addiu	v1,v0,29
   1420c:	18600012 	blez	v1,14258 <__floatsidf+0xa8>
   14210:	30640020 	andi	a0,v1,0x20
   14214:	10800013 	beqz	a0,14264 <__floatsidf+0xb4>
   14218:	00032027 	nor	a0,zero,v1
   1421c:	00701804 	sllv	v1,s0,v1
   14220:	afa30020 	sw	v1,32(sp)
   14224:	afa00024 	sw	zero,36(sp)
   14228:	2403001f 	li	v1,31
   1422c:	00621023 	subu	v0,v1,v0
   14230:	08005076 	j	141d8 <__floatsidf+0x28>
   14234:	afa20018 	sw	v0,24(sp)
   14238:	3c028000 	lui	v0,0x8000
   1423c:	1082000f 	beq	a0,v0,1427c <__floatsidf+0xcc>
   14240:	00048023 	negu	s0,a0
   14244:	0c00512b 	jal	144ac <__clzsi2>
   14248:	02002021 	move	a0,s0
   1424c:	2443001d 	addiu	v1,v0,29
   14250:	1c60fff0 	bgtz	v1,14214 <__floatsidf+0x64>
   14254:	30640020 	andi	a0,v1,0x20
   14258:	afa00020 	sw	zero,32(sp)
   1425c:	08005076 	j	141d8 <__floatsidf+0x28>
   14260:	afb00024 	sw	s0,36(sp)
   14264:	00102842 	srl	a1,s0,0x1
   14268:	00852006 	srlv	a0,a1,a0
   1426c:	00701804 	sllv	v1,s0,v1
   14270:	afa40020 	sw	a0,32(sp)
   14274:	0800508a 	j	14228 <__floatsidf+0x78>
   14278:	afa30024 	sw	v1,36(sp)
   1427c:	3c020001 	lui	v0,0x1
   14280:	8c434f94 	lw	v1,20372(v0)
   14284:	8c424f90 	lw	v0,20368(v0)
   14288:	08005078 	j	141e0 <__floatsidf+0x30>
   1428c:	00000000 	nop

00014290 <__fixdfsi>:
   14290:	27bdffc8 	addiu	sp,sp,-56
   14294:	afa5002c 	sw	a1,44(sp)
   14298:	afa40028 	sw	a0,40(sp)
   1429c:	27a50010 	addiu	a1,sp,16
   142a0:	afbf0034 	sw	ra,52(sp)
   142a4:	0c0051e5 	jal	14794 <__unpack_d>
   142a8:	27a40028 	addiu	a0,sp,40
   142ac:	8fa20010 	lw	v0,16(sp)
   142b0:	00000000 	nop
   142b4:	2c430003 	sltiu	v1,v0,3
   142b8:	1460002e 	bnez	v1,14374 <__fixdfsi+0xe4>
   142bc:	24030004 	li	v1,4
   142c0:	10430007 	beq	v0,v1,142e0 <__fixdfsi+0x50>
   142c4:	00000000 	nop
   142c8:	8fa20018 	lw	v0,24(sp)
   142cc:	00000000 	nop
   142d0:	04400028 	bltz	v0,14374 <__fixdfsi+0xe4>
   142d4:	2843001f 	slti	v1,v0,31
   142d8:	1460000a 	bnez	v1,14304 <__fixdfsi+0x74>
   142dc:	2403003c 	li	v1,60
   142e0:	8fa20014 	lw	v0,20(sp)
   142e4:	00000000 	nop
   142e8:	1440001e 	bnez	v0,14364 <__fixdfsi+0xd4>
   142ec:	3c027fff 	lui	v0,0x7fff
   142f0:	3442ffff 	ori	v0,v0,0xffff
   142f4:	8fbf0034 	lw	ra,52(sp)
   142f8:	00000000 	nop
   142fc:	03e00008 	jr	ra
   14300:	27bd0038 	addiu	sp,sp,56
   14304:	00621023 	subu	v0,v1,v0
   14308:	30430020 	andi	v1,v0,0x20
   1430c:	1060000c 	beqz	v1,14340 <__fixdfsi+0xb0>
   14310:	00022027 	nor	a0,zero,v0
   14314:	8fa30020 	lw	v1,32(sp)
   14318:	00000000 	nop
   1431c:	00431006 	srlv	v0,v1,v0
   14320:	8fa30014 	lw	v1,20(sp)
   14324:	00000000 	nop
   14328:	1060fff2 	beqz	v1,142f4 <__fixdfsi+0x64>
   1432c:	00000000 	nop
   14330:	8fbf0034 	lw	ra,52(sp)
   14334:	00021023 	negu	v0,v0
   14338:	03e00008 	jr	ra
   1433c:	27bd0038 	addiu	sp,sp,56
   14340:	8fa30020 	lw	v1,32(sp)
   14344:	00000000 	nop
   14348:	00031840 	sll	v1,v1,0x1
   1434c:	00831804 	sllv	v1,v1,a0
   14350:	8fa40024 	lw	a0,36(sp)
   14354:	00000000 	nop
   14358:	00441006 	srlv	v0,a0,v0
   1435c:	080050c8 	j	14320 <__fixdfsi+0x90>
   14360:	00621025 	or	v0,v1,v0
   14364:	8fbf0034 	lw	ra,52(sp)
   14368:	3c028000 	lui	v0,0x8000
   1436c:	03e00008 	jr	ra
   14370:	27bd0038 	addiu	sp,sp,56
   14374:	8fbf0034 	lw	ra,52(sp)
   14378:	00001021 	move	v0,zero
   1437c:	03e00008 	jr	ra
   14380:	27bd0038 	addiu	sp,sp,56

00014384 <__floatunsidf>:
   14384:	27bdffd0 	addiu	sp,sp,-48
   14388:	afb00028 	sw	s0,40(sp)
   1438c:	afbf002c 	sw	ra,44(sp)
   14390:	00808021 	move	s0,a0
   14394:	10800019 	beqz	a0,143fc <__floatunsidf+0x78>
   14398:	afa00014 	sw	zero,20(sp)
   1439c:	24020003 	li	v0,3
   143a0:	afa20010 	sw	v0,16(sp)
   143a4:	2402003c 	li	v0,60
   143a8:	0c00512b 	jal	144ac <__clzsi2>
   143ac:	afa20018 	sw	v0,24(sp)
   143b0:	2443001d 	addiu	v1,v0,29
   143b4:	0460001f 	bltz	v1,14434 <__floatunsidf+0xb0>
   143b8:	00000000 	nop
   143bc:	10600033 	beqz	v1,1448c <__floatunsidf+0x108>
   143c0:	30640020 	andi	a0,v1,0x20
   143c4:	10800015 	beqz	a0,1441c <__floatunsidf+0x98>
   143c8:	00102842 	srl	a1,s0,0x1
   143cc:	00708004 	sllv	s0,s0,v1
   143d0:	afb00020 	sw	s0,32(sp)
   143d4:	afa00024 	sw	zero,36(sp)
   143d8:	2403001f 	li	v1,31
   143dc:	00621023 	subu	v0,v1,v0
   143e0:	27a40010 	addiu	a0,sp,16
   143e4:	0c005157 	jal	1455c <__pack_d>
   143e8:	afa20018 	sw	v0,24(sp)
   143ec:	8fbf002c 	lw	ra,44(sp)
   143f0:	8fb00028 	lw	s0,40(sp)
   143f4:	03e00008 	jr	ra
   143f8:	27bd0030 	addiu	sp,sp,48
   143fc:	24020002 	li	v0,2
   14400:	afa20010 	sw	v0,16(sp)
   14404:	0c005157 	jal	1455c <__pack_d>
   14408:	27a40010 	addiu	a0,sp,16
   1440c:	8fbf002c 	lw	ra,44(sp)
   14410:	8fb00028 	lw	s0,40(sp)
   14414:	03e00008 	jr	ra
   14418:	27bd0030 	addiu	sp,sp,48
   1441c:	00032027 	nor	a0,zero,v1
   14420:	00852006 	srlv	a0,a1,a0
   14424:	00708004 	sllv	s0,s0,v1
   14428:	afa40020 	sw	a0,32(sp)
   1442c:	080050f6 	j	143d8 <__floatunsidf+0x54>
   14430:	afb00024 	sw	s0,36(sp)
   14434:	00031823 	negu	v1,v1
   14438:	30640020 	andi	a0,v1,0x20
   1443c:	10800018 	beqz	a0,144a0 <__floatunsidf+0x11c>
   14440:	00000000 	nop
   14444:	00002821 	move	a1,zero
   14448:	24a5ffff 	addiu	a1,a1,-1
   1444c:	00b02824 	and	a1,a1,s0
   14450:	10800011 	beqz	a0,14498 <__floatunsidf+0x114>
   14454:	0005282b 	sltu	a1,zero,a1
   14458:	00001821 	move	v1,zero
   1445c:	2404001f 	li	a0,31
   14460:	00821023 	subu	v0,a0,v0
   14464:	00a31825 	or	v1,a1,v1
   14468:	27a40010 	addiu	a0,sp,16
   1446c:	afa00020 	sw	zero,32(sp)
   14470:	afa30024 	sw	v1,36(sp)
   14474:	0c005157 	jal	1455c <__pack_d>
   14478:	afa20018 	sw	v0,24(sp)
   1447c:	8fbf002c 	lw	ra,44(sp)
   14480:	8fb00028 	lw	s0,40(sp)
   14484:	03e00008 	jr	ra
   14488:	27bd0030 	addiu	sp,sp,48
   1448c:	afa00020 	sw	zero,32(sp)
   14490:	08005101 	j	14404 <__floatunsidf+0x80>
   14494:	afb00024 	sw	s0,36(sp)
   14498:	08005117 	j	1445c <__floatunsidf+0xd8>
   1449c:	00701806 	srlv	v1,s0,v1
   144a0:	24050001 	li	a1,1
   144a4:	08005112 	j	14448 <__floatunsidf+0xc4>
   144a8:	00652804 	sllv	a1,a1,v1

000144ac <__clzsi2>:
   144ac:	3c020001 	lui	v0,0x1
   144b0:	0082102b 	sltu	v0,a0,v0
   144b4:	1040000c 	beqz	v0,144e8 <__clzsi2+0x3c>
   144b8:	3c020100 	lui	v0,0x100
   144bc:	2c820100 	sltiu	v0,a0,256
   144c0:	1440001d 	bnez	v0,14538 <__clzsi2+0x8c>
   144c4:	24030018 	li	v1,24
   144c8:	24020008 	li	v0,8
   144cc:	00442006 	srlv	a0,a0,v0
   144d0:	3c020001 	lui	v0,0x1
   144d4:	24424fb0 	addiu	v0,v0,20400
   144d8:	00822021 	addu	a0,a0,v0
   144dc:	90820000 	lbu	v0,0(a0)
   144e0:	03e00008 	jr	ra
   144e4:	00621023 	subu	v0,v1,v0
   144e8:	0082102b 	sltu	v0,a0,v0
   144ec:	1040000a 	beqz	v0,14518 <__clzsi2+0x6c>
   144f0:	24030008 	li	v1,8
   144f4:	24020010 	li	v0,16
   144f8:	00442006 	srlv	a0,a0,v0
   144fc:	3c020001 	lui	v0,0x1
   14500:	24424fb0 	addiu	v0,v0,20400
   14504:	00822021 	addu	a0,a0,v0
   14508:	90820000 	lbu	v0,0(a0)
   1450c:	24030010 	li	v1,16
   14510:	03e00008 	jr	ra
   14514:	00621023 	subu	v0,v1,v0
   14518:	24020018 	li	v0,24
   1451c:	00442006 	srlv	a0,a0,v0
   14520:	3c020001 	lui	v0,0x1
   14524:	24424fb0 	addiu	v0,v0,20400
   14528:	00822021 	addu	a0,a0,v0
   1452c:	90820000 	lbu	v0,0(a0)
   14530:	03e00008 	jr	ra
   14534:	00621023 	subu	v0,v1,v0
   14538:	00001021 	move	v0,zero
   1453c:	00442006 	srlv	a0,a0,v0
   14540:	3c020001 	lui	v0,0x1
   14544:	24424fb0 	addiu	v0,v0,20400
   14548:	00822021 	addu	a0,a0,v0
   1454c:	90820000 	lbu	v0,0(a0)
   14550:	24030020 	li	v1,32
   14554:	03e00008 	jr	ra
   14558:	00621023 	subu	v0,v1,v0

0001455c <__pack_d>:
   1455c:	8c820000 	lw	v0,0(a0)
   14560:	27bdffd0 	addiu	sp,sp,-48
   14564:	2c430002 	sltiu	v1,v0,2
   14568:	afb2001c 	sw	s2,28(sp)
   1456c:	afbf002c 	sw	ra,44(sp)
   14570:	afb50028 	sw	s5,40(sp)
   14574:	afb40024 	sw	s4,36(sp)
   14578:	afb30020 	sw	s3,32(sp)
   1457c:	afb10018 	sw	s1,24(sp)
   14580:	afb00014 	sw	s0,20(sp)
   14584:	8c900010 	lw	s0,16(a0)
   14588:	8c910014 	lw	s1,20(a0)
   1458c:	8c920004 	lw	s2,4(a0)
   14590:	14600042 	bnez	v1,1469c <__pack_d+0x140>
   14594:	24030004 	li	v1,4
   14598:	1043003c 	beq	v0,v1,1468c <__pack_d+0x130>
   1459c:	24030002 	li	v1,2
   145a0:	1043001c 	beq	v0,v1,14614 <__pack_d+0xb8>
   145a4:	02111025 	or	v0,s0,s1
   145a8:	1040001b 	beqz	v0,14618 <__pack_d+0xbc>
   145ac:	00001021 	move	v0,zero
   145b0:	8c820008 	lw	v0,8(a0)
   145b4:	00000000 	nop
   145b8:	2843fc02 	slti	v1,v0,-1022
   145bc:	14600040 	bnez	v1,146c0 <__pack_d+0x164>
   145c0:	28430400 	slti	v1,v0,1024
   145c4:	10600031 	beqz	v1,1468c <__pack_d+0x130>
   145c8:	322400ff 	andi	a0,s1,0xff
   145cc:	24030080 	li	v1,128
   145d0:	10830026 	beq	a0,v1,1466c <__pack_d+0x110>
   145d4:	2623007f 	addiu	v1,s1,127
   145d8:	0071882b 	sltu	s1,v1,s1
   145dc:	02308021 	addu	s0,s1,s0
   145e0:	00608821 	move	s1,v1
   145e4:	3c032000 	lui	v1,0x2000
   145e8:	0203182b 	sltu	v1,s0,v1
   145ec:	1060001a 	beqz	v1,14658 <__pack_d+0xfc>
   145f0:	001027c0 	sll	a0,s0,0x1f
   145f4:	244203ff 	addiu	v0,v0,1023
   145f8:	00101e00 	sll	v1,s0,0x18
   145fc:	00118a02 	srl	s1,s1,0x8
   14600:	00108100 	sll	s0,s0,0x4
   14604:	00108302 	srl	s0,s0,0xc
   14608:	00718825 	or	s1,v1,s1
   1460c:	08005188 	j	14620 <__pack_d+0xc4>
   14610:	00021500 	sll	v0,v0,0x14
   14614:	00001021 	move	v0,zero
   14618:	00008021 	move	s0,zero
   1461c:	00008821 	move	s1,zero
   14620:	02028025 	or	s0,s0,v0
   14624:	001297c0 	sll	s2,s2,0x1f
   14628:	8fbf002c 	lw	ra,44(sp)
   1462c:	02128025 	or	s0,s0,s2
   14630:	02001021 	move	v0,s0
   14634:	02201821 	move	v1,s1
   14638:	8fb50028 	lw	s5,40(sp)
   1463c:	8fb40024 	lw	s4,36(sp)
   14640:	8fb30020 	lw	s3,32(sp)
   14644:	8fb2001c 	lw	s2,28(sp)
   14648:	8fb10018 	lw	s1,24(sp)
   1464c:	8fb00014 	lw	s0,20(sp)
   14650:	03e00008 	jr	ra
   14654:	27bd0030 	addiu	sp,sp,48
   14658:	00111842 	srl	v1,s1,0x1
   1465c:	00838825 	or	s1,a0,v1
   14660:	00108042 	srl	s0,s0,0x1
   14664:	0800517e 	j	145f8 <__pack_d+0x9c>
   14668:	24420400 	addiu	v0,v0,1024
   1466c:	32230100 	andi	v1,s1,0x100
   14670:	1060ffdd 	beqz	v1,145e8 <__pack_d+0x8c>
   14674:	3c032000 	lui	v1,0x2000
   14678:	26230080 	addiu	v1,s1,128
   1467c:	0071882b 	sltu	s1,v1,s1
   14680:	02308021 	addu	s0,s1,s0
   14684:	08005179 	j	145e4 <__pack_d+0x88>
   14688:	00608821 	move	s1,v1
   1468c:	3c027ff0 	lui	v0,0x7ff0
   14690:	00008021 	move	s0,zero
   14694:	08005188 	j	14620 <__pack_d+0xc4>
   14698:	00008821 	move	s1,zero
   1469c:	3c02000f 	lui	v0,0xf
   146a0:	3442ffff 	ori	v0,v0,0xffff
   146a4:	02028024 	and	s0,s0,v0
   146a8:	3c020007 	lui	v0,0x7
   146ac:	3442ffff 	ori	v0,v0,0xffff
   146b0:	02028025 	or	s0,s0,v0
   146b4:	2411ffff 	li	s1,-1
   146b8:	08005188 	j	14620 <__pack_d+0xc4>
   146bc:	3c027ff0 	lui	v0,0x7ff0
   146c0:	2413fc02 	li	s3,-1022
   146c4:	02629823 	subu	s3,s3,v0
   146c8:	2a620039 	slti	v0,s3,57
   146cc:	1040002b 	beqz	v0,1477c <__pack_d+0x220>
   146d0:	00001821 	move	v1,zero
   146d4:	02002021 	move	a0,s0
   146d8:	02202821 	move	a1,s1
   146dc:	0c005274 	jal	149d0 <__lshrdi3>
   146e0:	02603021 	move	a2,s3
   146e4:	24050001 	li	a1,1
   146e8:	00002021 	move	a0,zero
   146ec:	02603021 	move	a2,s3
   146f0:	0040a021 	move	s4,v0
   146f4:	0c005284 	jal	14a10 <__ashldi3>
   146f8:	0060a821 	move	s5,v1
   146fc:	2464ffff 	addiu	a0,v1,-1
   14700:	0083282b 	sltu	a1,a0,v1
   14704:	2442ffff 	addiu	v0,v0,-1
   14708:	00a21821 	addu	v1,a1,v0
   1470c:	00912024 	and	a0,a0,s1
   14710:	00701824 	and	v1,v1,s0
   14714:	00641825 	or	v1,v1,a0
   14718:	0003182b 	sltu	v1,zero,v1
   1471c:	00751825 	or	v1,v1,s5
   14720:	306500ff 	andi	a1,v1,0xff
   14724:	24020080 	li	v0,128
   14728:	14a20015 	bne	a1,v0,14780 <__pack_d+0x224>
   1472c:	02802021 	move	a0,s4
   14730:	30620100 	andi	v0,v1,0x100
   14734:	10400005 	beqz	v0,1474c <__pack_d+0x1f0>
   14738:	00000000 	nop
   1473c:	24620080 	addiu	v0,v1,128
   14740:	0043182b 	sltu	v1,v0,v1
   14744:	00742021 	addu	a0,v1,s4
   14748:	00401821 	move	v1,v0
   1474c:	3c021000 	lui	v0,0x1000
   14750:	00048e00 	sll	s1,a0,0x18
   14754:	00048100 	sll	s0,a0,0x4
   14758:	00031a02 	srl	v1,v1,0x8
   1475c:	0082202b 	sltu	a0,a0,v0
   14760:	00108302 	srl	s0,s0,0xc
   14764:	02238825 	or	s1,s1,v1
   14768:	1080ffa8 	beqz	a0,1460c <__pack_d+0xb0>
   1476c:	24020001 	li	v0,1
   14770:	00001021 	move	v0,zero
   14774:	08005188 	j	14620 <__pack_d+0xc4>
   14778:	00021500 	sll	v0,v0,0x14
   1477c:	00002021 	move	a0,zero
   14780:	2462007f 	addiu	v0,v1,127
   14784:	0043182b 	sltu	v1,v0,v1
   14788:	00642021 	addu	a0,v1,a0
   1478c:	080051d3 	j	1474c <__pack_d+0x1f0>
   14790:	00401821 	move	v1,v0

00014794 <__unpack_d>:
   14794:	8c860000 	lw	a2,0(a0)
   14798:	3c02000f 	lui	v0,0xf
   1479c:	00063d02 	srl	a3,a2,0x14
   147a0:	000647c2 	srl	t0,a2,0x1f
   147a4:	3442ffff 	ori	v0,v0,0xffff
   147a8:	30e707ff 	andi	a3,a3,0x7ff
   147ac:	8c830004 	lw	v1,4(a0)
   147b0:	00c21024 	and	v0,a2,v0
   147b4:	14e00017 	bnez	a3,14814 <__unpack_d+0x80>
   147b8:	aca80004 	sw	t0,4(a1)
   147bc:	00432025 	or	a0,v0,v1
   147c0:	10800023 	beqz	a0,14850 <__unpack_d+0xbc>
   147c4:	00032602 	srl	a0,v1,0x18
   147c8:	00021200 	sll	v0,v0,0x8
   147cc:	00821025 	or	v0,a0,v0
   147d0:	24040003 	li	a0,3
   147d4:	aca40000 	sw	a0,0(a1)
   147d8:	00031a00 	sll	v1,v1,0x8
   147dc:	2404fc01 	li	a0,-1023
   147e0:	3c081000 	lui	t0,0x1000
   147e4:	000337c2 	srl	a2,v1,0x1f
   147e8:	00021040 	sll	v0,v0,0x1
   147ec:	00c21025 	or	v0,a2,v0
   147f0:	0048302b 	sltu	a2,v0,t0
   147f4:	00803821 	move	a3,a0
   147f8:	00031840 	sll	v1,v1,0x1
   147fc:	14c0fff9 	bnez	a2,147e4 <__unpack_d+0x50>
   14800:	2484ffff 	addiu	a0,a0,-1
   14804:	aca70008 	sw	a3,8(a1)
   14808:	aca20010 	sw	v0,16(a1)
   1480c:	03e00008 	jr	ra
   14810:	aca30014 	sw	v1,20(a1)
   14814:	240407ff 	li	a0,2047
   14818:	10e40010 	beq	a3,a0,1485c <__unpack_d+0xc8>
   1481c:	00032602 	srl	a0,v1,0x18
   14820:	00021200 	sll	v0,v0,0x8
   14824:	00821025 	or	v0,a0,v0
   14828:	3c041000 	lui	a0,0x1000
   1482c:	24e7fc01 	addiu	a3,a3,-1023
   14830:	00441025 	or	v0,v0,a0
   14834:	24040003 	li	a0,3
   14838:	00031a00 	sll	v1,v1,0x8
   1483c:	aca70008 	sw	a3,8(a1)
   14840:	aca40000 	sw	a0,0(a1)
   14844:	aca20010 	sw	v0,16(a1)
   14848:	03e00008 	jr	ra
   1484c:	aca30014 	sw	v1,20(a1)
   14850:	24020002 	li	v0,2
   14854:	03e00008 	jr	ra
   14858:	aca20000 	sw	v0,0(a1)
   1485c:	00432025 	or	a0,v0,v1
   14860:	10800006 	beqz	a0,1487c <__unpack_d+0xe8>
   14864:	3c040008 	lui	a0,0x8
   14868:	00863024 	and	a2,a0,a2
   1486c:	14c00006 	bnez	a2,14888 <__unpack_d+0xf4>
   14870:	24040001 	li	a0,1
   14874:	08005211 	j	14844 <__unpack_d+0xb0>
   14878:	aca40000 	sw	a0,0(a1)
   1487c:	24020004 	li	v0,4
   14880:	03e00008 	jr	ra
   14884:	aca20000 	sw	v0,0(a1)
   14888:	08005211 	j	14844 <__unpack_d+0xb0>
   1488c:	aca00000 	sw	zero,0(a1)

00014890 <__fpcmp_parts_d>:
   14890:	8c820000 	lw	v0,0(a0)
   14894:	00000000 	nop
   14898:	2c430002 	sltiu	v1,v0,2
   1489c:	14600015 	bnez	v1,148f4 <__fpcmp_parts_d+0x64>
   148a0:	00000000 	nop
   148a4:	8ca30000 	lw	v1,0(a1)
   148a8:	00000000 	nop
   148ac:	2c660002 	sltiu	a2,v1,2
   148b0:	14c00010 	bnez	a2,148f4 <__fpcmp_parts_d+0x64>
   148b4:	24060004 	li	a2,4
   148b8:	1046003f 	beq	v0,a2,149b8 <__fpcmp_parts_d+0x128>
   148bc:	00000000 	nop
   148c0:	10660010 	beq	v1,a2,14904 <__fpcmp_parts_d+0x74>
   148c4:	24060002 	li	a2,2
   148c8:	1046000c 	beq	v0,a2,148fc <__fpcmp_parts_d+0x6c>
   148cc:	00000000 	nop
   148d0:	10660012 	beq	v1,a2,1491c <__fpcmp_parts_d+0x8c>
   148d4:	00000000 	nop
   148d8:	8c820004 	lw	v0,4(a0)
   148dc:	8ca30004 	lw	v1,4(a1)
   148e0:	00000000 	nop
   148e4:	10430013 	beq	v0,v1,14934 <__fpcmp_parts_d+0xa4>
   148e8:	00000000 	nop
   148ec:	14400009 	bnez	v0,14914 <__fpcmp_parts_d+0x84>
   148f0:	00000000 	nop
   148f4:	03e00008 	jr	ra
   148f8:	24020001 	li	v0,1
   148fc:	1062002c 	beq	v1,v0,149b0 <__fpcmp_parts_d+0x120>
   14900:	00000000 	nop
   14904:	8ca20004 	lw	v0,4(a1)
   14908:	00000000 	nop
   1490c:	1440fff9 	bnez	v0,148f4 <__fpcmp_parts_d+0x64>
   14910:	00000000 	nop
   14914:	03e00008 	jr	ra
   14918:	2402ffff 	li	v0,-1
   1491c:	8c820004 	lw	v0,4(a0)
   14920:	00000000 	nop
   14924:	1440fffb 	bnez	v0,14914 <__fpcmp_parts_d+0x84>
   14928:	00000000 	nop
   1492c:	03e00008 	jr	ra
   14930:	24020001 	li	v0,1
   14934:	8c860008 	lw	a2,8(a0)
   14938:	8ca30008 	lw	v1,8(a1)
   1493c:	00000000 	nop
   14940:	0066382a 	slt	a3,v1,a2
   14944:	14e0ffe9 	bnez	a3,148ec <__fpcmp_parts_d+0x5c>
   14948:	00c3182a 	slt	v1,a2,v1
   1494c:	14600014 	bnez	v1,149a0 <__fpcmp_parts_d+0x110>
   14950:	00000000 	nop
   14954:	8ca60010 	lw	a2,16(a1)
   14958:	8c830010 	lw	v1,16(a0)
   1495c:	8c870014 	lw	a3,20(a0)
   14960:	00c3202b 	sltu	a0,a2,v1
   14964:	8ca50014 	lw	a1,20(a1)
   14968:	1480ffe0 	bnez	a0,148ec <__fpcmp_parts_d+0x5c>
   1496c:	00000000 	nop
   14970:	14660005 	bne	v1,a2,14988 <__fpcmp_parts_d+0xf8>
   14974:	0066202b 	sltu	a0,v1,a2
   14978:	00a7202b 	sltu	a0,a1,a3
   1497c:	1480ffdb 	bnez	a0,148ec <__fpcmp_parts_d+0x5c>
   14980:	00000000 	nop
   14984:	0066202b 	sltu	a0,v1,a2
   14988:	14800005 	bnez	a0,149a0 <__fpcmp_parts_d+0x110>
   1498c:	00000000 	nop
   14990:	14c30007 	bne	a2,v1,149b0 <__fpcmp_parts_d+0x120>
   14994:	00e5282b 	sltu	a1,a3,a1
   14998:	10a00005 	beqz	a1,149b0 <__fpcmp_parts_d+0x120>
   1499c:	00000000 	nop
   149a0:	1040ffdc 	beqz	v0,14914 <__fpcmp_parts_d+0x84>
   149a4:	00000000 	nop
   149a8:	0800523d 	j	148f4 <__fpcmp_parts_d+0x64>
   149ac:	00000000 	nop
   149b0:	03e00008 	jr	ra
   149b4:	00001021 	move	v0,zero
   149b8:	1462ffd8 	bne	v1,v0,1491c <__fpcmp_parts_d+0x8c>
   149bc:	00000000 	nop
   149c0:	8ca30004 	lw	v1,4(a1)
   149c4:	8c820004 	lw	v0,4(a0)
   149c8:	03e00008 	jr	ra
   149cc:	00621023 	subu	v0,v1,v0

000149d0 <__lshrdi3>:
   149d0:	10c00009 	beqz	a2,149f8 <__lshrdi3+0x28>
   149d4:	00801021 	move	v0,a0
   149d8:	24030020 	li	v1,32
   149dc:	00661823 	subu	v1,v1,a2
   149e0:	18600007 	blez	v1,14a00 <__lshrdi3+0x30>
   149e4:	00c52806 	srlv	a1,a1,a2
   149e8:	00641804 	sllv	v1,a0,v1
   149ec:	00c41006 	srlv	v0,a0,a2
   149f0:	03e00008 	jr	ra
   149f4:	00651825 	or	v1,v1,a1
   149f8:	03e00008 	jr	ra
   149fc:	00a01821 	move	v1,a1
   14a00:	00031823 	negu	v1,v1
   14a04:	00001021 	move	v0,zero
   14a08:	03e00008 	jr	ra
   14a0c:	00641806 	srlv	v1,a0,v1

00014a10 <__ashldi3>:
   14a10:	10c00009 	beqz	a2,14a38 <__ashldi3+0x28>
   14a14:	00801021 	move	v0,a0
   14a18:	24020020 	li	v0,32
   14a1c:	00461023 	subu	v0,v0,a2
   14a20:	18400007 	blez	v0,14a40 <__ashldi3+0x30>
   14a24:	00c42004 	sllv	a0,a0,a2
   14a28:	00451006 	srlv	v0,a1,v0
   14a2c:	00c51804 	sllv	v1,a1,a2
   14a30:	03e00008 	jr	ra
   14a34:	00441025 	or	v0,v0,a0
   14a38:	03e00008 	jr	ra
   14a3c:	00a01821 	move	v1,a1
   14a40:	00021023 	negu	v0,v0
   14a44:	00001821 	move	v1,zero
   14a48:	03e00008 	jr	ra
   14a4c:	00451004 	sllv	v0,a1,v0
